bin/dtekv-riscv.elf:     file format elf32-littleriscv


Disassembly of section .text:

00000000 <_isr_handler>:
       0:	0080006f          	j	8 <_isr_routine>
       4:	1440006f          	j	148 <_start>

00000008 <_isr_routine>:
       8:	f8010113          	add	sp,sp,-128
       c:	00112023          	sw	ra,0(sp)
      10:	00312423          	sw	gp,8(sp)
      14:	00412623          	sw	tp,12(sp)
      18:	00512823          	sw	t0,16(sp)
      1c:	00612a23          	sw	t1,20(sp)
      20:	00712c23          	sw	t2,24(sp)
      24:	00812e23          	sw	s0,28(sp)
      28:	02912023          	sw	s1,32(sp)
      2c:	02a12223          	sw	a0,36(sp)
      30:	02b12423          	sw	a1,40(sp)
      34:	02c12623          	sw	a2,44(sp)
      38:	02d12823          	sw	a3,48(sp)
      3c:	02e12a23          	sw	a4,52(sp)
      40:	02f12c23          	sw	a5,56(sp)
      44:	03012e23          	sw	a6,60(sp)
      48:	05112023          	sw	a7,64(sp)
      4c:	05212223          	sw	s2,68(sp)
      50:	05312423          	sw	s3,72(sp)
      54:	05412623          	sw	s4,76(sp)
      58:	05512823          	sw	s5,80(sp)
      5c:	05612a23          	sw	s6,84(sp)
      60:	05712c23          	sw	s7,88(sp)
      64:	05812e23          	sw	s8,92(sp)
      68:	07912023          	sw	s9,96(sp)
      6c:	07a12223          	sw	s10,100(sp)
      70:	07b12423          	sw	s11,104(sp)
      74:	07c12623          	sw	t3,108(sp)
      78:	07d12823          	sw	t4,112(sp)
      7c:	07e12a23          	sw	t5,116(sp)
      80:	07f12c23          	sw	t6,120(sp)
      84:	342022f3          	csrr	t0,mcause
      88:	80000337          	lui	t1,0x80000
      8c:	02536463          	bltu	t1,t0,b4 <external_irq>
      90:	00028833          	add	a6,t0,zero
      94:	00b00313          	li	t1,11
      98:	00628463          	beq	t0,t1,a0 <skip_init_args>
      9c:	34102573          	csrr	a0,mepc

000000a0 <skip_init_args>:
      a0:	55c000ef          	jal	5fc <handle_exception>
      a4:	341022f3          	csrr	t0,mepc
      a8:	00428293          	add	t0,t0,4
      ac:	34129073          	csrw	mepc,t0
      b0:	0180006f          	j	c8 <restore>

000000b4 <external_irq>:
      b4:	800002b7          	lui	t0,0x80000
      b8:	fff28293          	add	t0,t0,-1 # 7fffffff <_stack_end+0x7feef0b7>
      bc:	34202373          	csrr	t1,mcause
      c0:	0062f533          	and	a0,t0,t1
      c4:	2f8000ef          	jal	3bc <handle_interrupt>

000000c8 <restore>:
      c8:	00012083          	lw	ra,0(sp)
      cc:	00812183          	lw	gp,8(sp)
      d0:	00c12203          	lw	tp,12(sp)
      d4:	01012283          	lw	t0,16(sp)
      d8:	01412303          	lw	t1,20(sp)
      dc:	01812383          	lw	t2,24(sp)
      e0:	01c12403          	lw	s0,28(sp)
      e4:	02012483          	lw	s1,32(sp)
      e8:	02412503          	lw	a0,36(sp)
      ec:	02812583          	lw	a1,40(sp)
      f0:	02c12603          	lw	a2,44(sp)
      f4:	03012683          	lw	a3,48(sp)
      f8:	03412703          	lw	a4,52(sp)
      fc:	03812783          	lw	a5,56(sp)
     100:	03c12803          	lw	a6,60(sp)
     104:	04012883          	lw	a7,64(sp)
     108:	04412903          	lw	s2,68(sp)
     10c:	04812983          	lw	s3,72(sp)
     110:	04c12a03          	lw	s4,76(sp)
     114:	05012a83          	lw	s5,80(sp)
     118:	05412b03          	lw	s6,84(sp)
     11c:	05812b83          	lw	s7,88(sp)
     120:	05c12c03          	lw	s8,92(sp)
     124:	06012c83          	lw	s9,96(sp)
     128:	06412d03          	lw	s10,100(sp)
     12c:	06812d83          	lw	s11,104(sp)
     130:	06c12e03          	lw	t3,108(sp)
     134:	07012e83          	lw	t4,112(sp)
     138:	07412f03          	lw	t5,116(sp)
     13c:	07812f83          	lw	t6,120(sp)
     140:	08010113          	add	sp,sp,128
     144:	30200073          	mret

00000148 <_start>:
     148:	00111117          	auipc	sp,0x111
     14c:	e0010113          	add	sp,sp,-512 # 110f48 <_stack_end>
     150:	0000f197          	auipc	gp,0xf
     154:	f5418193          	add	gp,gp,-172 # f0a4 <__global_pointer>
     158:	0000e517          	auipc	a0,0xe
     15c:	6a850513          	add	a0,a0,1704 # e800 <welcome_msg>
     160:	00400893          	li	a7,4
     164:	00000073          	ecall
     168:	59c000ef          	jal	704 <main>

0000016c <loop>:
     16c:	0000006f          	j	16c <loop>

00000170 <enable_interrupt>:
     170:	30486073          	csrs	mie,16
     174:	3048e073          	csrs	mie,17
     178:	30496073          	csrs	mie,18
     17c:	3001e073          	csrs	mstatus,3
     180:	00000297          	auipc	t0,0x0
     184:	e8028293          	add	t0,t0,-384 # 0 <_isr_handler>
     188:	30529073          	csrw	mtvec,t0
     18c:	00008067          	ret

00000190 <strcpy>:
     190:	fd010113          	add	sp,sp,-48
     194:	02812623          	sw	s0,44(sp)
     198:	03010413          	add	s0,sp,48
     19c:	fca42e23          	sw	a0,-36(s0)
     1a0:	fcb42c23          	sw	a1,-40(s0)
     1a4:	fe042623          	sw	zero,-20(s0)
     1a8:	0300006f          	j	1d8 <strcpy+0x48>
     1ac:	fec42783          	lw	a5,-20(s0)
     1b0:	fd842703          	lw	a4,-40(s0)
     1b4:	00f70733          	add	a4,a4,a5
     1b8:	fec42783          	lw	a5,-20(s0)
     1bc:	fdc42683          	lw	a3,-36(s0)
     1c0:	00f687b3          	add	a5,a3,a5
     1c4:	00074703          	lbu	a4,0(a4)
     1c8:	00e78023          	sb	a4,0(a5)
     1cc:	fec42783          	lw	a5,-20(s0)
     1d0:	00178793          	add	a5,a5,1
     1d4:	fef42623          	sw	a5,-20(s0)
     1d8:	fec42783          	lw	a5,-20(s0)
     1dc:	fd842703          	lw	a4,-40(s0)
     1e0:	00f707b3          	add	a5,a4,a5
     1e4:	0007c783          	lbu	a5,0(a5)
     1e8:	fc0792e3          	bnez	a5,1ac <strcpy+0x1c>
     1ec:	fec42783          	lw	a5,-20(s0)
     1f0:	fdc42703          	lw	a4,-36(s0)
     1f4:	00f707b3          	add	a5,a4,a5
     1f8:	00078023          	sb	zero,0(a5)
     1fc:	fdc42783          	lw	a5,-36(s0)
     200:	00078513          	mv	a0,a5
     204:	02c12403          	lw	s0,44(sp)
     208:	03010113          	add	sp,sp,48
     20c:	00008067          	ret

00000210 <memcpy>:
     210:	fd010113          	add	sp,sp,-48
     214:	02812623          	sw	s0,44(sp)
     218:	03010413          	add	s0,sp,48
     21c:	fca42e23          	sw	a0,-36(s0)
     220:	fcb42c23          	sw	a1,-40(s0)
     224:	fcc42a23          	sw	a2,-44(s0)
     228:	fe042623          	sw	zero,-20(s0)
     22c:	0300006f          	j	25c <memcpy+0x4c>
     230:	fd842703          	lw	a4,-40(s0)
     234:	fec42783          	lw	a5,-20(s0)
     238:	00f70733          	add	a4,a4,a5
     23c:	fdc42683          	lw	a3,-36(s0)
     240:	fec42783          	lw	a5,-20(s0)
     244:	00f687b3          	add	a5,a3,a5
     248:	00074703          	lbu	a4,0(a4)
     24c:	00e78023          	sb	a4,0(a5)
     250:	fec42783          	lw	a5,-20(s0)
     254:	00178793          	add	a5,a5,1
     258:	fef42623          	sw	a5,-20(s0)
     25c:	fec42703          	lw	a4,-20(s0)
     260:	fd442783          	lw	a5,-44(s0)
     264:	fcf766e3          	bltu	a4,a5,230 <memcpy+0x20>
     268:	fdc42783          	lw	a5,-36(s0)
     26c:	00078513          	mv	a0,a5
     270:	02c12403          	lw	s0,44(sp)
     274:	03010113          	add	sp,sp,48
     278:	00008067          	ret

0000027c <memset>:
     27c:	fd010113          	add	sp,sp,-48
     280:	02812623          	sw	s0,44(sp)
     284:	03010413          	add	s0,sp,48
     288:	fca42e23          	sw	a0,-36(s0)
     28c:	fcb42c23          	sw	a1,-40(s0)
     290:	fcc42a23          	sw	a2,-44(s0)
     294:	fe042623          	sw	zero,-20(s0)
     298:	0280006f          	j	2c0 <memset+0x44>
     29c:	fdc42703          	lw	a4,-36(s0)
     2a0:	fec42783          	lw	a5,-20(s0)
     2a4:	00f707b3          	add	a5,a4,a5
     2a8:	fd842703          	lw	a4,-40(s0)
     2ac:	0ff77713          	zext.b	a4,a4
     2b0:	00e78023          	sb	a4,0(a5)
     2b4:	fec42783          	lw	a5,-20(s0)
     2b8:	00178793          	add	a5,a5,1
     2bc:	fef42623          	sw	a5,-20(s0)
     2c0:	fec42703          	lw	a4,-20(s0)
     2c4:	fd442783          	lw	a5,-44(s0)
     2c8:	fcf76ae3          	bltu	a4,a5,29c <memset+0x20>
     2cc:	fdc42783          	lw	a5,-36(s0)
     2d0:	00078513          	mv	a0,a5
     2d4:	02c12403          	lw	s0,44(sp)
     2d8:	03010113          	add	sp,sp,48
     2dc:	00008067          	ret

000002e0 <abs>:
     2e0:	fe010113          	add	sp,sp,-32
     2e4:	00812e23          	sw	s0,28(sp)
     2e8:	02010413          	add	s0,sp,32
     2ec:	fea42623          	sw	a0,-20(s0)
     2f0:	fec42783          	lw	a5,-20(s0)
     2f4:	41f7d713          	sra	a4,a5,0x1f
     2f8:	fec42783          	lw	a5,-20(s0)
     2fc:	00f747b3          	xor	a5,a4,a5
     300:	40e787b3          	sub	a5,a5,a4
     304:	00078513          	mv	a0,a5
     308:	01c12403          	lw	s0,28(sp)
     30c:	02010113          	add	sp,sp,32
     310:	00008067          	ret

00000314 <rand>:
     314:	ff010113          	add	sp,sp,-16
     318:	00812623          	sw	s0,12(sp)
     31c:	01010413          	add	s0,sp,16
     320:	41c657b7          	lui	a5,0x41c65
     324:	e6d78713          	add	a4,a5,-403 # 41c64e6d <_stack_end+0x41b53f25>
     328:	0000f7b7          	lui	a5,0xf
     32c:	8bc7a783          	lw	a5,-1860(a5) # e8bc <__state>
     330:	02f70733          	mul	a4,a4,a5
     334:	000037b7          	lui	a5,0x3
     338:	03978793          	add	a5,a5,57 # 3039 <render_card_border+0x105>
     33c:	00f70733          	add	a4,a4,a5
     340:	800007b7          	lui	a5,0x80000
     344:	fff78793          	add	a5,a5,-1 # 7fffffff <_stack_end+0x7feef0b7>
     348:	02f77733          	remu	a4,a4,a5
     34c:	0000f7b7          	lui	a5,0xf
     350:	8ae7ae23          	sw	a4,-1860(a5) # e8bc <__state>
     354:	0000f7b7          	lui	a5,0xf
     358:	8bc7a783          	lw	a5,-1860(a5) # e8bc <__state>
     35c:	00078513          	mv	a0,a5
     360:	00c12403          	lw	s0,12(sp)
     364:	01010113          	add	sp,sp,16
     368:	00008067          	ret

0000036c <srand>:
     36c:	fe010113          	add	sp,sp,-32
     370:	00812e23          	sw	s0,28(sp)
     374:	02010413          	add	s0,sp,32
     378:	fea42623          	sw	a0,-20(s0)
     37c:	0000f7b7          	lui	a5,0xf
     380:	fec42703          	lw	a4,-20(s0)
     384:	8ae7ac23          	sw	a4,-1864(a5) # e8b8 <__seed>
     388:	0000f7b7          	lui	a5,0xf
     38c:	8b87a783          	lw	a5,-1864(a5) # e8b8 <__seed>
     390:	00079863          	bnez	a5,3a0 <srand+0x34>
     394:	0000f7b7          	lui	a5,0xf
     398:	00100713          	li	a4,1
     39c:	8ae7ac23          	sw	a4,-1864(a5) # e8b8 <__seed>
     3a0:	0000f7b7          	lui	a5,0xf
     3a4:	fec42703          	lw	a4,-20(s0)
     3a8:	8ae7ae23          	sw	a4,-1860(a5) # e8bc <__state>
     3ac:	00000013          	nop
     3b0:	01c12403          	lw	s0,28(sp)
     3b4:	02010113          	add	sp,sp,32
     3b8:	00008067          	ret

000003bc <handle_interrupt>:
     3bc:	fd010113          	add	sp,sp,-48
     3c0:	02112623          	sw	ra,44(sp)
     3c4:	02812423          	sw	s0,40(sp)
     3c8:	03010413          	add	s0,sp,48
     3cc:	fca42e23          	sw	a0,-36(s0)
     3d0:	0000f7b7          	lui	a5,0xf
     3d4:	8a47a783          	lw	a5,-1884(a5) # e8a4 <main_state>
     3d8:	00178793          	add	a5,a5,1
     3dc:	00900713          	li	a4,9
     3e0:	1cf76063          	bltu	a4,a5,5a0 <handle_interrupt+0x1e4>
     3e4:	00279713          	sll	a4,a5,0x2
     3e8:	000107b7          	lui	a5,0x10
     3ec:	d0078793          	add	a5,a5,-768 # fd00 <last_board+0x4>
     3f0:	00f707b3          	add	a5,a4,a5
     3f4:	0007a783          	lw	a5,0(a5)
     3f8:	00078067          	jr	a5
     3fc:	fdc42503          	lw	a0,-36(s0)
     400:	2b0030ef          	jal	36b0 <main_menu_handle_interrupt>
     404:	00050793          	mv	a5,a0
     408:	fef42623          	sw	a5,-20(s0)
     40c:	fec42703          	lw	a4,-20(s0)
     410:	fff00793          	li	a5,-1
     414:	14f70863          	beq	a4,a5,564 <handle_interrupt+0x1a8>
     418:	fec42703          	lw	a4,-20(s0)
     41c:	0000f7b7          	lui	a5,0xf
     420:	8ae7a223          	sw	a4,-1884(a5) # e8a4 <main_state>
     424:	694080ef          	jal	8ab8 <othello_handler_reset>
     428:	0b40c0ef          	jal	c4dc <chess_handler_reset>
     42c:	595060ef          	jal	71c0 <fiar_handler_reset>
     430:	378050ef          	jal	57a8 <checkers_handler_reset>
     434:	17d020ef          	jal	2db0 <solitaire_handler_reset>
     438:	0e40e0ef          	jal	e51c <bt_handler_reset>
     43c:	025070ef          	jal	7c60 <tetris_handler_reset>
     440:	2a50d0ef          	jal	dee4 <snake_handler_reset>
     444:	1200006f          	j	564 <handle_interrupt+0x1a8>
     448:	fdc42503          	lw	a0,-36(s0)
     44c:	3ec080ef          	jal	8838 <othello_handle_interrupt>
     450:	00050793          	mv	a5,a0
     454:	10078c63          	beqz	a5,56c <handle_interrupt+0x1b0>
     458:	0000f7b7          	lui	a5,0xf
     45c:	fff00713          	li	a4,-1
     460:	8ae7a223          	sw	a4,-1884(a5) # e8a4 <main_state>
     464:	388030ef          	jal	37ec <main_menu_handler_reset>
     468:	1040006f          	j	56c <handle_interrupt+0x1b0>
     46c:	fdc42503          	lw	a0,-36(s0)
     470:	7090b0ef          	jal	c378 <chess_handle_interrupt>
     474:	00050793          	mv	a5,a0
     478:	0e078e63          	beqz	a5,574 <handle_interrupt+0x1b8>
     47c:	0000f7b7          	lui	a5,0xf
     480:	fff00713          	li	a4,-1
     484:	8ae7a223          	sw	a4,-1884(a5) # e8a4 <main_state>
     488:	364030ef          	jal	37ec <main_menu_handler_reset>
     48c:	0e80006f          	j	574 <handle_interrupt+0x1b8>
     490:	fdc42503          	lw	a0,-36(s0)
     494:	439060ef          	jal	70cc <fiar_handle_interrupt>
     498:	00050793          	mv	a5,a0
     49c:	0e078063          	beqz	a5,57c <handle_interrupt+0x1c0>
     4a0:	0000f7b7          	lui	a5,0xf
     4a4:	fff00713          	li	a4,-1
     4a8:	8ae7a223          	sw	a4,-1884(a5) # e8a4 <main_state>
     4ac:	340030ef          	jal	37ec <main_menu_handler_reset>
     4b0:	0cc0006f          	j	57c <handle_interrupt+0x1c0>
     4b4:	fdc42503          	lw	a0,-36(s0)
     4b8:	0fc050ef          	jal	55b4 <checkers_handle_interrupt>
     4bc:	00050793          	mv	a5,a0
     4c0:	0c078263          	beqz	a5,584 <handle_interrupt+0x1c8>
     4c4:	0000f7b7          	lui	a5,0xf
     4c8:	fff00713          	li	a4,-1
     4cc:	8ae7a223          	sw	a4,-1884(a5) # e8a4 <main_state>
     4d0:	31c030ef          	jal	37ec <main_menu_handler_reset>
     4d4:	0b00006f          	j	584 <handle_interrupt+0x1c8>
     4d8:	fdc42503          	lw	a0,-36(s0)
     4dc:	069020ef          	jal	2d44 <solitaire_handle_interrupt>
     4e0:	00050793          	mv	a5,a0
     4e4:	0a078463          	beqz	a5,58c <handle_interrupt+0x1d0>
     4e8:	0000f7b7          	lui	a5,0xf
     4ec:	fff00713          	li	a4,-1
     4f0:	8ae7a223          	sw	a4,-1884(a5) # e8a4 <main_state>
     4f4:	2f8030ef          	jal	37ec <main_menu_handler_reset>
     4f8:	0940006f          	j	58c <handle_interrupt+0x1d0>
     4fc:	fdc42503          	lw	a0,-36(s0)
     500:	7950d0ef          	jal	e494 <bt_handle_interrupt>
     504:	00050793          	mv	a5,a0
     508:	00078a63          	beqz	a5,51c <handle_interrupt+0x160>
     50c:	0000f7b7          	lui	a5,0xf
     510:	fff00713          	li	a4,-1
     514:	8ae7a223          	sw	a4,-1884(a5) # e8a4 <main_state>
     518:	2d4030ef          	jal	37ec <main_menu_handler_reset>
     51c:	fdc42503          	lw	a0,-36(s0)
     520:	6d4070ef          	jal	7bf4 <tetris_handle_interrupt>
     524:	00050793          	mv	a5,a0
     528:	06078663          	beqz	a5,594 <handle_interrupt+0x1d8>
     52c:	0000f7b7          	lui	a5,0xf
     530:	fff00713          	li	a4,-1
     534:	8ae7a223          	sw	a4,-1884(a5) # e8a4 <main_state>
     538:	2b4030ef          	jal	37ec <main_menu_handler_reset>
     53c:	0580006f          	j	594 <handle_interrupt+0x1d8>
     540:	fdc42503          	lw	a0,-36(s0)
     544:	0690d0ef          	jal	ddac <snake_handle_interrupt>
     548:	00050793          	mv	a5,a0
     54c:	04078863          	beqz	a5,59c <handle_interrupt+0x1e0>
     550:	0000f7b7          	lui	a5,0xf
     554:	fff00713          	li	a4,-1
     558:	8ae7a223          	sw	a4,-1884(a5) # e8a4 <main_state>
     55c:	290030ef          	jal	37ec <main_menu_handler_reset>
     560:	03c0006f          	j	59c <handle_interrupt+0x1e0>
     564:	00000013          	nop
     568:	0380006f          	j	5a0 <handle_interrupt+0x1e4>
     56c:	00000013          	nop
     570:	0300006f          	j	5a0 <handle_interrupt+0x1e4>
     574:	00000013          	nop
     578:	0280006f          	j	5a0 <handle_interrupt+0x1e4>
     57c:	00000013          	nop
     580:	0200006f          	j	5a0 <handle_interrupt+0x1e4>
     584:	00000013          	nop
     588:	0180006f          	j	5a0 <handle_interrupt+0x1e4>
     58c:	00000013          	nop
     590:	0100006f          	j	5a0 <handle_interrupt+0x1e4>
     594:	00000013          	nop
     598:	0080006f          	j	5a0 <handle_interrupt+0x1e4>
     59c:	00000013          	nop
     5a0:	fdc42703          	lw	a4,-36(s0)
     5a4:	01200793          	li	a5,18
     5a8:	02f70863          	beq	a4,a5,5d8 <handle_interrupt+0x21c>
     5ac:	fdc42703          	lw	a4,-36(s0)
     5b0:	01200793          	li	a5,18
     5b4:	02e7ea63          	bltu	a5,a4,5e8 <handle_interrupt+0x22c>
     5b8:	fdc42703          	lw	a4,-36(s0)
     5bc:	01000793          	li	a5,16
     5c0:	02f70063          	beq	a4,a5,5e0 <handle_interrupt+0x224>
     5c4:	fdc42703          	lw	a4,-36(s0)
     5c8:	01100793          	li	a5,17
     5cc:	00f71e63          	bne	a4,a5,5e8 <handle_interrupt+0x22c>
     5d0:	458000ef          	jal	a28 <io_switch_irq_reset>
     5d4:	0140006f          	j	5e8 <handle_interrupt+0x22c>
     5d8:	374000ef          	jal	94c <io_button_irq_reset>
     5dc:	00c0006f          	j	5e8 <handle_interrupt+0x22c>
     5e0:	20c000ef          	jal	7ec <io_timer_irq_reset>
     5e4:	00000013          	nop
     5e8:	00000013          	nop
     5ec:	02c12083          	lw	ra,44(sp)
     5f0:	02812403          	lw	s0,40(sp)
     5f4:	03010113          	add	sp,sp,48
     5f8:	00008067          	ret

000005fc <handle_exception>:
     5fc:	fd010113          	add	sp,sp,-48
     600:	02112623          	sw	ra,44(sp)
     604:	02812423          	sw	s0,40(sp)
     608:	03010413          	add	s0,sp,48
     60c:	fea42623          	sw	a0,-20(s0)
     610:	feb42423          	sw	a1,-24(s0)
     614:	fec42223          	sw	a2,-28(s0)
     618:	fed42023          	sw	a3,-32(s0)
     61c:	fce42e23          	sw	a4,-36(s0)
     620:	fcf42c23          	sw	a5,-40(s0)
     624:	fd042a23          	sw	a6,-44(s0)
     628:	fd142823          	sw	a7,-48(s0)
     62c:	fd442703          	lw	a4,-44(s0)
     630:	00b00793          	li	a5,11
     634:	04f70463          	beq	a4,a5,67c <handle_exception+0x80>
     638:	fd442703          	lw	a4,-44(s0)
     63c:	00b00793          	li	a5,11
     640:	06e7ea63          	bltu	a5,a4,6b4 <handle_exception+0xb8>
     644:	fd442783          	lw	a5,-44(s0)
     648:	00078a63          	beqz	a5,65c <handle_exception+0x60>
     64c:	fd442703          	lw	a4,-44(s0)
     650:	00200793          	li	a5,2
     654:	00f70c63          	beq	a4,a5,66c <handle_exception+0x70>
     658:	05c0006f          	j	6b4 <handle_exception+0xb8>
     65c:	000107b7          	lui	a5,0x10
     660:	d2878513          	add	a0,a5,-728 # fd28 <last_board+0x2c>
     664:	1f0000ef          	jal	854 <io_jtag_print>
     668:	05c0006f          	j	6c4 <handle_exception+0xc8>
     66c:	000107b7          	lui	a5,0x10
     670:	d5878513          	add	a0,a5,-680 # fd58 <last_board+0x5c>
     674:	1e0000ef          	jal	854 <io_jtag_print>
     678:	04c0006f          	j	6c4 <handle_exception+0xc8>
     67c:	fd042703          	lw	a4,-48(s0)
     680:	00400793          	li	a5,4
     684:	00f71863          	bne	a4,a5,694 <handle_exception+0x98>
     688:	fec42783          	lw	a5,-20(s0)
     68c:	00078513          	mv	a0,a5
     690:	1c4000ef          	jal	854 <io_jtag_print>
     694:	fd042703          	lw	a4,-48(s0)
     698:	00b00793          	li	a5,11
     69c:	04f71a63          	bne	a4,a5,6f0 <handle_exception+0xf4>
     6a0:	fec42783          	lw	a5,-20(s0)
     6a4:	0ff7f793          	zext.b	a5,a5
     6a8:	00078513          	mv	a0,a5
     6ac:	15c000ef          	jal	808 <io_jtag_printc>
     6b0:	0400006f          	j	6f0 <handle_exception+0xf4>
     6b4:	000107b7          	lui	a5,0x10
     6b8:	d7c78513          	add	a0,a5,-644 # fd7c <last_board+0x80>
     6bc:	198000ef          	jal	854 <io_jtag_print>
     6c0:	00000013          	nop
     6c4:	000107b7          	lui	a5,0x10
     6c8:	d9c78513          	add	a0,a5,-612 # fd9c <last_board+0xa0>
     6cc:	188000ef          	jal	854 <io_jtag_print>
     6d0:	fec42783          	lw	a5,-20(s0)
     6d4:	00078513          	mv	a0,a5
     6d8:	1d4000ef          	jal	8ac <io_jtag_print_dec>
     6dc:	000107b7          	lui	a5,0x10
     6e0:	db078513          	add	a0,a5,-592 # fdb0 <last_board+0xb4>
     6e4:	170000ef          	jal	854 <io_jtag_print>
     6e8:	00000013          	nop
     6ec:	ffdff06f          	j	6e8 <handle_exception+0xec>
     6f0:	00000013          	nop
     6f4:	02c12083          	lw	ra,44(sp)
     6f8:	02812403          	lw	s0,40(sp)
     6fc:	03010113          	add	sp,sp,48
     700:	00008067          	ret

00000704 <main>:
     704:	ff010113          	add	sp,sp,-16
     708:	00112623          	sw	ra,12(sp)
     70c:	00812423          	sw	s0,8(sp)
     710:	01010413          	add	s0,sp,16
     714:	a5dff0ef          	jal	170 <enable_interrupt>
     718:	2b8000ef          	jal	9d0 <io_switch_irq_enable>
     71c:	204000ef          	jal	920 <io_button_irq_enable>
     720:	03200513          	li	a0,50
     724:	08c000ef          	jal	7b0 <io_timer_set_timeout>
     728:	0a8000ef          	jal	7d0 <io_timer_irq_enable>
     72c:	01e00513          	li	a0,30
     730:	c3dff0ef          	jal	36c <srand>
     734:	be1ff0ef          	jal	314 <rand>
     738:	0000f7b7          	lui	a5,0xf
     73c:	8a47a783          	lw	a5,-1884(a5) # e8a4 <main_state>
     740:	00178793          	add	a5,a5,1
     744:	00900713          	li	a4,9
     748:	fef766e3          	bltu	a4,a5,734 <main+0x30>
     74c:	00279713          	sll	a4,a5,0x2
     750:	000107b7          	lui	a5,0x10
     754:	db478793          	add	a5,a5,-588 # fdb4 <last_board+0xb8>
     758:	00f707b3          	add	a5,a4,a5
     75c:	0007a783          	lw	a5,0(a5)
     760:	00078067          	jr	a5
     764:	0ac030ef          	jal	3810 <main_menu_handler_render>
     768:	0440006f          	j	7ac <main+0xa8>
     76c:	410080ef          	jal	8b7c <othello_handler_render>
     770:	03c0006f          	j	7ac <main+0xa8>
     774:	6350b0ef          	jal	c5a8 <chess_handler_render>
     778:	0340006f          	j	7ac <main+0xa8>
     77c:	2d1060ef          	jal	724c <fiar_handler_render>
     780:	02c0006f          	j	7ac <main+0xa8>
     784:	0a8050ef          	jal	582c <checkers_handler_render>
     788:	0240006f          	j	7ac <main+0xa8>
     78c:	648020ef          	jal	2dd4 <solitaire_handler_render>
     790:	01c0006f          	j	7ac <main+0xa8>
     794:	4f0070ef          	jal	7c84 <tetris_handler_render>
     798:	0140006f          	j	7ac <main+0xa8>
     79c:	5d10d0ef          	jal	e56c <bt_handler_render>
     7a0:	00c0006f          	j	7ac <main+0xa8>
     7a4:	7a80d0ef          	jal	df4c <snake_handler_render>
     7a8:	00000013          	nop
     7ac:	f89ff06f          	j	734 <main+0x30>

000007b0 <io_timer_set_timeout>:
     7b0:	fe010113          	add	sp,sp,-32
     7b4:	00812e23          	sw	s0,28(sp)
     7b8:	02010413          	add	s0,sp,32
     7bc:	fea42623          	sw	a0,-20(s0)
     7c0:	00000013          	nop
     7c4:	01c12403          	lw	s0,28(sp)
     7c8:	02010113          	add	sp,sp,32
     7cc:	00008067          	ret

000007d0 <io_timer_irq_enable>:
     7d0:	ff010113          	add	sp,sp,-16
     7d4:	00812623          	sw	s0,12(sp)
     7d8:	01010413          	add	s0,sp,16
     7dc:	00000013          	nop
     7e0:	00c12403          	lw	s0,12(sp)
     7e4:	01010113          	add	sp,sp,16
     7e8:	00008067          	ret

000007ec <io_timer_irq_reset>:
     7ec:	ff010113          	add	sp,sp,-16
     7f0:	00812623          	sw	s0,12(sp)
     7f4:	01010413          	add	s0,sp,16
     7f8:	00000013          	nop
     7fc:	00c12403          	lw	s0,12(sp)
     800:	01010113          	add	sp,sp,16
     804:	00008067          	ret

00000808 <io_jtag_printc>:
     808:	fe010113          	add	sp,sp,-32
     80c:	00812e23          	sw	s0,28(sp)
     810:	02010413          	add	s0,sp,32
     814:	00050793          	mv	a5,a0
     818:	fef407a3          	sb	a5,-17(s0)
     81c:	00000013          	nop
     820:	040007b7          	lui	a5,0x4000
     824:	04478793          	add	a5,a5,68 # 4000044 <_stack_end+0x3eef0fc>
     828:	0007a703          	lw	a4,0(a5)
     82c:	000107b7          	lui	a5,0x10
     830:	fef768e3          	bltu	a4,a5,820 <io_jtag_printc+0x18>
     834:	040007b7          	lui	a5,0x4000
     838:	04078793          	add	a5,a5,64 # 4000040 <_stack_end+0x3eef0f8>
     83c:	fef44703          	lbu	a4,-17(s0)
     840:	00e7a023          	sw	a4,0(a5)
     844:	00000013          	nop
     848:	01c12403          	lw	s0,28(sp)
     84c:	02010113          	add	sp,sp,32
     850:	00008067          	ret

00000854 <io_jtag_print>:
     854:	fe010113          	add	sp,sp,-32
     858:	00112e23          	sw	ra,28(sp)
     85c:	00812c23          	sw	s0,24(sp)
     860:	02010413          	add	s0,sp,32
     864:	fea42623          	sw	a0,-20(s0)
     868:	0200006f          	j	888 <io_jtag_print+0x34>
     86c:	fec42783          	lw	a5,-20(s0)
     870:	0007c783          	lbu	a5,0(a5)
     874:	00078513          	mv	a0,a5
     878:	f91ff0ef          	jal	808 <io_jtag_printc>
     87c:	fec42783          	lw	a5,-20(s0)
     880:	00178793          	add	a5,a5,1
     884:	fef42623          	sw	a5,-20(s0)
     888:	fec42783          	lw	a5,-20(s0)
     88c:	0007c783          	lbu	a5,0(a5)
     890:	fc079ee3          	bnez	a5,86c <io_jtag_print+0x18>
     894:	00000013          	nop
     898:	00000013          	nop
     89c:	01c12083          	lw	ra,28(sp)
     8a0:	01812403          	lw	s0,24(sp)
     8a4:	02010113          	add	sp,sp,32
     8a8:	00008067          	ret

000008ac <io_jtag_print_dec>:
     8ac:	fd010113          	add	sp,sp,-48
     8b0:	02112623          	sw	ra,44(sp)
     8b4:	02812423          	sw	s0,40(sp)
     8b8:	03010413          	add	s0,sp,48
     8bc:	fca42e23          	sw	a0,-36(s0)
     8c0:	fe042623          	sw	zero,-20(s0)
     8c4:	0200006f          	j	8e4 <io_jtag_print_dec+0x38>
     8c8:	fec42783          	lw	a5,-20(s0)
     8cc:	ff078793          	add	a5,a5,-16
     8d0:	008787b3          	add	a5,a5,s0
     8d4:	fe078823          	sb	zero,-16(a5)
     8d8:	fec42783          	lw	a5,-20(s0)
     8dc:	00178793          	add	a5,a5,1
     8e0:	fef42623          	sw	a5,-20(s0)
     8e4:	fec42703          	lw	a4,-20(s0)
     8e8:	00a00793          	li	a5,10
     8ec:	fce7dee3          	bge	a5,a4,8c8 <io_jtag_print_dec+0x1c>
     8f0:	fe040793          	add	a5,s0,-32
     8f4:	00078593          	mv	a1,a5
     8f8:	fdc42503          	lw	a0,-36(s0)
     8fc:	44d010ef          	jal	2548 <num_to_str>
     900:	fe040793          	add	a5,s0,-32
     904:	00078513          	mv	a0,a5
     908:	f4dff0ef          	jal	854 <io_jtag_print>
     90c:	00000013          	nop
     910:	02c12083          	lw	ra,44(sp)
     914:	02812403          	lw	s0,40(sp)
     918:	03010113          	add	sp,sp,48
     91c:	00008067          	ret

00000920 <io_button_irq_enable>:
     920:	ff010113          	add	sp,sp,-16
     924:	00812623          	sw	s0,12(sp)
     928:	01010413          	add	s0,sp,16
     92c:	040007b7          	lui	a5,0x4000
     930:	0d878793          	add	a5,a5,216 # 40000d8 <_stack_end+0x3eef190>
     934:	00100713          	li	a4,1
     938:	00e7a023          	sw	a4,0(a5)
     93c:	00000013          	nop
     940:	00c12403          	lw	s0,12(sp)
     944:	01010113          	add	sp,sp,16
     948:	00008067          	ret

0000094c <io_button_irq_reset>:
     94c:	ff010113          	add	sp,sp,-16
     950:	00812623          	sw	s0,12(sp)
     954:	01010413          	add	s0,sp,16
     958:	040007b7          	lui	a5,0x4000
     95c:	0dc78793          	add	a5,a5,220 # 40000dc <_stack_end+0x3eef194>
     960:	0007a023          	sw	zero,0(a5)
     964:	00000013          	nop
     968:	00c12403          	lw	s0,12(sp)
     96c:	01010113          	add	sp,sp,16
     970:	00008067          	ret

00000974 <io_button>:
     974:	ff010113          	add	sp,sp,-16
     978:	00812623          	sw	s0,12(sp)
     97c:	01010413          	add	s0,sp,16
     980:	040007b7          	lui	a5,0x4000
     984:	0d078793          	add	a5,a5,208 # 40000d0 <_stack_end+0x3eef188>
     988:	0007a783          	lw	a5,0(a5)
     98c:	0017f793          	and	a5,a5,1
     990:	00078513          	mv	a0,a5
     994:	00c12403          	lw	s0,12(sp)
     998:	01010113          	add	sp,sp,16
     99c:	00008067          	ret

000009a0 <io_switch_irq_enable_with_mask>:
     9a0:	fe010113          	add	sp,sp,-32
     9a4:	00812e23          	sw	s0,28(sp)
     9a8:	02010413          	add	s0,sp,32
     9ac:	fea42623          	sw	a0,-20(s0)
     9b0:	040007b7          	lui	a5,0x4000
     9b4:	01878793          	add	a5,a5,24 # 4000018 <_stack_end+0x3eef0d0>
     9b8:	fec42703          	lw	a4,-20(s0)
     9bc:	00e7a023          	sw	a4,0(a5)
     9c0:	00000013          	nop
     9c4:	01c12403          	lw	s0,28(sp)
     9c8:	02010113          	add	sp,sp,32
     9cc:	00008067          	ret

000009d0 <io_switch_irq_enable>:
     9d0:	ff010113          	add	sp,sp,-16
     9d4:	00112623          	sw	ra,12(sp)
     9d8:	00812423          	sw	s0,8(sp)
     9dc:	01010413          	add	s0,sp,16
     9e0:	3ff00513          	li	a0,1023
     9e4:	fbdff0ef          	jal	9a0 <io_switch_irq_enable_with_mask>
     9e8:	00000013          	nop
     9ec:	00c12083          	lw	ra,12(sp)
     9f0:	00812403          	lw	s0,8(sp)
     9f4:	01010113          	add	sp,sp,16
     9f8:	00008067          	ret

000009fc <io_switch>:
     9fc:	ff010113          	add	sp,sp,-16
     a00:	00812623          	sw	s0,12(sp)
     a04:	01010413          	add	s0,sp,16
     a08:	040007b7          	lui	a5,0x4000
     a0c:	01078793          	add	a5,a5,16 # 4000010 <_stack_end+0x3eef0c8>
     a10:	0007a783          	lw	a5,0(a5)
     a14:	3ff7f793          	and	a5,a5,1023
     a18:	00078513          	mv	a0,a5
     a1c:	00c12403          	lw	s0,12(sp)
     a20:	01010113          	add	sp,sp,16
     a24:	00008067          	ret

00000a28 <io_switch_irq_reset>:
     a28:	ff010113          	add	sp,sp,-16
     a2c:	00812623          	sw	s0,12(sp)
     a30:	01010413          	add	s0,sp,16
     a34:	040007b7          	lui	a5,0x4000
     a38:	01c78793          	add	a5,a5,28 # 400001c <_stack_end+0x3eef0d4>
     a3c:	0007a023          	sw	zero,0(a5)
     a40:	00000013          	nop
     a44:	00c12403          	lw	s0,12(sp)
     a48:	01010113          	add	sp,sp,16
     a4c:	00008067          	ret

00000a50 <vga_enable>:
     a50:	ff010113          	add	sp,sp,-16
     a54:	00812623          	sw	s0,12(sp)
     a58:	01010413          	add	s0,sp,16
     a5c:	040007b7          	lui	a5,0x4000
     a60:	10078793          	add	a5,a5,256 # 4000100 <_stack_end+0x3eef1b8>
     a64:	00400713          	li	a4,4
     a68:	00e7a023          	sw	a4,0(a5)
     a6c:	00000013          	nop
     a70:	00c12403          	lw	s0,12(sp)
     a74:	01010113          	add	sp,sp,16
     a78:	00008067          	ret

00000a7c <io_vga_set_pixel>:
     a7c:	fe010113          	add	sp,sp,-32
     a80:	00112e23          	sw	ra,28(sp)
     a84:	00812c23          	sw	s0,24(sp)
     a88:	02010413          	add	s0,sp,32
     a8c:	fea42623          	sw	a0,-20(s0)
     a90:	feb42423          	sw	a1,-24(s0)
     a94:	00060793          	mv	a5,a2
     a98:	fef403a3          	sb	a5,-25(s0)
     a9c:	0000f7b7          	lui	a5,0xf
     aa0:	8c07a783          	lw	a5,-1856(a5) # e8c0 <has_rendered_before>
     aa4:	00079a63          	bnez	a5,ab8 <io_vga_set_pixel+0x3c>
     aa8:	fa9ff0ef          	jal	a50 <vga_enable>
     aac:	0000f7b7          	lui	a5,0xf
     ab0:	00100713          	li	a4,1
     ab4:	8ce7a023          	sw	a4,-1856(a5) # e8c0 <has_rendered_before>
     ab8:	fe842703          	lw	a4,-24(s0)
     abc:	00070793          	mv	a5,a4
     ac0:	00279793          	sll	a5,a5,0x2
     ac4:	00e787b3          	add	a5,a5,a4
     ac8:	00679793          	sll	a5,a5,0x6
     acc:	00078713          	mv	a4,a5
     ad0:	fec42783          	lw	a5,-20(s0)
     ad4:	00f707b3          	add	a5,a4,a5
     ad8:	00078713          	mv	a4,a5
     adc:	080007b7          	lui	a5,0x8000
     ae0:	00f707b3          	add	a5,a4,a5
     ae4:	fe744703          	lbu	a4,-25(s0)
     ae8:	00e78023          	sb	a4,0(a5) # 8000000 <_stack_end+0x7eef0b8>
     aec:	00000013          	nop
     af0:	01c12083          	lw	ra,28(sp)
     af4:	01812403          	lw	s0,24(sp)
     af8:	02010113          	add	sp,sp,32
     afc:	00008067          	ret

00000b00 <io_vga_flush_pixels>:
     b00:	ff010113          	add	sp,sp,-16
     b04:	00812623          	sw	s0,12(sp)
     b08:	01010413          	add	s0,sp,16
     b0c:	040007b7          	lui	a5,0x4000
     b10:	10478793          	add	a5,a5,260 # 4000104 <_stack_end+0x3eef1bc>
     b14:	08000737          	lui	a4,0x8000
     b18:	00e7a023          	sw	a4,0(a5)
     b1c:	00000013          	nop
     b20:	00c12403          	lw	s0,12(sp)
     b24:	01010113          	add	sp,sp,16
     b28:	00008067          	ret

00000b2c <render_sprite_width_16_height_any>:
     b2c:	fb010113          	add	sp,sp,-80
     b30:	04112623          	sw	ra,76(sp)
     b34:	04812423          	sw	s0,72(sp)
     b38:	05010413          	add	s0,sp,80
     b3c:	fca42623          	sw	a0,-52(s0)
     b40:	fcb42423          	sw	a1,-56(s0)
     b44:	fcc42223          	sw	a2,-60(s0)
     b48:	fcd42023          	sw	a3,-64(s0)
     b4c:	fae42e23          	sw	a4,-68(s0)
     b50:	faf42c23          	sw	a5,-72(s0)
     b54:	000107b7          	lui	a5,0x10
     b58:	e1478713          	add	a4,a5,-492 # fe14 <SPRITE_WIDTHS>
     b5c:	fc442783          	lw	a5,-60(s0)
     b60:	00279793          	sll	a5,a5,0x2
     b64:	00f707b3          	add	a5,a4,a5
     b68:	0007a783          	lw	a5,0(a5)
     b6c:	fef42023          	sw	a5,-32(s0)
     b70:	000107b7          	lui	a5,0x10
     b74:	e4878713          	add	a4,a5,-440 # fe48 <SPRITE_HEIGHTS>
     b78:	fc442783          	lw	a5,-60(s0)
     b7c:	00279793          	sll	a5,a5,0x2
     b80:	00f707b3          	add	a5,a4,a5
     b84:	0007a783          	lw	a5,0(a5)
     b88:	fcf42e23          	sw	a5,-36(s0)
     b8c:	000107b7          	lui	a5,0x10
     b90:	de078713          	add	a4,a5,-544 # fde0 <LAYERS>
     b94:	fc442783          	lw	a5,-60(s0)
     b98:	00279793          	sll	a5,a5,0x2
     b9c:	00f707b3          	add	a5,a4,a5
     ba0:	0007a783          	lw	a5,0(a5)
     ba4:	fcf42c23          	sw	a5,-40(s0)
     ba8:	fe042623          	sw	zero,-20(s0)
     bac:	0c00006f          	j	c6c <render_sprite_width_16_height_any+0x140>
     bb0:	fe042423          	sw	zero,-24(s0)
     bb4:	0a00006f          	j	c54 <render_sprite_width_16_height_any+0x128>
     bb8:	fe042223          	sw	zero,-28(s0)
     bbc:	0800006f          	j	c3c <render_sprite_width_16_height_any+0x110>
     bc0:	fe442703          	lw	a4,-28(s0)
     bc4:	fdc42783          	lw	a5,-36(s0)
     bc8:	02f70733          	mul	a4,a4,a5
     bcc:	fec42783          	lw	a5,-20(s0)
     bd0:	00f707b3          	add	a5,a4,a5
     bd4:	00179793          	sll	a5,a5,0x1
     bd8:	fc042703          	lw	a4,-64(s0)
     bdc:	00f707b3          	add	a5,a4,a5
     be0:	0007d783          	lhu	a5,0(a5)
     be4:	00078713          	mv	a4,a5
     be8:	fe842783          	lw	a5,-24(s0)
     bec:	40f757b3          	sra	a5,a4,a5
     bf0:	0017f793          	and	a5,a5,1
     bf4:	02078e63          	beqz	a5,c30 <render_sprite_width_16_height_any+0x104>
     bf8:	fcc42703          	lw	a4,-52(s0)
     bfc:	fe842783          	lw	a5,-24(s0)
     c00:	00f706b3          	add	a3,a4,a5
     c04:	fc842703          	lw	a4,-56(s0)
     c08:	fec42783          	lw	a5,-20(s0)
     c0c:	00f705b3          	add	a1,a4,a5
     c10:	fe442783          	lw	a5,-28(s0)
     c14:	fbc42703          	lw	a4,-68(s0)
     c18:	00f707b3          	add	a5,a4,a5
     c1c:	0007c783          	lbu	a5,0(a5)
     c20:	00078613          	mv	a2,a5
     c24:	00068513          	mv	a0,a3
     c28:	e55ff0ef          	jal	a7c <io_vga_set_pixel>
     c2c:	01c0006f          	j	c48 <render_sprite_width_16_height_any+0x11c>
     c30:	fe442783          	lw	a5,-28(s0)
     c34:	00178793          	add	a5,a5,1
     c38:	fef42223          	sw	a5,-28(s0)
     c3c:	fe442703          	lw	a4,-28(s0)
     c40:	fd842783          	lw	a5,-40(s0)
     c44:	f6f74ee3          	blt	a4,a5,bc0 <render_sprite_width_16_height_any+0x94>
     c48:	fe842783          	lw	a5,-24(s0)
     c4c:	00178793          	add	a5,a5,1
     c50:	fef42423          	sw	a5,-24(s0)
     c54:	fe842703          	lw	a4,-24(s0)
     c58:	fe042783          	lw	a5,-32(s0)
     c5c:	f4f74ee3          	blt	a4,a5,bb8 <render_sprite_width_16_height_any+0x8c>
     c60:	fec42783          	lw	a5,-20(s0)
     c64:	00178793          	add	a5,a5,1
     c68:	fef42623          	sw	a5,-20(s0)
     c6c:	fec42703          	lw	a4,-20(s0)
     c70:	fdc42783          	lw	a5,-36(s0)
     c74:	f2f74ee3          	blt	a4,a5,bb0 <render_sprite_width_16_height_any+0x84>
     c78:	00000013          	nop
     c7c:	00000013          	nop
     c80:	04c12083          	lw	ra,76(sp)
     c84:	04812403          	lw	s0,72(sp)
     c88:	05010113          	add	sp,sp,80
     c8c:	00008067          	ret

00000c90 <render_sprite_width_8_height_8>:
     c90:	fa010113          	add	sp,sp,-96
     c94:	04112e23          	sw	ra,92(sp)
     c98:	04812c23          	sw	s0,88(sp)
     c9c:	05212a23          	sw	s2,84(sp)
     ca0:	05312823          	sw	s3,80(sp)
     ca4:	05412623          	sw	s4,76(sp)
     ca8:	05512423          	sw	s5,72(sp)
     cac:	06010413          	add	s0,sp,96
     cb0:	faa42e23          	sw	a0,-68(s0)
     cb4:	fab42c23          	sw	a1,-72(s0)
     cb8:	fac42a23          	sw	a2,-76(s0)
     cbc:	fad42823          	sw	a3,-80(s0)
     cc0:	fae42623          	sw	a4,-84(s0)
     cc4:	faf42423          	sw	a5,-88(s0)
     cc8:	00800793          	li	a5,8
     ccc:	fcf42823          	sw	a5,-48(s0)
     cd0:	00800793          	li	a5,8
     cd4:	fcf42623          	sw	a5,-52(s0)
     cd8:	000107b7          	lui	a5,0x10
     cdc:	de078713          	add	a4,a5,-544 # fde0 <LAYERS>
     ce0:	fb442783          	lw	a5,-76(s0)
     ce4:	00279793          	sll	a5,a5,0x2
     ce8:	00f707b3          	add	a5,a4,a5
     cec:	0007a783          	lw	a5,0(a5)
     cf0:	fcf42423          	sw	a5,-56(s0)
     cf4:	fc042e23          	sw	zero,-36(s0)
     cf8:	1140006f          	j	e0c <render_sprite_width_8_height_8+0x17c>
     cfc:	fc042c23          	sw	zero,-40(s0)
     d00:	0f40006f          	j	df4 <render_sprite_width_8_height_8+0x164>
     d04:	fc042a23          	sw	zero,-44(s0)
     d08:	0d40006f          	j	ddc <render_sprite_width_8_height_8+0x14c>
     d0c:	fd442703          	lw	a4,-44(s0)
     d10:	fcc42783          	lw	a5,-52(s0)
     d14:	02f707b3          	mul	a5,a4,a5
     d18:	00379793          	sll	a5,a5,0x3
     d1c:	fb042703          	lw	a4,-80(s0)
     d20:	00f707b3          	add	a5,a4,a5
     d24:	0007a603          	lw	a2,0(a5)
     d28:	0047a683          	lw	a3,4(a5)
     d2c:	fdc42783          	lw	a5,-36(s0)
     d30:	00379713          	sll	a4,a5,0x3
     d34:	fd842783          	lw	a5,-40(s0)
     d38:	00f707b3          	add	a5,a4,a5
     d3c:	fe078713          	add	a4,a5,-32
     d40:	00074a63          	bltz	a4,d54 <render_sprite_width_8_height_8+0xc4>
     d44:	00100793          	li	a5,1
     d48:	00e799b3          	sll	s3,a5,a4
     d4c:	00000913          	li	s2,0
     d50:	02c0006f          	j	d7c <render_sprite_width_8_height_8+0xec>
     d54:	00100713          	li	a4,1
     d58:	00175593          	srl	a1,a4,0x1
     d5c:	01f00713          	li	a4,31
     d60:	40f70733          	sub	a4,a4,a5
     d64:	00e5d733          	srl	a4,a1,a4
     d68:	00000593          	li	a1,0
     d6c:	00f599b3          	sll	s3,a1,a5
     d70:	013769b3          	or	s3,a4,s3
     d74:	00100713          	li	a4,1
     d78:	00f71933          	sll	s2,a4,a5
     d7c:	00090713          	mv	a4,s2
     d80:	00098793          	mv	a5,s3
     d84:	00e67a33          	and	s4,a2,a4
     d88:	00f6fab3          	and	s5,a3,a5
     d8c:	000a0793          	mv	a5,s4
     d90:	0157e7b3          	or	a5,a5,s5
     d94:	02078e63          	beqz	a5,dd0 <render_sprite_width_8_height_8+0x140>
     d98:	fbc42703          	lw	a4,-68(s0)
     d9c:	fd842783          	lw	a5,-40(s0)
     da0:	00f706b3          	add	a3,a4,a5
     da4:	fb842703          	lw	a4,-72(s0)
     da8:	fdc42783          	lw	a5,-36(s0)
     dac:	00f705b3          	add	a1,a4,a5
     db0:	fd442783          	lw	a5,-44(s0)
     db4:	fac42703          	lw	a4,-84(s0)
     db8:	00f707b3          	add	a5,a4,a5
     dbc:	0007c783          	lbu	a5,0(a5)
     dc0:	00078613          	mv	a2,a5
     dc4:	00068513          	mv	a0,a3
     dc8:	cb5ff0ef          	jal	a7c <io_vga_set_pixel>
     dcc:	01c0006f          	j	de8 <render_sprite_width_8_height_8+0x158>
     dd0:	fd442783          	lw	a5,-44(s0)
     dd4:	00178793          	add	a5,a5,1
     dd8:	fcf42a23          	sw	a5,-44(s0)
     ddc:	fd442703          	lw	a4,-44(s0)
     de0:	fc842783          	lw	a5,-56(s0)
     de4:	f2f744e3          	blt	a4,a5,d0c <render_sprite_width_8_height_8+0x7c>
     de8:	fd842783          	lw	a5,-40(s0)
     dec:	00178793          	add	a5,a5,1
     df0:	fcf42c23          	sw	a5,-40(s0)
     df4:	fd842703          	lw	a4,-40(s0)
     df8:	fd042783          	lw	a5,-48(s0)
     dfc:	f0f744e3          	blt	a4,a5,d04 <render_sprite_width_8_height_8+0x74>
     e00:	fdc42783          	lw	a5,-36(s0)
     e04:	00178793          	add	a5,a5,1
     e08:	fcf42e23          	sw	a5,-36(s0)
     e0c:	fdc42703          	lw	a4,-36(s0)
     e10:	fcc42783          	lw	a5,-52(s0)
     e14:	eef744e3          	blt	a4,a5,cfc <render_sprite_width_8_height_8+0x6c>
     e18:	00000013          	nop
     e1c:	00000013          	nop
     e20:	05c12083          	lw	ra,92(sp)
     e24:	05812403          	lw	s0,88(sp)
     e28:	05412903          	lw	s2,84(sp)
     e2c:	05012983          	lw	s3,80(sp)
     e30:	04c12a03          	lw	s4,76(sp)
     e34:	04812a83          	lw	s5,72(sp)
     e38:	06010113          	add	sp,sp,96
     e3c:	00008067          	ret

00000e40 <render_sprite>:
     e40:	fd010113          	add	sp,sp,-48
     e44:	02112623          	sw	ra,44(sp)
     e48:	02812423          	sw	s0,40(sp)
     e4c:	03010413          	add	s0,sp,48
     e50:	fea42623          	sw	a0,-20(s0)
     e54:	feb42423          	sw	a1,-24(s0)
     e58:	fec42223          	sw	a2,-28(s0)
     e5c:	fed42023          	sw	a3,-32(s0)
     e60:	fce42e23          	sw	a4,-36(s0)
     e64:	000107b7          	lui	a5,0x10
     e68:	de078713          	add	a4,a5,-544 # fde0 <LAYERS>
     e6c:	fe442783          	lw	a5,-28(s0)
     e70:	00279793          	sll	a5,a5,0x2
     e74:	00f707b3          	add	a5,a4,a5
     e78:	0007a703          	lw	a4,0(a5)
     e7c:	fdc42783          	lw	a5,-36(s0)
     e80:	00f70863          	beq	a4,a5,e90 <render_sprite+0x50>
     e84:	000107b7          	lui	a5,0x10
     e88:	0b878513          	add	a0,a5,184 # 100b8 <SPRITE_CARD_CLUBS+0x20>
     e8c:	558010ef          	jal	23e4 <panic>
     e90:	fe442783          	lw	a5,-28(s0)
     e94:	00279713          	sll	a4,a5,0x2
     e98:	000107b7          	lui	a5,0x10
     e9c:	0d478793          	add	a5,a5,212 # 100d4 <SPRITE_CARD_CLUBS+0x3c>
     ea0:	00f707b3          	add	a5,a4,a5
     ea4:	0007a783          	lw	a5,0(a5)
     ea8:	00078067          	jr	a5
     eac:	fdc42783          	lw	a5,-36(s0)
     eb0:	fe042703          	lw	a4,-32(s0)
     eb4:	000106b7          	lui	a3,0x10
     eb8:	e7c68693          	add	a3,a3,-388 # fe7c <SPRITE_CARD_SPADES>
     ebc:	fe442603          	lw	a2,-28(s0)
     ec0:	fe842583          	lw	a1,-24(s0)
     ec4:	fec42503          	lw	a0,-20(s0)
     ec8:	c65ff0ef          	jal	b2c <render_sprite_width_16_height_any>
     ecc:	1b40006f          	j	1080 <render_sprite+0x240>
     ed0:	fdc42783          	lw	a5,-36(s0)
     ed4:	fe042703          	lw	a4,-32(s0)
     ed8:	000106b7          	lui	a3,0x10
     edc:	e9c68693          	add	a3,a3,-356 # fe9c <SPRITE_CHESS_PAWN>
     ee0:	fe442603          	lw	a2,-28(s0)
     ee4:	fe842583          	lw	a1,-24(s0)
     ee8:	fec42503          	lw	a0,-20(s0)
     eec:	c41ff0ef          	jal	b2c <render_sprite_width_16_height_any>
     ef0:	1900006f          	j	1080 <render_sprite+0x240>
     ef4:	fdc42783          	lw	a5,-36(s0)
     ef8:	fe042703          	lw	a4,-32(s0)
     efc:	000106b7          	lui	a3,0x10
     f00:	edc68693          	add	a3,a3,-292 # fedc <SPRITE_CHESS_KNIGHT>
     f04:	fe442603          	lw	a2,-28(s0)
     f08:	fe842583          	lw	a1,-24(s0)
     f0c:	fec42503          	lw	a0,-20(s0)
     f10:	c1dff0ef          	jal	b2c <render_sprite_width_16_height_any>
     f14:	16c0006f          	j	1080 <render_sprite+0x240>
     f18:	fdc42783          	lw	a5,-36(s0)
     f1c:	fe042703          	lw	a4,-32(s0)
     f20:	000106b7          	lui	a3,0x10
     f24:	f1c68693          	add	a3,a3,-228 # ff1c <SPRITE_CHESS_QUEEN>
     f28:	fe442603          	lw	a2,-28(s0)
     f2c:	fe842583          	lw	a1,-24(s0)
     f30:	fec42503          	lw	a0,-20(s0)
     f34:	bf9ff0ef          	jal	b2c <render_sprite_width_16_height_any>
     f38:	1480006f          	j	1080 <render_sprite+0x240>
     f3c:	fdc42783          	lw	a5,-36(s0)
     f40:	fe042703          	lw	a4,-32(s0)
     f44:	000106b7          	lui	a3,0x10
     f48:	f5c68693          	add	a3,a3,-164 # ff5c <SPRITE_CHESS_KING>
     f4c:	fe442603          	lw	a2,-28(s0)
     f50:	fe842583          	lw	a1,-24(s0)
     f54:	fec42503          	lw	a0,-20(s0)
     f58:	bd5ff0ef          	jal	b2c <render_sprite_width_16_height_any>
     f5c:	1240006f          	j	1080 <render_sprite+0x240>
     f60:	fdc42783          	lw	a5,-36(s0)
     f64:	fe042703          	lw	a4,-32(s0)
     f68:	000106b7          	lui	a3,0x10
     f6c:	f9c68693          	add	a3,a3,-100 # ff9c <SPRITE_CHESS_BISHOP>
     f70:	fe442603          	lw	a2,-28(s0)
     f74:	fe842583          	lw	a1,-24(s0)
     f78:	fec42503          	lw	a0,-20(s0)
     f7c:	bb1ff0ef          	jal	b2c <render_sprite_width_16_height_any>
     f80:	1000006f          	j	1080 <render_sprite+0x240>
     f84:	fdc42783          	lw	a5,-36(s0)
     f88:	fe042703          	lw	a4,-32(s0)
     f8c:	000116b7          	lui	a3,0x11
     f90:	e7868693          	add	a3,a3,-392 # 10e78 <SPRITE_CHECKERS_STAR>
     f94:	fe442603          	lw	a2,-28(s0)
     f98:	fe842583          	lw	a1,-24(s0)
     f9c:	fec42503          	lw	a0,-20(s0)
     fa0:	cf1ff0ef          	jal	c90 <render_sprite_width_8_height_8>
     fa4:	0dc0006f          	j	1080 <render_sprite+0x240>
     fa8:	fdc42783          	lw	a5,-36(s0)
     fac:	fe042703          	lw	a4,-32(s0)
     fb0:	000106b7          	lui	a3,0x10
     fb4:	fe068693          	add	a3,a3,-32 # ffe0 <SPRITE_TETRIS_BLOCK>
     fb8:	fe442603          	lw	a2,-28(s0)
     fbc:	fe842583          	lw	a1,-24(s0)
     fc0:	fec42503          	lw	a0,-20(s0)
     fc4:	ccdff0ef          	jal	c90 <render_sprite_width_8_height_8>
     fc8:	0b80006f          	j	1080 <render_sprite+0x240>
     fcc:	fdc42783          	lw	a5,-36(s0)
     fd0:	fe042703          	lw	a4,-32(s0)
     fd4:	000106b7          	lui	a3,0x10
     fd8:	ff868693          	add	a3,a3,-8 # fff8 <SPRITE_CARD_HEARTS>
     fdc:	fe442603          	lw	a2,-28(s0)
     fe0:	fe842583          	lw	a1,-24(s0)
     fe4:	fec42503          	lw	a0,-20(s0)
     fe8:	b45ff0ef          	jal	b2c <render_sprite_width_16_height_any>
     fec:	0940006f          	j	1080 <render_sprite+0x240>
     ff0:	fdc42783          	lw	a5,-36(s0)
     ff4:	fe042703          	lw	a4,-32(s0)
     ff8:	000106b7          	lui	a3,0x10
     ffc:	01868693          	add	a3,a3,24 # 10018 <SPRITE_CARD_DIAMONDS>
    1000:	fe442603          	lw	a2,-28(s0)
    1004:	fe842583          	lw	a1,-24(s0)
    1008:	fec42503          	lw	a0,-20(s0)
    100c:	b21ff0ef          	jal	b2c <render_sprite_width_16_height_any>
    1010:	0700006f          	j	1080 <render_sprite+0x240>
    1014:	fdc42783          	lw	a5,-36(s0)
    1018:	fe042703          	lw	a4,-32(s0)
    101c:	000106b7          	lui	a3,0x10
    1020:	03868693          	add	a3,a3,56 # 10038 <SPRITE_REFRESH>
    1024:	fe442603          	lw	a2,-28(s0)
    1028:	fe842583          	lw	a1,-24(s0)
    102c:	fec42503          	lw	a0,-20(s0)
    1030:	afdff0ef          	jal	b2c <render_sprite_width_16_height_any>
    1034:	04c0006f          	j	1080 <render_sprite+0x240>
    1038:	fdc42783          	lw	a5,-36(s0)
    103c:	fe042703          	lw	a4,-32(s0)
    1040:	000106b7          	lui	a3,0x10
    1044:	05868693          	add	a3,a3,88 # 10058 <SPRITE_CHESS_ROOK>
    1048:	fe442603          	lw	a2,-28(s0)
    104c:	fe842583          	lw	a1,-24(s0)
    1050:	fec42503          	lw	a0,-20(s0)
    1054:	ad9ff0ef          	jal	b2c <render_sprite_width_16_height_any>
    1058:	0280006f          	j	1080 <render_sprite+0x240>
    105c:	fdc42783          	lw	a5,-36(s0)
    1060:	fe042703          	lw	a4,-32(s0)
    1064:	000106b7          	lui	a3,0x10
    1068:	09868693          	add	a3,a3,152 # 10098 <SPRITE_CARD_CLUBS>
    106c:	fe442603          	lw	a2,-28(s0)
    1070:	fe842583          	lw	a1,-24(s0)
    1074:	fec42503          	lw	a0,-20(s0)
    1078:	ab5ff0ef          	jal	b2c <render_sprite_width_16_height_any>
    107c:	00000013          	nop
    1080:	00000013          	nop
    1084:	02c12083          	lw	ra,44(sp)
    1088:	02812403          	lw	s0,40(sp)
    108c:	03010113          	add	sp,sp,48
    1090:	00008067          	ret

00001094 <plot_line_low>:
    1094:	fb010113          	add	sp,sp,-80
    1098:	04112623          	sw	ra,76(sp)
    109c:	04812423          	sw	s0,72(sp)
    10a0:	05010413          	add	s0,sp,80
    10a4:	fca42623          	sw	a0,-52(s0)
    10a8:	fcb42423          	sw	a1,-56(s0)
    10ac:	fcc42223          	sw	a2,-60(s0)
    10b0:	fcd42023          	sw	a3,-64(s0)
    10b4:	00070793          	mv	a5,a4
    10b8:	faf40fa3          	sb	a5,-65(s0)
    10bc:	fc442703          	lw	a4,-60(s0)
    10c0:	fcc42783          	lw	a5,-52(s0)
    10c4:	40f707b3          	sub	a5,a4,a5
    10c8:	fcf42c23          	sw	a5,-40(s0)
    10cc:	fc042703          	lw	a4,-64(s0)
    10d0:	fc842783          	lw	a5,-56(s0)
    10d4:	40f707b3          	sub	a5,a4,a5
    10d8:	fef42623          	sw	a5,-20(s0)
    10dc:	00100793          	li	a5,1
    10e0:	fef42423          	sw	a5,-24(s0)
    10e4:	fec42783          	lw	a5,-20(s0)
    10e8:	0007dc63          	bgez	a5,1100 <plot_line_low+0x6c>
    10ec:	fff00793          	li	a5,-1
    10f0:	fef42423          	sw	a5,-24(s0)
    10f4:	fec42783          	lw	a5,-20(s0)
    10f8:	40f007b3          	neg	a5,a5
    10fc:	fef42623          	sw	a5,-20(s0)
    1100:	fec42783          	lw	a5,-20(s0)
    1104:	00179713          	sll	a4,a5,0x1
    1108:	fd842783          	lw	a5,-40(s0)
    110c:	40f707b3          	sub	a5,a4,a5
    1110:	fef42223          	sw	a5,-28(s0)
    1114:	fc842783          	lw	a5,-56(s0)
    1118:	fef42023          	sw	a5,-32(s0)
    111c:	fcc42783          	lw	a5,-52(s0)
    1120:	fcf42e23          	sw	a5,-36(s0)
    1124:	0700006f          	j	1194 <plot_line_low+0x100>
    1128:	fbf44783          	lbu	a5,-65(s0)
    112c:	00078613          	mv	a2,a5
    1130:	fe042583          	lw	a1,-32(s0)
    1134:	fdc42503          	lw	a0,-36(s0)
    1138:	945ff0ef          	jal	a7c <io_vga_set_pixel>
    113c:	fe442783          	lw	a5,-28(s0)
    1140:	02f05a63          	blez	a5,1174 <plot_line_low+0xe0>
    1144:	fe042703          	lw	a4,-32(s0)
    1148:	fe842783          	lw	a5,-24(s0)
    114c:	00f707b3          	add	a5,a4,a5
    1150:	fef42023          	sw	a5,-32(s0)
    1154:	fec42703          	lw	a4,-20(s0)
    1158:	fd842783          	lw	a5,-40(s0)
    115c:	40f707b3          	sub	a5,a4,a5
    1160:	00179793          	sll	a5,a5,0x1
    1164:	fe442703          	lw	a4,-28(s0)
    1168:	00f707b3          	add	a5,a4,a5
    116c:	fef42223          	sw	a5,-28(s0)
    1170:	0180006f          	j	1188 <plot_line_low+0xf4>
    1174:	fec42783          	lw	a5,-20(s0)
    1178:	00179793          	sll	a5,a5,0x1
    117c:	fe442703          	lw	a4,-28(s0)
    1180:	00f707b3          	add	a5,a4,a5
    1184:	fef42223          	sw	a5,-28(s0)
    1188:	fdc42783          	lw	a5,-36(s0)
    118c:	00178793          	add	a5,a5,1
    1190:	fcf42e23          	sw	a5,-36(s0)
    1194:	fdc42703          	lw	a4,-36(s0)
    1198:	fc442783          	lw	a5,-60(s0)
    119c:	f8e7d6e3          	bge	a5,a4,1128 <plot_line_low+0x94>
    11a0:	00000013          	nop
    11a4:	00000013          	nop
    11a8:	04c12083          	lw	ra,76(sp)
    11ac:	04812403          	lw	s0,72(sp)
    11b0:	05010113          	add	sp,sp,80
    11b4:	00008067          	ret

000011b8 <plot_line_high>:
    11b8:	fb010113          	add	sp,sp,-80
    11bc:	04112623          	sw	ra,76(sp)
    11c0:	04812423          	sw	s0,72(sp)
    11c4:	05010413          	add	s0,sp,80
    11c8:	fca42623          	sw	a0,-52(s0)
    11cc:	fcb42423          	sw	a1,-56(s0)
    11d0:	fcc42223          	sw	a2,-60(s0)
    11d4:	fcd42023          	sw	a3,-64(s0)
    11d8:	00070793          	mv	a5,a4
    11dc:	faf40fa3          	sb	a5,-65(s0)
    11e0:	fc442703          	lw	a4,-60(s0)
    11e4:	fcc42783          	lw	a5,-52(s0)
    11e8:	40f707b3          	sub	a5,a4,a5
    11ec:	fef42623          	sw	a5,-20(s0)
    11f0:	fc042703          	lw	a4,-64(s0)
    11f4:	fc842783          	lw	a5,-56(s0)
    11f8:	40f707b3          	sub	a5,a4,a5
    11fc:	fcf42c23          	sw	a5,-40(s0)
    1200:	00100793          	li	a5,1
    1204:	fef42423          	sw	a5,-24(s0)
    1208:	fec42783          	lw	a5,-20(s0)
    120c:	0007dc63          	bgez	a5,1224 <plot_line_high+0x6c>
    1210:	fff00793          	li	a5,-1
    1214:	fef42423          	sw	a5,-24(s0)
    1218:	fec42783          	lw	a5,-20(s0)
    121c:	40f007b3          	neg	a5,a5
    1220:	fef42623          	sw	a5,-20(s0)
    1224:	fec42783          	lw	a5,-20(s0)
    1228:	00179713          	sll	a4,a5,0x1
    122c:	fd842783          	lw	a5,-40(s0)
    1230:	40f707b3          	sub	a5,a4,a5
    1234:	fef42223          	sw	a5,-28(s0)
    1238:	fcc42783          	lw	a5,-52(s0)
    123c:	fef42023          	sw	a5,-32(s0)
    1240:	fc842783          	lw	a5,-56(s0)
    1244:	fcf42e23          	sw	a5,-36(s0)
    1248:	0700006f          	j	12b8 <plot_line_high+0x100>
    124c:	fbf44783          	lbu	a5,-65(s0)
    1250:	00078613          	mv	a2,a5
    1254:	fdc42583          	lw	a1,-36(s0)
    1258:	fe042503          	lw	a0,-32(s0)
    125c:	821ff0ef          	jal	a7c <io_vga_set_pixel>
    1260:	fe442783          	lw	a5,-28(s0)
    1264:	02f05a63          	blez	a5,1298 <plot_line_high+0xe0>
    1268:	fe042703          	lw	a4,-32(s0)
    126c:	fe842783          	lw	a5,-24(s0)
    1270:	00f707b3          	add	a5,a4,a5
    1274:	fef42023          	sw	a5,-32(s0)
    1278:	fec42703          	lw	a4,-20(s0)
    127c:	fd842783          	lw	a5,-40(s0)
    1280:	40f707b3          	sub	a5,a4,a5
    1284:	00179793          	sll	a5,a5,0x1
    1288:	fe442703          	lw	a4,-28(s0)
    128c:	00f707b3          	add	a5,a4,a5
    1290:	fef42223          	sw	a5,-28(s0)
    1294:	0180006f          	j	12ac <plot_line_high+0xf4>
    1298:	fec42783          	lw	a5,-20(s0)
    129c:	00179793          	sll	a5,a5,0x1
    12a0:	fe442703          	lw	a4,-28(s0)
    12a4:	00f707b3          	add	a5,a4,a5
    12a8:	fef42223          	sw	a5,-28(s0)
    12ac:	fdc42783          	lw	a5,-36(s0)
    12b0:	00178793          	add	a5,a5,1
    12b4:	fcf42e23          	sw	a5,-36(s0)
    12b8:	fdc42703          	lw	a4,-36(s0)
    12bc:	fc042783          	lw	a5,-64(s0)
    12c0:	f8e7d6e3          	bge	a5,a4,124c <plot_line_high+0x94>
    12c4:	00000013          	nop
    12c8:	00000013          	nop
    12cc:	04c12083          	lw	ra,76(sp)
    12d0:	04812403          	lw	s0,72(sp)
    12d4:	05010113          	add	sp,sp,80
    12d8:	00008067          	ret

000012dc <render_line>:
    12dc:	fd010113          	add	sp,sp,-48
    12e0:	02112623          	sw	ra,44(sp)
    12e4:	02812423          	sw	s0,40(sp)
    12e8:	03010413          	add	s0,sp,48
    12ec:	fea42623          	sw	a0,-20(s0)
    12f0:	feb42423          	sw	a1,-24(s0)
    12f4:	fec42223          	sw	a2,-28(s0)
    12f8:	fed42023          	sw	a3,-32(s0)
    12fc:	00070793          	mv	a5,a4
    1300:	fcf40fa3          	sb	a5,-33(s0)
    1304:	fe042703          	lw	a4,-32(s0)
    1308:	fe842783          	lw	a5,-24(s0)
    130c:	40f70733          	sub	a4,a4,a5
    1310:	41f75793          	sra	a5,a4,0x1f
    1314:	00e7c733          	xor	a4,a5,a4
    1318:	40f70733          	sub	a4,a4,a5
    131c:	fe442683          	lw	a3,-28(s0)
    1320:	fec42783          	lw	a5,-20(s0)
    1324:	40f687b3          	sub	a5,a3,a5
    1328:	41f7d693          	sra	a3,a5,0x1f
    132c:	00f6c7b3          	xor	a5,a3,a5
    1330:	40d787b3          	sub	a5,a5,a3
    1334:	04f75863          	bge	a4,a5,1384 <render_line+0xa8>
    1338:	fec42703          	lw	a4,-20(s0)
    133c:	fe442783          	lw	a5,-28(s0)
    1340:	02e7d263          	bge	a5,a4,1364 <render_line+0x88>
    1344:	fdf44783          	lbu	a5,-33(s0)
    1348:	00078713          	mv	a4,a5
    134c:	fe842683          	lw	a3,-24(s0)
    1350:	fec42603          	lw	a2,-20(s0)
    1354:	fe042583          	lw	a1,-32(s0)
    1358:	fe442503          	lw	a0,-28(s0)
    135c:	d39ff0ef          	jal	1094 <plot_line_low>
    1360:	06c0006f          	j	13cc <render_line+0xf0>
    1364:	fdf44783          	lbu	a5,-33(s0)
    1368:	00078713          	mv	a4,a5
    136c:	fe042683          	lw	a3,-32(s0)
    1370:	fe442603          	lw	a2,-28(s0)
    1374:	fe842583          	lw	a1,-24(s0)
    1378:	fec42503          	lw	a0,-20(s0)
    137c:	d19ff0ef          	jal	1094 <plot_line_low>
    1380:	04c0006f          	j	13cc <render_line+0xf0>
    1384:	fe842703          	lw	a4,-24(s0)
    1388:	fe042783          	lw	a5,-32(s0)
    138c:	02e7d263          	bge	a5,a4,13b0 <render_line+0xd4>
    1390:	fdf44783          	lbu	a5,-33(s0)
    1394:	00078713          	mv	a4,a5
    1398:	fe842683          	lw	a3,-24(s0)
    139c:	fec42603          	lw	a2,-20(s0)
    13a0:	fe042583          	lw	a1,-32(s0)
    13a4:	fe442503          	lw	a0,-28(s0)
    13a8:	e11ff0ef          	jal	11b8 <plot_line_high>
    13ac:	0200006f          	j	13cc <render_line+0xf0>
    13b0:	fdf44783          	lbu	a5,-33(s0)
    13b4:	00078713          	mv	a4,a5
    13b8:	fe042683          	lw	a3,-32(s0)
    13bc:	fe442603          	lw	a2,-28(s0)
    13c0:	fe842583          	lw	a1,-24(s0)
    13c4:	fec42503          	lw	a0,-20(s0)
    13c8:	df1ff0ef          	jal	11b8 <plot_line_high>
    13cc:	00000013          	nop
    13d0:	02c12083          	lw	ra,44(sp)
    13d4:	02812403          	lw	s0,40(sp)
    13d8:	03010113          	add	sp,sp,48
    13dc:	00008067          	ret

000013e0 <render_rect_border>:
    13e0:	fc010113          	add	sp,sp,-64
    13e4:	02112e23          	sw	ra,60(sp)
    13e8:	02812c23          	sw	s0,56(sp)
    13ec:	04010413          	add	s0,sp,64
    13f0:	fca42e23          	sw	a0,-36(s0)
    13f4:	fcb42c23          	sw	a1,-40(s0)
    13f8:	fcc42a23          	sw	a2,-44(s0)
    13fc:	fcd42823          	sw	a3,-48(s0)
    1400:	00070793          	mv	a5,a4
    1404:	fcf407a3          	sb	a5,-49(s0)
    1408:	fe042623          	sw	zero,-20(s0)
    140c:	0600006f          	j	146c <render_rect_border+0x8c>
    1410:	fdc42703          	lw	a4,-36(s0)
    1414:	fec42783          	lw	a5,-20(s0)
    1418:	00f707b3          	add	a5,a4,a5
    141c:	fcf44703          	lbu	a4,-49(s0)
    1420:	00070613          	mv	a2,a4
    1424:	fd842583          	lw	a1,-40(s0)
    1428:	00078513          	mv	a0,a5
    142c:	e50ff0ef          	jal	a7c <io_vga_set_pixel>
    1430:	fdc42703          	lw	a4,-36(s0)
    1434:	fec42783          	lw	a5,-20(s0)
    1438:	00f706b3          	add	a3,a4,a5
    143c:	fd842703          	lw	a4,-40(s0)
    1440:	fd042783          	lw	a5,-48(s0)
    1444:	00f707b3          	add	a5,a4,a5
    1448:	fff78793          	add	a5,a5,-1
    144c:	fcf44703          	lbu	a4,-49(s0)
    1450:	00070613          	mv	a2,a4
    1454:	00078593          	mv	a1,a5
    1458:	00068513          	mv	a0,a3
    145c:	e20ff0ef          	jal	a7c <io_vga_set_pixel>
    1460:	fec42783          	lw	a5,-20(s0)
    1464:	00178793          	add	a5,a5,1
    1468:	fef42623          	sw	a5,-20(s0)
    146c:	fec42703          	lw	a4,-20(s0)
    1470:	fd442783          	lw	a5,-44(s0)
    1474:	f8f74ee3          	blt	a4,a5,1410 <render_rect_border+0x30>
    1478:	fe042423          	sw	zero,-24(s0)
    147c:	0600006f          	j	14dc <render_rect_border+0xfc>
    1480:	fd842703          	lw	a4,-40(s0)
    1484:	fe842783          	lw	a5,-24(s0)
    1488:	00f707b3          	add	a5,a4,a5
    148c:	fcf44703          	lbu	a4,-49(s0)
    1490:	00070613          	mv	a2,a4
    1494:	00078593          	mv	a1,a5
    1498:	fdc42503          	lw	a0,-36(s0)
    149c:	de0ff0ef          	jal	a7c <io_vga_set_pixel>
    14a0:	fdc42703          	lw	a4,-36(s0)
    14a4:	fd442783          	lw	a5,-44(s0)
    14a8:	00f707b3          	add	a5,a4,a5
    14ac:	fff78693          	add	a3,a5,-1
    14b0:	fd842703          	lw	a4,-40(s0)
    14b4:	fe842783          	lw	a5,-24(s0)
    14b8:	00f707b3          	add	a5,a4,a5
    14bc:	fcf44703          	lbu	a4,-49(s0)
    14c0:	00070613          	mv	a2,a4
    14c4:	00078593          	mv	a1,a5
    14c8:	00068513          	mv	a0,a3
    14cc:	db0ff0ef          	jal	a7c <io_vga_set_pixel>
    14d0:	fe842783          	lw	a5,-24(s0)
    14d4:	00178793          	add	a5,a5,1
    14d8:	fef42423          	sw	a5,-24(s0)
    14dc:	fe842703          	lw	a4,-24(s0)
    14e0:	fd042783          	lw	a5,-48(s0)
    14e4:	f8f74ee3          	blt	a4,a5,1480 <render_rect_border+0xa0>
    14e8:	00000013          	nop
    14ec:	00000013          	nop
    14f0:	03c12083          	lw	ra,60(sp)
    14f4:	03812403          	lw	s0,56(sp)
    14f8:	04010113          	add	sp,sp,64
    14fc:	00008067          	ret

00001500 <render_rect_fill>:
    1500:	fc010113          	add	sp,sp,-64
    1504:	02112e23          	sw	ra,60(sp)
    1508:	02812c23          	sw	s0,56(sp)
    150c:	04010413          	add	s0,sp,64
    1510:	fca42e23          	sw	a0,-36(s0)
    1514:	fcb42c23          	sw	a1,-40(s0)
    1518:	fcc42a23          	sw	a2,-44(s0)
    151c:	fcd42823          	sw	a3,-48(s0)
    1520:	00070793          	mv	a5,a4
    1524:	fcf407a3          	sb	a5,-49(s0)
    1528:	fe042623          	sw	zero,-20(s0)
    152c:	05c0006f          	j	1588 <render_rect_fill+0x88>
    1530:	fe042423          	sw	zero,-24(s0)
    1534:	03c0006f          	j	1570 <render_rect_fill+0x70>
    1538:	fdc42703          	lw	a4,-36(s0)
    153c:	fec42783          	lw	a5,-20(s0)
    1540:	00f706b3          	add	a3,a4,a5
    1544:	fd842703          	lw	a4,-40(s0)
    1548:	fe842783          	lw	a5,-24(s0)
    154c:	00f707b3          	add	a5,a4,a5
    1550:	fcf44703          	lbu	a4,-49(s0)
    1554:	00070613          	mv	a2,a4
    1558:	00078593          	mv	a1,a5
    155c:	00068513          	mv	a0,a3
    1560:	d1cff0ef          	jal	a7c <io_vga_set_pixel>
    1564:	fe842783          	lw	a5,-24(s0)
    1568:	00178793          	add	a5,a5,1
    156c:	fef42423          	sw	a5,-24(s0)
    1570:	fe842703          	lw	a4,-24(s0)
    1574:	fd042783          	lw	a5,-48(s0)
    1578:	fcf740e3          	blt	a4,a5,1538 <render_rect_fill+0x38>
    157c:	fec42783          	lw	a5,-20(s0)
    1580:	00178793          	add	a5,a5,1
    1584:	fef42623          	sw	a5,-20(s0)
    1588:	fec42703          	lw	a4,-20(s0)
    158c:	fd442783          	lw	a5,-44(s0)
    1590:	faf740e3          	blt	a4,a5,1530 <render_rect_fill+0x30>
    1594:	00000013          	nop
    1598:	00000013          	nop
    159c:	03c12083          	lw	ra,60(sp)
    15a0:	03812403          	lw	s0,56(sp)
    15a4:	04010113          	add	sp,sp,64
    15a8:	00008067          	ret

000015ac <render_20x20_circle>:
    15ac:	f3010113          	add	sp,sp,-208
    15b0:	0c112623          	sw	ra,204(sp)
    15b4:	0c812423          	sw	s0,200(sp)
    15b8:	0d010413          	add	s0,sp,208
    15bc:	f2a42e23          	sw	a0,-196(s0)
    15c0:	f2b42c23          	sw	a1,-200(s0)
    15c4:	00060793          	mv	a5,a2
    15c8:	f2f40ba3          	sb	a5,-201(s0)
    15cc:	000107b7          	lui	a5,0x10
    15d0:	10878713          	add	a4,a5,264 # 10108 <SPRITE_CARD_CLUBS+0x70>
    15d4:	f9840793          	add	a5,s0,-104
    15d8:	00070693          	mv	a3,a4
    15dc:	05000713          	li	a4,80
    15e0:	00070613          	mv	a2,a4
    15e4:	00068593          	mv	a1,a3
    15e8:	00078513          	mv	a0,a5
    15ec:	c25fe0ef          	jal	210 <memcpy>
    15f0:	000107b7          	lui	a5,0x10
    15f4:	15878713          	add	a4,a5,344 # 10158 <SPRITE_CARD_CLUBS+0xc0>
    15f8:	f4840793          	add	a5,s0,-184
    15fc:	00070693          	mv	a3,a4
    1600:	05000713          	li	a4,80
    1604:	00070613          	mv	a2,a4
    1608:	00068593          	mv	a1,a3
    160c:	00078513          	mv	a0,a5
    1610:	c01fe0ef          	jal	210 <memcpy>
    1614:	fe042623          	sw	zero,-20(s0)
    1618:	0840006f          	j	169c <render_20x20_circle+0xf0>
    161c:	fe042423          	sw	zero,-24(s0)
    1620:	0540006f          	j	1674 <render_20x20_circle+0xc8>
    1624:	fec42783          	lw	a5,-20(s0)
    1628:	00279793          	sll	a5,a5,0x2
    162c:	ff078793          	add	a5,a5,-16
    1630:	008787b3          	add	a5,a5,s0
    1634:	fa87a703          	lw	a4,-88(a5)
    1638:	f3c42783          	lw	a5,-196(s0)
    163c:	00f70733          	add	a4,a4,a5
    1640:	fe842783          	lw	a5,-24(s0)
    1644:	00f706b3          	add	a3,a4,a5
    1648:	f3842703          	lw	a4,-200(s0)
    164c:	fec42783          	lw	a5,-20(s0)
    1650:	00f707b3          	add	a5,a4,a5
    1654:	f3744703          	lbu	a4,-201(s0)
    1658:	00070613          	mv	a2,a4
    165c:	00078593          	mv	a1,a5
    1660:	00068513          	mv	a0,a3
    1664:	c18ff0ef          	jal	a7c <io_vga_set_pixel>
    1668:	fe842783          	lw	a5,-24(s0)
    166c:	00178793          	add	a5,a5,1
    1670:	fef42423          	sw	a5,-24(s0)
    1674:	fec42783          	lw	a5,-20(s0)
    1678:	00279793          	sll	a5,a5,0x2
    167c:	ff078793          	add	a5,a5,-16
    1680:	008787b3          	add	a5,a5,s0
    1684:	f587a783          	lw	a5,-168(a5)
    1688:	fe842703          	lw	a4,-24(s0)
    168c:	f8f74ce3          	blt	a4,a5,1624 <render_20x20_circle+0x78>
    1690:	fec42783          	lw	a5,-20(s0)
    1694:	00178793          	add	a5,a5,1
    1698:	fef42623          	sw	a5,-20(s0)
    169c:	fec42703          	lw	a4,-20(s0)
    16a0:	01300793          	li	a5,19
    16a4:	f6e7dce3          	bge	a5,a4,161c <render_20x20_circle+0x70>
    16a8:	00000013          	nop
    16ac:	00000013          	nop
    16b0:	0cc12083          	lw	ra,204(sp)
    16b4:	0c812403          	lw	s0,200(sp)
    16b8:	0d010113          	add	sp,sp,208
    16bc:	00008067          	ret

000016c0 <render_12x12_circle>:
    16c0:	f7010113          	add	sp,sp,-144
    16c4:	08112623          	sw	ra,140(sp)
    16c8:	08812423          	sw	s0,136(sp)
    16cc:	09010413          	add	s0,sp,144
    16d0:	f6a42e23          	sw	a0,-132(s0)
    16d4:	f6b42c23          	sw	a1,-136(s0)
    16d8:	00060793          	mv	a5,a2
    16dc:	f6f40ba3          	sb	a5,-137(s0)
    16e0:	000107b7          	lui	a5,0x10
    16e4:	1a878793          	add	a5,a5,424 # 101a8 <SPRITE_CARD_CLUBS+0x110>
    16e8:	0007af03          	lw	t5,0(a5)
    16ec:	0047ae83          	lw	t4,4(a5)
    16f0:	0087ae03          	lw	t3,8(a5)
    16f4:	00c7a303          	lw	t1,12(a5)
    16f8:	0107a883          	lw	a7,16(a5)
    16fc:	0147a803          	lw	a6,20(a5)
    1700:	0187a503          	lw	a0,24(a5)
    1704:	01c7a583          	lw	a1,28(a5)
    1708:	0207a603          	lw	a2,32(a5)
    170c:	0247a683          	lw	a3,36(a5)
    1710:	0287a703          	lw	a4,40(a5)
    1714:	02c7a783          	lw	a5,44(a5)
    1718:	fbe42c23          	sw	t5,-72(s0)
    171c:	fbd42e23          	sw	t4,-68(s0)
    1720:	fdc42023          	sw	t3,-64(s0)
    1724:	fc642223          	sw	t1,-60(s0)
    1728:	fd142423          	sw	a7,-56(s0)
    172c:	fd042623          	sw	a6,-52(s0)
    1730:	fca42823          	sw	a0,-48(s0)
    1734:	fcb42a23          	sw	a1,-44(s0)
    1738:	fcc42c23          	sw	a2,-40(s0)
    173c:	fcd42e23          	sw	a3,-36(s0)
    1740:	fee42023          	sw	a4,-32(s0)
    1744:	fef42223          	sw	a5,-28(s0)
    1748:	000107b7          	lui	a5,0x10
    174c:	1d878793          	add	a5,a5,472 # 101d8 <SPRITE_CARD_CLUBS+0x140>
    1750:	0007af03          	lw	t5,0(a5)
    1754:	0047ae83          	lw	t4,4(a5)
    1758:	0087ae03          	lw	t3,8(a5)
    175c:	00c7a303          	lw	t1,12(a5)
    1760:	0107a883          	lw	a7,16(a5)
    1764:	0147a803          	lw	a6,20(a5)
    1768:	0187a503          	lw	a0,24(a5)
    176c:	01c7a583          	lw	a1,28(a5)
    1770:	0207a603          	lw	a2,32(a5)
    1774:	0247a683          	lw	a3,36(a5)
    1778:	0287a703          	lw	a4,40(a5)
    177c:	02c7a783          	lw	a5,44(a5)
    1780:	f9e42423          	sw	t5,-120(s0)
    1784:	f9d42623          	sw	t4,-116(s0)
    1788:	f9c42823          	sw	t3,-112(s0)
    178c:	f8642a23          	sw	t1,-108(s0)
    1790:	f9142c23          	sw	a7,-104(s0)
    1794:	f9042e23          	sw	a6,-100(s0)
    1798:	faa42023          	sw	a0,-96(s0)
    179c:	fab42223          	sw	a1,-92(s0)
    17a0:	fac42423          	sw	a2,-88(s0)
    17a4:	fad42623          	sw	a3,-84(s0)
    17a8:	fae42823          	sw	a4,-80(s0)
    17ac:	faf42a23          	sw	a5,-76(s0)
    17b0:	fe042623          	sw	zero,-20(s0)
    17b4:	0840006f          	j	1838 <render_12x12_circle+0x178>
    17b8:	fe042423          	sw	zero,-24(s0)
    17bc:	0540006f          	j	1810 <render_12x12_circle+0x150>
    17c0:	fec42783          	lw	a5,-20(s0)
    17c4:	00279793          	sll	a5,a5,0x2
    17c8:	ff078793          	add	a5,a5,-16
    17cc:	008787b3          	add	a5,a5,s0
    17d0:	fc87a703          	lw	a4,-56(a5)
    17d4:	f7c42783          	lw	a5,-132(s0)
    17d8:	00f70733          	add	a4,a4,a5
    17dc:	fe842783          	lw	a5,-24(s0)
    17e0:	00f706b3          	add	a3,a4,a5
    17e4:	f7842703          	lw	a4,-136(s0)
    17e8:	fec42783          	lw	a5,-20(s0)
    17ec:	00f707b3          	add	a5,a4,a5
    17f0:	f7744703          	lbu	a4,-137(s0)
    17f4:	00070613          	mv	a2,a4
    17f8:	00078593          	mv	a1,a5
    17fc:	00068513          	mv	a0,a3
    1800:	a7cff0ef          	jal	a7c <io_vga_set_pixel>
    1804:	fe842783          	lw	a5,-24(s0)
    1808:	00178793          	add	a5,a5,1
    180c:	fef42423          	sw	a5,-24(s0)
    1810:	fec42783          	lw	a5,-20(s0)
    1814:	00279793          	sll	a5,a5,0x2
    1818:	ff078793          	add	a5,a5,-16
    181c:	008787b3          	add	a5,a5,s0
    1820:	f987a783          	lw	a5,-104(a5)
    1824:	fe842703          	lw	a4,-24(s0)
    1828:	f8f74ce3          	blt	a4,a5,17c0 <render_12x12_circle+0x100>
    182c:	fec42783          	lw	a5,-20(s0)
    1830:	00178793          	add	a5,a5,1
    1834:	fef42623          	sw	a5,-20(s0)
    1838:	fec42703          	lw	a4,-20(s0)
    183c:	00b00793          	li	a5,11
    1840:	f6e7dce3          	bge	a5,a4,17b8 <render_12x12_circle+0xf8>
    1844:	00000013          	nop
    1848:	00000013          	nop
    184c:	08c12083          	lw	ra,140(sp)
    1850:	08812403          	lw	s0,136(sp)
    1854:	09010113          	add	sp,sp,144
    1858:	00008067          	ret

0000185c <render_8x8_circle>:
    185c:	f9010113          	add	sp,sp,-112
    1860:	06112623          	sw	ra,108(sp)
    1864:	06812423          	sw	s0,104(sp)
    1868:	07010413          	add	s0,sp,112
    186c:	f8a42e23          	sw	a0,-100(s0)
    1870:	f8b42c23          	sw	a1,-104(s0)
    1874:	00060793          	mv	a5,a2
    1878:	f8f40ba3          	sb	a5,-105(s0)
    187c:	000107b7          	lui	a5,0x10
    1880:	20878793          	add	a5,a5,520 # 10208 <SPRITE_CARD_CLUBS+0x170>
    1884:	0007a883          	lw	a7,0(a5)
    1888:	0047a803          	lw	a6,4(a5)
    188c:	0087a503          	lw	a0,8(a5)
    1890:	00c7a583          	lw	a1,12(a5)
    1894:	0107a603          	lw	a2,16(a5)
    1898:	0147a683          	lw	a3,20(a5)
    189c:	0187a703          	lw	a4,24(a5)
    18a0:	01c7a783          	lw	a5,28(a5)
    18a4:	fd142423          	sw	a7,-56(s0)
    18a8:	fd042623          	sw	a6,-52(s0)
    18ac:	fca42823          	sw	a0,-48(s0)
    18b0:	fcb42a23          	sw	a1,-44(s0)
    18b4:	fcc42c23          	sw	a2,-40(s0)
    18b8:	fcd42e23          	sw	a3,-36(s0)
    18bc:	fee42023          	sw	a4,-32(s0)
    18c0:	fef42223          	sw	a5,-28(s0)
    18c4:	000107b7          	lui	a5,0x10
    18c8:	22878793          	add	a5,a5,552 # 10228 <SPRITE_CARD_CLUBS+0x190>
    18cc:	0007a883          	lw	a7,0(a5)
    18d0:	0047a803          	lw	a6,4(a5)
    18d4:	0087a503          	lw	a0,8(a5)
    18d8:	00c7a583          	lw	a1,12(a5)
    18dc:	0107a603          	lw	a2,16(a5)
    18e0:	0147a683          	lw	a3,20(a5)
    18e4:	0187a703          	lw	a4,24(a5)
    18e8:	01c7a783          	lw	a5,28(a5)
    18ec:	fb142423          	sw	a7,-88(s0)
    18f0:	fb042623          	sw	a6,-84(s0)
    18f4:	faa42823          	sw	a0,-80(s0)
    18f8:	fab42a23          	sw	a1,-76(s0)
    18fc:	fac42c23          	sw	a2,-72(s0)
    1900:	fad42e23          	sw	a3,-68(s0)
    1904:	fce42023          	sw	a4,-64(s0)
    1908:	fcf42223          	sw	a5,-60(s0)
    190c:	fe042623          	sw	zero,-20(s0)
    1910:	0840006f          	j	1994 <render_8x8_circle+0x138>
    1914:	fe042423          	sw	zero,-24(s0)
    1918:	0540006f          	j	196c <render_8x8_circle+0x110>
    191c:	fec42783          	lw	a5,-20(s0)
    1920:	00279793          	sll	a5,a5,0x2
    1924:	ff078793          	add	a5,a5,-16
    1928:	008787b3          	add	a5,a5,s0
    192c:	fd87a703          	lw	a4,-40(a5)
    1930:	f9c42783          	lw	a5,-100(s0)
    1934:	00f70733          	add	a4,a4,a5
    1938:	fe842783          	lw	a5,-24(s0)
    193c:	00f706b3          	add	a3,a4,a5
    1940:	f9842703          	lw	a4,-104(s0)
    1944:	fec42783          	lw	a5,-20(s0)
    1948:	00f707b3          	add	a5,a4,a5
    194c:	f9744703          	lbu	a4,-105(s0)
    1950:	00070613          	mv	a2,a4
    1954:	00078593          	mv	a1,a5
    1958:	00068513          	mv	a0,a3
    195c:	920ff0ef          	jal	a7c <io_vga_set_pixel>
    1960:	fe842783          	lw	a5,-24(s0)
    1964:	00178793          	add	a5,a5,1
    1968:	fef42423          	sw	a5,-24(s0)
    196c:	fec42783          	lw	a5,-20(s0)
    1970:	00279793          	sll	a5,a5,0x2
    1974:	ff078793          	add	a5,a5,-16
    1978:	008787b3          	add	a5,a5,s0
    197c:	fb87a783          	lw	a5,-72(a5)
    1980:	fe842703          	lw	a4,-24(s0)
    1984:	f8f74ce3          	blt	a4,a5,191c <render_8x8_circle+0xc0>
    1988:	fec42783          	lw	a5,-20(s0)
    198c:	00178793          	add	a5,a5,1
    1990:	fef42623          	sw	a5,-20(s0)
    1994:	fec42703          	lw	a4,-20(s0)
    1998:	00700793          	li	a5,7
    199c:	f6e7dce3          	bge	a5,a4,1914 <render_8x8_circle+0xb8>
    19a0:	00000013          	nop
    19a4:	00000013          	nop
    19a8:	06c12083          	lw	ra,108(sp)
    19ac:	06812403          	lw	s0,104(sp)
    19b0:	07010113          	add	sp,sp,112
    19b4:	00008067          	ret

000019b8 <render_character>:
    19b8:	fd010113          	add	sp,sp,-48
    19bc:	02112623          	sw	ra,44(sp)
    19c0:	02812423          	sw	s0,40(sp)
    19c4:	03010413          	add	s0,sp,48
    19c8:	fcd42c23          	sw	a3,-40(s0)
    19cc:	fce42a23          	sw	a4,-44(s0)
    19d0:	fcf42823          	sw	a5,-48(s0)
    19d4:	00050793          	mv	a5,a0
    19d8:	fcf40fa3          	sb	a5,-33(s0)
    19dc:	00058793          	mv	a5,a1
    19e0:	fcf40f23          	sb	a5,-34(s0)
    19e4:	00060793          	mv	a5,a2
    19e8:	fcf40ea3          	sb	a5,-35(s0)
    19ec:	fdf44783          	lbu	a5,-33(s0)
    19f0:	00010737          	lui	a4,0x10
    19f4:	24870713          	add	a4,a4,584 # 10248 <glyphs_code>
    19f8:	00279793          	sll	a5,a5,0x2
    19fc:	00f707b3          	add	a5,a4,a5
    1a00:	0007a783          	lw	a5,0(a5)
    1a04:	02079663          	bnez	a5,1a30 <render_character+0x78>
    1a08:	fdf44783          	lbu	a5,-33(s0)
    1a0c:	00010737          	lui	a4,0x10
    1a10:	44870713          	add	a4,a4,1096 # 10448 <glyphs_width>
    1a14:	00279793          	sll	a5,a5,0x2
    1a18:	00f707b3          	add	a5,a4,a5
    1a1c:	0007a783          	lw	a5,0(a5)
    1a20:	00079863          	bnez	a5,1a30 <render_character+0x78>
    1a24:	000107b7          	lui	a5,0x10
    1a28:	64878513          	add	a0,a5,1608 # 10648 <glyphs_width+0x200>
    1a2c:	1b9000ef          	jal	23e4 <panic>
    1a30:	fe042623          	sw	zero,-20(s0)
    1a34:	12c0006f          	j	1b60 <render_character+0x1a8>
    1a38:	fe042423          	sw	zero,-24(s0)
    1a3c:	10c0006f          	j	1b48 <render_character+0x190>
    1a40:	fec42703          	lw	a4,-20(s0)
    1a44:	00500793          	li	a5,5
    1a48:	04f71063          	bne	a4,a5,1a88 <render_character+0xd0>
    1a4c:	fd042783          	lw	a5,-48(s0)
    1a50:	0007a703          	lw	a4,0(a5)
    1a54:	fd842783          	lw	a5,-40(s0)
    1a58:	00f70733          	add	a4,a4,a5
    1a5c:	fec42783          	lw	a5,-20(s0)
    1a60:	00f706b3          	add	a3,a4,a5
    1a64:	fd442703          	lw	a4,-44(s0)
    1a68:	fe842783          	lw	a5,-24(s0)
    1a6c:	00f707b3          	add	a5,a4,a5
    1a70:	fdd44703          	lbu	a4,-35(s0)
    1a74:	00070613          	mv	a2,a4
    1a78:	00078593          	mv	a1,a5
    1a7c:	00068513          	mv	a0,a3
    1a80:	ffdfe0ef          	jal	a7c <io_vga_set_pixel>
    1a84:	0b80006f          	j	1b3c <render_character+0x184>
    1a88:	fdf44783          	lbu	a5,-33(s0)
    1a8c:	00010737          	lui	a4,0x10
    1a90:	24870713          	add	a4,a4,584 # 10248 <glyphs_code>
    1a94:	00279793          	sll	a5,a5,0x2
    1a98:	00f707b3          	add	a5,a4,a5
    1a9c:	0007a683          	lw	a3,0(a5)
    1aa0:	fe842703          	lw	a4,-24(s0)
    1aa4:	00070793          	mv	a5,a4
    1aa8:	00279793          	sll	a5,a5,0x2
    1aac:	00e78733          	add	a4,a5,a4
    1ab0:	fec42783          	lw	a5,-20(s0)
    1ab4:	00f707b3          	add	a5,a4,a5
    1ab8:	00100713          	li	a4,1
    1abc:	00f717b3          	sll	a5,a4,a5
    1ac0:	00f6f7b3          	and	a5,a3,a5
    1ac4:	04078063          	beqz	a5,1b04 <render_character+0x14c>
    1ac8:	fd042783          	lw	a5,-48(s0)
    1acc:	0007a703          	lw	a4,0(a5)
    1ad0:	fd842783          	lw	a5,-40(s0)
    1ad4:	00f70733          	add	a4,a4,a5
    1ad8:	fec42783          	lw	a5,-20(s0)
    1adc:	00f706b3          	add	a3,a4,a5
    1ae0:	fd442703          	lw	a4,-44(s0)
    1ae4:	fe842783          	lw	a5,-24(s0)
    1ae8:	00f707b3          	add	a5,a4,a5
    1aec:	fde44703          	lbu	a4,-34(s0)
    1af0:	00070613          	mv	a2,a4
    1af4:	00078593          	mv	a1,a5
    1af8:	00068513          	mv	a0,a3
    1afc:	f81fe0ef          	jal	a7c <io_vga_set_pixel>
    1b00:	03c0006f          	j	1b3c <render_character+0x184>
    1b04:	fd042783          	lw	a5,-48(s0)
    1b08:	0007a703          	lw	a4,0(a5)
    1b0c:	fd842783          	lw	a5,-40(s0)
    1b10:	00f70733          	add	a4,a4,a5
    1b14:	fec42783          	lw	a5,-20(s0)
    1b18:	00f706b3          	add	a3,a4,a5
    1b1c:	fd442703          	lw	a4,-44(s0)
    1b20:	fe842783          	lw	a5,-24(s0)
    1b24:	00f707b3          	add	a5,a4,a5
    1b28:	fdd44703          	lbu	a4,-35(s0)
    1b2c:	00070613          	mv	a2,a4
    1b30:	00078593          	mv	a1,a5
    1b34:	00068513          	mv	a0,a3
    1b38:	f45fe0ef          	jal	a7c <io_vga_set_pixel>
    1b3c:	fe842783          	lw	a5,-24(s0)
    1b40:	00178793          	add	a5,a5,1
    1b44:	fef42423          	sw	a5,-24(s0)
    1b48:	fe842703          	lw	a4,-24(s0)
    1b4c:	00500793          	li	a5,5
    1b50:	eee7d8e3          	bge	a5,a4,1a40 <render_character+0x88>
    1b54:	fec42783          	lw	a5,-20(s0)
    1b58:	00178793          	add	a5,a5,1
    1b5c:	fef42623          	sw	a5,-20(s0)
    1b60:	fec42703          	lw	a4,-20(s0)
    1b64:	00500793          	li	a5,5
    1b68:	ece7d8e3          	bge	a5,a4,1a38 <render_character+0x80>
    1b6c:	fd042783          	lw	a5,-48(s0)
    1b70:	0007a783          	lw	a5,0(a5)
    1b74:	00078693          	mv	a3,a5
    1b78:	fdf44783          	lbu	a5,-33(s0)
    1b7c:	00010737          	lui	a4,0x10
    1b80:	44870713          	add	a4,a4,1096 # 10448 <glyphs_width>
    1b84:	00279793          	sll	a5,a5,0x2
    1b88:	00f707b3          	add	a5,a4,a5
    1b8c:	0007a783          	lw	a5,0(a5)
    1b90:	00f687b3          	add	a5,a3,a5
    1b94:	00178793          	add	a5,a5,1
    1b98:	00078713          	mv	a4,a5
    1b9c:	fd042783          	lw	a5,-48(s0)
    1ba0:	00e7a023          	sw	a4,0(a5)
    1ba4:	00000013          	nop
    1ba8:	02c12083          	lw	ra,44(sp)
    1bac:	02812403          	lw	s0,40(sp)
    1bb0:	03010113          	add	sp,sp,48
    1bb4:	00008067          	ret

00001bb8 <render_character_rot_180>:
    1bb8:	fd010113          	add	sp,sp,-48
    1bbc:	02112623          	sw	ra,44(sp)
    1bc0:	02812423          	sw	s0,40(sp)
    1bc4:	03010413          	add	s0,sp,48
    1bc8:	fcd42c23          	sw	a3,-40(s0)
    1bcc:	fce42a23          	sw	a4,-44(s0)
    1bd0:	fcf42823          	sw	a5,-48(s0)
    1bd4:	00050793          	mv	a5,a0
    1bd8:	fcf40fa3          	sb	a5,-33(s0)
    1bdc:	00058793          	mv	a5,a1
    1be0:	fcf40f23          	sb	a5,-34(s0)
    1be4:	00060793          	mv	a5,a2
    1be8:	fcf40ea3          	sb	a5,-35(s0)
    1bec:	fdf44783          	lbu	a5,-33(s0)
    1bf0:	00010737          	lui	a4,0x10
    1bf4:	24870713          	add	a4,a4,584 # 10248 <glyphs_code>
    1bf8:	00279793          	sll	a5,a5,0x2
    1bfc:	00f707b3          	add	a5,a4,a5
    1c00:	0007a783          	lw	a5,0(a5)
    1c04:	02079663          	bnez	a5,1c30 <render_character_rot_180+0x78>
    1c08:	fdf44783          	lbu	a5,-33(s0)
    1c0c:	00010737          	lui	a4,0x10
    1c10:	44870713          	add	a4,a4,1096 # 10448 <glyphs_width>
    1c14:	00279793          	sll	a5,a5,0x2
    1c18:	00f707b3          	add	a5,a4,a5
    1c1c:	0007a783          	lw	a5,0(a5)
    1c20:	00079863          	bnez	a5,1c30 <render_character_rot_180+0x78>
    1c24:	000107b7          	lui	a5,0x10
    1c28:	64878513          	add	a0,a5,1608 # 10648 <glyphs_width+0x200>
    1c2c:	7b8000ef          	jal	23e4 <panic>
    1c30:	fdf44783          	lbu	a5,-33(s0)
    1c34:	00010737          	lui	a4,0x10
    1c38:	44870713          	add	a4,a4,1096 # 10448 <glyphs_width>
    1c3c:	00279793          	sll	a5,a5,0x2
    1c40:	00f707b3          	add	a5,a4,a5
    1c44:	0007a783          	lw	a5,0(a5)
    1c48:	fef42223          	sw	a5,-28(s0)
    1c4c:	fe042623          	sw	zero,-20(s0)
    1c50:	1400006f          	j	1d90 <render_character_rot_180+0x1d8>
    1c54:	fe042423          	sw	zero,-24(s0)
    1c58:	1200006f          	j	1d78 <render_character_rot_180+0x1c0>
    1c5c:	fec42703          	lw	a4,-20(s0)
    1c60:	fe442783          	lw	a5,-28(s0)
    1c64:	04f71063          	bne	a4,a5,1ca4 <render_character_rot_180+0xec>
    1c68:	fd042783          	lw	a5,-48(s0)
    1c6c:	0007a703          	lw	a4,0(a5)
    1c70:	fd842783          	lw	a5,-40(s0)
    1c74:	00f70733          	add	a4,a4,a5
    1c78:	fec42783          	lw	a5,-20(s0)
    1c7c:	00f706b3          	add	a3,a4,a5
    1c80:	fd442703          	lw	a4,-44(s0)
    1c84:	fe842783          	lw	a5,-24(s0)
    1c88:	00f707b3          	add	a5,a4,a5
    1c8c:	fdd44703          	lbu	a4,-35(s0)
    1c90:	00070613          	mv	a2,a4
    1c94:	00078593          	mv	a1,a5
    1c98:	00068513          	mv	a0,a3
    1c9c:	de1fe0ef          	jal	a7c <io_vga_set_pixel>
    1ca0:	0cc0006f          	j	1d6c <render_character_rot_180+0x1b4>
    1ca4:	fdf44783          	lbu	a5,-33(s0)
    1ca8:	00010737          	lui	a4,0x10
    1cac:	24870713          	add	a4,a4,584 # 10248 <glyphs_code>
    1cb0:	00279793          	sll	a5,a5,0x2
    1cb4:	00f707b3          	add	a5,a4,a5
    1cb8:	0007a683          	lw	a3,0(a5)
    1cbc:	fe442783          	lw	a5,-28(s0)
    1cc0:	fff78713          	add	a4,a5,-1
    1cc4:	fec42783          	lw	a5,-20(s0)
    1cc8:	40f70633          	sub	a2,a4,a5
    1ccc:	00500713          	li	a4,5
    1cd0:	fe842783          	lw	a5,-24(s0)
    1cd4:	40f70733          	sub	a4,a4,a5
    1cd8:	00070793          	mv	a5,a4
    1cdc:	00279793          	sll	a5,a5,0x2
    1ce0:	00e787b3          	add	a5,a5,a4
    1ce4:	00f607b3          	add	a5,a2,a5
    1ce8:	00100713          	li	a4,1
    1cec:	00f717b3          	sll	a5,a4,a5
    1cf0:	00f6f7b3          	and	a5,a3,a5
    1cf4:	04078063          	beqz	a5,1d34 <render_character_rot_180+0x17c>
    1cf8:	fd042783          	lw	a5,-48(s0)
    1cfc:	0007a703          	lw	a4,0(a5)
    1d00:	fd842783          	lw	a5,-40(s0)
    1d04:	00f70733          	add	a4,a4,a5
    1d08:	fec42783          	lw	a5,-20(s0)
    1d0c:	00f706b3          	add	a3,a4,a5
    1d10:	fd442703          	lw	a4,-44(s0)
    1d14:	fe842783          	lw	a5,-24(s0)
    1d18:	00f707b3          	add	a5,a4,a5
    1d1c:	fde44703          	lbu	a4,-34(s0)
    1d20:	00070613          	mv	a2,a4
    1d24:	00078593          	mv	a1,a5
    1d28:	00068513          	mv	a0,a3
    1d2c:	d51fe0ef          	jal	a7c <io_vga_set_pixel>
    1d30:	03c0006f          	j	1d6c <render_character_rot_180+0x1b4>
    1d34:	fd042783          	lw	a5,-48(s0)
    1d38:	0007a703          	lw	a4,0(a5)
    1d3c:	fd842783          	lw	a5,-40(s0)
    1d40:	00f70733          	add	a4,a4,a5
    1d44:	fec42783          	lw	a5,-20(s0)
    1d48:	00f706b3          	add	a3,a4,a5
    1d4c:	fd442703          	lw	a4,-44(s0)
    1d50:	fe842783          	lw	a5,-24(s0)
    1d54:	00f707b3          	add	a5,a4,a5
    1d58:	fdd44703          	lbu	a4,-35(s0)
    1d5c:	00070613          	mv	a2,a4
    1d60:	00078593          	mv	a1,a5
    1d64:	00068513          	mv	a0,a3
    1d68:	d15fe0ef          	jal	a7c <io_vga_set_pixel>
    1d6c:	fe842783          	lw	a5,-24(s0)
    1d70:	00178793          	add	a5,a5,1
    1d74:	fef42423          	sw	a5,-24(s0)
    1d78:	fe842703          	lw	a4,-24(s0)
    1d7c:	00500793          	li	a5,5
    1d80:	ece7dee3          	bge	a5,a4,1c5c <render_character_rot_180+0xa4>
    1d84:	fec42783          	lw	a5,-20(s0)
    1d88:	00178793          	add	a5,a5,1
    1d8c:	fef42623          	sw	a5,-20(s0)
    1d90:	fe442703          	lw	a4,-28(s0)
    1d94:	fec42783          	lw	a5,-20(s0)
    1d98:	eaf75ee3          	bge	a4,a5,1c54 <render_character_rot_180+0x9c>
    1d9c:	fd042783          	lw	a5,-48(s0)
    1da0:	0007a783          	lw	a5,0(a5)
    1da4:	00078693          	mv	a3,a5
    1da8:	fdf44783          	lbu	a5,-33(s0)
    1dac:	00010737          	lui	a4,0x10
    1db0:	44870713          	add	a4,a4,1096 # 10448 <glyphs_width>
    1db4:	00279793          	sll	a5,a5,0x2
    1db8:	00f707b3          	add	a5,a4,a5
    1dbc:	0007a783          	lw	a5,0(a5)
    1dc0:	00f687b3          	add	a5,a3,a5
    1dc4:	00178793          	add	a5,a5,1
    1dc8:	00078713          	mv	a4,a5
    1dcc:	fd042783          	lw	a5,-48(s0)
    1dd0:	00e7a023          	sw	a4,0(a5)
    1dd4:	00000013          	nop
    1dd8:	02c12083          	lw	ra,44(sp)
    1ddc:	02812403          	lw	s0,40(sp)
    1de0:	03010113          	add	sp,sp,48
    1de4:	00008067          	ret

00001de8 <clear_character>:
    1de8:	fd010113          	add	sp,sp,-48
    1dec:	02112623          	sw	ra,44(sp)
    1df0:	02812423          	sw	s0,40(sp)
    1df4:	03010413          	add	s0,sp,48
    1df8:	00050793          	mv	a5,a0
    1dfc:	fcc42c23          	sw	a2,-40(s0)
    1e00:	fcd42a23          	sw	a3,-44(s0)
    1e04:	fce42823          	sw	a4,-48(s0)
    1e08:	fcf40fa3          	sb	a5,-33(s0)
    1e0c:	00058793          	mv	a5,a1
    1e10:	fcf40f23          	sb	a5,-34(s0)
    1e14:	fdf44783          	lbu	a5,-33(s0)
    1e18:	00010737          	lui	a4,0x10
    1e1c:	24870713          	add	a4,a4,584 # 10248 <glyphs_code>
    1e20:	00279793          	sll	a5,a5,0x2
    1e24:	00f707b3          	add	a5,a4,a5
    1e28:	0007a783          	lw	a5,0(a5)
    1e2c:	02079663          	bnez	a5,1e58 <clear_character+0x70>
    1e30:	fdf44783          	lbu	a5,-33(s0)
    1e34:	00010737          	lui	a4,0x10
    1e38:	44870713          	add	a4,a4,1096 # 10448 <glyphs_width>
    1e3c:	00279793          	sll	a5,a5,0x2
    1e40:	00f707b3          	add	a5,a4,a5
    1e44:	0007a783          	lw	a5,0(a5)
    1e48:	00079863          	bnez	a5,1e58 <clear_character+0x70>
    1e4c:	000107b7          	lui	a5,0x10
    1e50:	64878513          	add	a0,a5,1608 # 10648 <glyphs_width+0x200>
    1e54:	590000ef          	jal	23e4 <panic>
    1e58:	fe042623          	sw	zero,-20(s0)
    1e5c:	0680006f          	j	1ec4 <clear_character+0xdc>
    1e60:	fe042423          	sw	zero,-24(s0)
    1e64:	0480006f          	j	1eac <clear_character+0xc4>
    1e68:	fd042783          	lw	a5,-48(s0)
    1e6c:	0007a703          	lw	a4,0(a5)
    1e70:	fd842783          	lw	a5,-40(s0)
    1e74:	00f70733          	add	a4,a4,a5
    1e78:	fec42783          	lw	a5,-20(s0)
    1e7c:	00f706b3          	add	a3,a4,a5
    1e80:	fd442703          	lw	a4,-44(s0)
    1e84:	fe842783          	lw	a5,-24(s0)
    1e88:	00f707b3          	add	a5,a4,a5
    1e8c:	fde44703          	lbu	a4,-34(s0)
    1e90:	00070613          	mv	a2,a4
    1e94:	00078593          	mv	a1,a5
    1e98:	00068513          	mv	a0,a3
    1e9c:	be1fe0ef          	jal	a7c <io_vga_set_pixel>
    1ea0:	fe842783          	lw	a5,-24(s0)
    1ea4:	00178793          	add	a5,a5,1
    1ea8:	fef42423          	sw	a5,-24(s0)
    1eac:	fe842703          	lw	a4,-24(s0)
    1eb0:	00500793          	li	a5,5
    1eb4:	fae7dae3          	bge	a5,a4,1e68 <clear_character+0x80>
    1eb8:	fec42783          	lw	a5,-20(s0)
    1ebc:	00178793          	add	a5,a5,1
    1ec0:	fef42623          	sw	a5,-20(s0)
    1ec4:	fec42703          	lw	a4,-20(s0)
    1ec8:	00500793          	li	a5,5
    1ecc:	f8e7dae3          	bge	a5,a4,1e60 <clear_character+0x78>
    1ed0:	fd042783          	lw	a5,-48(s0)
    1ed4:	0007a783          	lw	a5,0(a5)
    1ed8:	00078693          	mv	a3,a5
    1edc:	fdf44783          	lbu	a5,-33(s0)
    1ee0:	00010737          	lui	a4,0x10
    1ee4:	44870713          	add	a4,a4,1096 # 10448 <glyphs_width>
    1ee8:	00279793          	sll	a5,a5,0x2
    1eec:	00f707b3          	add	a5,a4,a5
    1ef0:	0007a783          	lw	a5,0(a5)
    1ef4:	00f687b3          	add	a5,a3,a5
    1ef8:	00178793          	add	a5,a5,1
    1efc:	00078713          	mv	a4,a5
    1f00:	fd042783          	lw	a5,-48(s0)
    1f04:	00e7a023          	sw	a4,0(a5)
    1f08:	00000013          	nop
    1f0c:	02c12083          	lw	ra,44(sp)
    1f10:	02812403          	lw	s0,40(sp)
    1f14:	03010113          	add	sp,sp,48
    1f18:	00008067          	ret

00001f1c <render_text>:
    1f1c:	fc010113          	add	sp,sp,-64
    1f20:	02112e23          	sw	ra,60(sp)
    1f24:	02812c23          	sw	s0,56(sp)
    1f28:	04010413          	add	s0,sp,64
    1f2c:	fca42e23          	sw	a0,-36(s0)
    1f30:	fcd42a23          	sw	a3,-44(s0)
    1f34:	fce42823          	sw	a4,-48(s0)
    1f38:	fcf42623          	sw	a5,-52(s0)
    1f3c:	00058793          	mv	a5,a1
    1f40:	fcf40da3          	sb	a5,-37(s0)
    1f44:	00060793          	mv	a5,a2
    1f48:	fcf40d23          	sb	a5,-38(s0)
    1f4c:	fe042423          	sw	zero,-24(s0)
    1f50:	fcc42783          	lw	a5,-52(s0)
    1f54:	00078863          	beqz	a5,1f64 <render_text+0x48>
    1f58:	fcc42783          	lw	a5,-52(s0)
    1f5c:	0007a783          	lw	a5,0(a5)
    1f60:	fef42423          	sw	a5,-24(s0)
    1f64:	fe042623          	sw	zero,-20(s0)
    1f68:	0380006f          	j	1fa0 <render_text+0x84>
    1f6c:	fec42783          	lw	a5,-20(s0)
    1f70:	fdc42703          	lw	a4,-36(s0)
    1f74:	00f707b3          	add	a5,a4,a5
    1f78:	0007c503          	lbu	a0,0(a5)
    1f7c:	fe840793          	add	a5,s0,-24
    1f80:	fda44603          	lbu	a2,-38(s0)
    1f84:	fdb44583          	lbu	a1,-37(s0)
    1f88:	fd042703          	lw	a4,-48(s0)
    1f8c:	fd442683          	lw	a3,-44(s0)
    1f90:	a29ff0ef          	jal	19b8 <render_character>
    1f94:	fec42783          	lw	a5,-20(s0)
    1f98:	00178793          	add	a5,a5,1
    1f9c:	fef42623          	sw	a5,-20(s0)
    1fa0:	fec42783          	lw	a5,-20(s0)
    1fa4:	fdc42703          	lw	a4,-36(s0)
    1fa8:	00f707b3          	add	a5,a4,a5
    1fac:	0007c783          	lbu	a5,0(a5)
    1fb0:	fa079ee3          	bnez	a5,1f6c <render_text+0x50>
    1fb4:	fcc42783          	lw	a5,-52(s0)
    1fb8:	00078863          	beqz	a5,1fc8 <render_text+0xac>
    1fbc:	fe842703          	lw	a4,-24(s0)
    1fc0:	fcc42783          	lw	a5,-52(s0)
    1fc4:	00e7a023          	sw	a4,0(a5)
    1fc8:	00000013          	nop
    1fcc:	03c12083          	lw	ra,60(sp)
    1fd0:	03812403          	lw	s0,56(sp)
    1fd4:	04010113          	add	sp,sp,64
    1fd8:	00008067          	ret

00001fdc <render_text_rot_180>:
    1fdc:	fc010113          	add	sp,sp,-64
    1fe0:	02112e23          	sw	ra,60(sp)
    1fe4:	02812c23          	sw	s0,56(sp)
    1fe8:	04010413          	add	s0,sp,64
    1fec:	fca42e23          	sw	a0,-36(s0)
    1ff0:	fcd42a23          	sw	a3,-44(s0)
    1ff4:	fce42823          	sw	a4,-48(s0)
    1ff8:	fcf42623          	sw	a5,-52(s0)
    1ffc:	00058793          	mv	a5,a1
    2000:	fcf40da3          	sb	a5,-37(s0)
    2004:	00060793          	mv	a5,a2
    2008:	fcf40d23          	sb	a5,-38(s0)
    200c:	fe042223          	sw	zero,-28(s0)
    2010:	fcc42783          	lw	a5,-52(s0)
    2014:	00078863          	beqz	a5,2024 <render_text_rot_180+0x48>
    2018:	fcc42783          	lw	a5,-52(s0)
    201c:	0007a783          	lw	a5,0(a5)
    2020:	fef42223          	sw	a5,-28(s0)
    2024:	fe042623          	sw	zero,-20(s0)
    2028:	0100006f          	j	2038 <render_text_rot_180+0x5c>
    202c:	fec42783          	lw	a5,-20(s0)
    2030:	00178793          	add	a5,a5,1
    2034:	fef42623          	sw	a5,-20(s0)
    2038:	fec42783          	lw	a5,-20(s0)
    203c:	fdc42703          	lw	a4,-36(s0)
    2040:	00f707b3          	add	a5,a4,a5
    2044:	0007c783          	lbu	a5,0(a5)
    2048:	fe0792e3          	bnez	a5,202c <render_text_rot_180+0x50>
    204c:	fec42783          	lw	a5,-20(s0)
    2050:	fff78793          	add	a5,a5,-1
    2054:	fef42423          	sw	a5,-24(s0)
    2058:	0380006f          	j	2090 <render_text_rot_180+0xb4>
    205c:	fe842783          	lw	a5,-24(s0)
    2060:	fdc42703          	lw	a4,-36(s0)
    2064:	00f707b3          	add	a5,a4,a5
    2068:	0007c503          	lbu	a0,0(a5)
    206c:	fe440793          	add	a5,s0,-28
    2070:	fda44603          	lbu	a2,-38(s0)
    2074:	fdb44583          	lbu	a1,-37(s0)
    2078:	fd042703          	lw	a4,-48(s0)
    207c:	fd442683          	lw	a3,-44(s0)
    2080:	b39ff0ef          	jal	1bb8 <render_character_rot_180>
    2084:	fe842783          	lw	a5,-24(s0)
    2088:	fff78793          	add	a5,a5,-1
    208c:	fef42423          	sw	a5,-24(s0)
    2090:	fe842783          	lw	a5,-24(s0)
    2094:	fc07d4e3          	bgez	a5,205c <render_text_rot_180+0x80>
    2098:	fcc42783          	lw	a5,-52(s0)
    209c:	00078863          	beqz	a5,20ac <render_text_rot_180+0xd0>
    20a0:	fe442703          	lw	a4,-28(s0)
    20a4:	fcc42783          	lw	a5,-52(s0)
    20a8:	00e7a023          	sw	a4,0(a5)
    20ac:	00000013          	nop
    20b0:	03c12083          	lw	ra,60(sp)
    20b4:	03812403          	lw	s0,56(sp)
    20b8:	04010113          	add	sp,sp,64
    20bc:	00008067          	ret

000020c0 <render_text_number>:
    20c0:	fc010113          	add	sp,sp,-64
    20c4:	02112e23          	sw	ra,60(sp)
    20c8:	02812c23          	sw	s0,56(sp)
    20cc:	04010413          	add	s0,sp,64
    20d0:	fca42e23          	sw	a0,-36(s0)
    20d4:	fcd42a23          	sw	a3,-44(s0)
    20d8:	fce42823          	sw	a4,-48(s0)
    20dc:	fcf42623          	sw	a5,-52(s0)
    20e0:	00058793          	mv	a5,a1
    20e4:	fcf40da3          	sb	a5,-37(s0)
    20e8:	00060793          	mv	a5,a2
    20ec:	fcf40d23          	sb	a5,-38(s0)
    20f0:	fe042623          	sw	zero,-20(s0)
    20f4:	0240006f          	j	2118 <render_text_number+0x58>
    20f8:	0000f7b7          	lui	a5,0xf
    20fc:	8c478713          	add	a4,a5,-1852 # e8c4 <game_int.0>
    2100:	fec42783          	lw	a5,-20(s0)
    2104:	00f707b3          	add	a5,a4,a5
    2108:	00078023          	sb	zero,0(a5)
    210c:	fec42783          	lw	a5,-20(s0)
    2110:	00178793          	add	a5,a5,1
    2114:	fef42623          	sw	a5,-20(s0)
    2118:	fec42703          	lw	a4,-20(s0)
    211c:	01f00793          	li	a5,31
    2120:	fce7dce3          	bge	a5,a4,20f8 <render_text_number+0x38>
    2124:	0000f7b7          	lui	a5,0xf
    2128:	8c478593          	add	a1,a5,-1852 # e8c4 <game_int.0>
    212c:	fdc42503          	lw	a0,-36(s0)
    2130:	418000ef          	jal	2548 <num_to_str>
    2134:	fe042223          	sw	zero,-28(s0)
    2138:	fcc42783          	lw	a5,-52(s0)
    213c:	00078863          	beqz	a5,214c <render_text_number+0x8c>
    2140:	fcc42783          	lw	a5,-52(s0)
    2144:	0007a783          	lw	a5,0(a5)
    2148:	fef42223          	sw	a5,-28(s0)
    214c:	fe042423          	sw	zero,-24(s0)
    2150:	03c0006f          	j	218c <render_text_number+0xcc>
    2154:	0000f7b7          	lui	a5,0xf
    2158:	8c478713          	add	a4,a5,-1852 # e8c4 <game_int.0>
    215c:	fe842783          	lw	a5,-24(s0)
    2160:	00f707b3          	add	a5,a4,a5
    2164:	0007c503          	lbu	a0,0(a5)
    2168:	fe440793          	add	a5,s0,-28
    216c:	fda44603          	lbu	a2,-38(s0)
    2170:	fdb44583          	lbu	a1,-37(s0)
    2174:	fd042703          	lw	a4,-48(s0)
    2178:	fd442683          	lw	a3,-44(s0)
    217c:	83dff0ef          	jal	19b8 <render_character>
    2180:	fe842783          	lw	a5,-24(s0)
    2184:	00178793          	add	a5,a5,1
    2188:	fef42423          	sw	a5,-24(s0)
    218c:	0000f7b7          	lui	a5,0xf
    2190:	8c478713          	add	a4,a5,-1852 # e8c4 <game_int.0>
    2194:	fe842783          	lw	a5,-24(s0)
    2198:	00f707b3          	add	a5,a4,a5
    219c:	0007c783          	lbu	a5,0(a5)
    21a0:	fa079ae3          	bnez	a5,2154 <render_text_number+0x94>
    21a4:	fcc42783          	lw	a5,-52(s0)
    21a8:	00078863          	beqz	a5,21b8 <render_text_number+0xf8>
    21ac:	fe442703          	lw	a4,-28(s0)
    21b0:	fcc42783          	lw	a5,-52(s0)
    21b4:	00e7a023          	sw	a4,0(a5)
    21b8:	00000013          	nop
    21bc:	03c12083          	lw	ra,60(sp)
    21c0:	03812403          	lw	s0,56(sp)
    21c4:	04010113          	add	sp,sp,64
    21c8:	00008067          	ret

000021cc <render_text_clear>:
    21cc:	fc010113          	add	sp,sp,-64
    21d0:	02112e23          	sw	ra,60(sp)
    21d4:	02812c23          	sw	s0,56(sp)
    21d8:	04010413          	add	s0,sp,64
    21dc:	fca42e23          	sw	a0,-36(s0)
    21e0:	00058793          	mv	a5,a1
    21e4:	fcc42a23          	sw	a2,-44(s0)
    21e8:	fcd42823          	sw	a3,-48(s0)
    21ec:	fce42623          	sw	a4,-52(s0)
    21f0:	fcf40da3          	sb	a5,-37(s0)
    21f4:	fe042423          	sw	zero,-24(s0)
    21f8:	fcc42783          	lw	a5,-52(s0)
    21fc:	00078863          	beqz	a5,220c <render_text_clear+0x40>
    2200:	fcc42783          	lw	a5,-52(s0)
    2204:	0007a783          	lw	a5,0(a5)
    2208:	fef42423          	sw	a5,-24(s0)
    220c:	fe042623          	sw	zero,-20(s0)
    2210:	0380006f          	j	2248 <render_text_clear+0x7c>
    2214:	fec42783          	lw	a5,-20(s0)
    2218:	fdc42703          	lw	a4,-36(s0)
    221c:	00f707b3          	add	a5,a4,a5
    2220:	0007c783          	lbu	a5,0(a5)
    2224:	fe840713          	add	a4,s0,-24
    2228:	fdb44583          	lbu	a1,-37(s0)
    222c:	fd042683          	lw	a3,-48(s0)
    2230:	fd442603          	lw	a2,-44(s0)
    2234:	00078513          	mv	a0,a5
    2238:	bb1ff0ef          	jal	1de8 <clear_character>
    223c:	fec42783          	lw	a5,-20(s0)
    2240:	00178793          	add	a5,a5,1
    2244:	fef42623          	sw	a5,-20(s0)
    2248:	fec42783          	lw	a5,-20(s0)
    224c:	fdc42703          	lw	a4,-36(s0)
    2250:	00f707b3          	add	a5,a4,a5
    2254:	0007c783          	lbu	a5,0(a5)
    2258:	fa079ee3          	bnez	a5,2214 <render_text_clear+0x48>
    225c:	fcc42783          	lw	a5,-52(s0)
    2260:	00078863          	beqz	a5,2270 <render_text_clear+0xa4>
    2264:	fe842703          	lw	a4,-24(s0)
    2268:	fcc42783          	lw	a5,-52(s0)
    226c:	00e7a023          	sw	a4,0(a5)
    2270:	00000013          	nop
    2274:	03c12083          	lw	ra,60(sp)
    2278:	03812403          	lw	s0,56(sp)
    227c:	04010113          	add	sp,sp,64
    2280:	00008067          	ret

00002284 <render_text_width>:
    2284:	fd010113          	add	sp,sp,-48
    2288:	02812623          	sw	s0,44(sp)
    228c:	03010413          	add	s0,sp,48
    2290:	fca42e23          	sw	a0,-36(s0)
    2294:	fe042623          	sw	zero,-20(s0)
    2298:	fe042423          	sw	zero,-24(s0)
    229c:	0480006f          	j	22e4 <render_text_width+0x60>
    22a0:	fe842783          	lw	a5,-24(s0)
    22a4:	fdc42703          	lw	a4,-36(s0)
    22a8:	00f707b3          	add	a5,a4,a5
    22ac:	0007c783          	lbu	a5,0(a5)
    22b0:	00078693          	mv	a3,a5
    22b4:	000107b7          	lui	a5,0x10
    22b8:	44878713          	add	a4,a5,1096 # 10448 <glyphs_width>
    22bc:	00269793          	sll	a5,a3,0x2
    22c0:	00f707b3          	add	a5,a4,a5
    22c4:	0007a703          	lw	a4,0(a5)
    22c8:	fec42783          	lw	a5,-20(s0)
    22cc:	00f707b3          	add	a5,a4,a5
    22d0:	00178793          	add	a5,a5,1
    22d4:	fef42623          	sw	a5,-20(s0)
    22d8:	fe842783          	lw	a5,-24(s0)
    22dc:	00178793          	add	a5,a5,1
    22e0:	fef42423          	sw	a5,-24(s0)
    22e4:	fe842783          	lw	a5,-24(s0)
    22e8:	fdc42703          	lw	a4,-36(s0)
    22ec:	00f707b3          	add	a5,a4,a5
    22f0:	0007c783          	lbu	a5,0(a5)
    22f4:	fa0796e3          	bnez	a5,22a0 <render_text_width+0x1c>
    22f8:	fec42783          	lw	a5,-20(s0)
    22fc:	00078513          	mv	a0,a5
    2300:	02c12403          	lw	s0,44(sp)
    2304:	03010113          	add	sp,sp,48
    2308:	00008067          	ret

0000230c <render_background>:
    230c:	fd010113          	add	sp,sp,-48
    2310:	02112623          	sw	ra,44(sp)
    2314:	02812423          	sw	s0,40(sp)
    2318:	03010413          	add	s0,sp,48
    231c:	fca42e23          	sw	a0,-36(s0)
    2320:	fe042623          	sw	zero,-20(s0)
    2324:	0540006f          	j	2378 <render_background+0x6c>
    2328:	fe042423          	sw	zero,-24(s0)
    232c:	0340006f          	j	2360 <render_background+0x54>
    2330:	fdc42783          	lw	a5,-36(s0)
    2334:	fe842583          	lw	a1,-24(s0)
    2338:	fec42503          	lw	a0,-20(s0)
    233c:	000780e7          	jalr	a5
    2340:	00050793          	mv	a5,a0
    2344:	00078613          	mv	a2,a5
    2348:	fe842583          	lw	a1,-24(s0)
    234c:	fec42503          	lw	a0,-20(s0)
    2350:	f2cfe0ef          	jal	a7c <io_vga_set_pixel>
    2354:	fe842783          	lw	a5,-24(s0)
    2358:	00178793          	add	a5,a5,1
    235c:	fef42423          	sw	a5,-24(s0)
    2360:	fe842703          	lw	a4,-24(s0)
    2364:	0ef00793          	li	a5,239
    2368:	fce7d4e3          	bge	a5,a4,2330 <render_background+0x24>
    236c:	fec42783          	lw	a5,-20(s0)
    2370:	00178793          	add	a5,a5,1
    2374:	fef42623          	sw	a5,-20(s0)
    2378:	fec42703          	lw	a4,-20(s0)
    237c:	13f00793          	li	a5,319
    2380:	fae7d4e3          	bge	a5,a4,2328 <render_background+0x1c>
    2384:	00000013          	nop
    2388:	00000013          	nop
    238c:	02c12083          	lw	ra,44(sp)
    2390:	02812403          	lw	s0,40(sp)
    2394:	03010113          	add	sp,sp,48
    2398:	00008067          	ret

0000239c <render_background_solid>:
    239c:	fe010113          	add	sp,sp,-32
    23a0:	00112e23          	sw	ra,28(sp)
    23a4:	00812c23          	sw	s0,24(sp)
    23a8:	02010413          	add	s0,sp,32
    23ac:	00050793          	mv	a5,a0
    23b0:	fef407a3          	sb	a5,-17(s0)
    23b4:	fef44783          	lbu	a5,-17(s0)
    23b8:	00078713          	mv	a4,a5
    23bc:	0f000693          	li	a3,240
    23c0:	14000613          	li	a2,320
    23c4:	00000593          	li	a1,0
    23c8:	00000513          	li	a0,0
    23cc:	934ff0ef          	jal	1500 <render_rect_fill>
    23d0:	00000013          	nop
    23d4:	01c12083          	lw	ra,28(sp)
    23d8:	01812403          	lw	s0,24(sp)
    23dc:	02010113          	add	sp,sp,32
    23e0:	00008067          	ret

000023e4 <panic>:
    23e4:	fe010113          	add	sp,sp,-32
    23e8:	00812e23          	sw	s0,28(sp)
    23ec:	02010413          	add	s0,sp,32
    23f0:	fea42623          	sw	a0,-20(s0)
    23f4:	00000013          	nop
    23f8:	ffdff06f          	j	23f4 <panic+0x10>

000023fc <delay>:
    23fc:	fd010113          	add	sp,sp,-48
    2400:	02812623          	sw	s0,44(sp)
    2404:	03010413          	add	s0,sp,48
    2408:	fca42e23          	sw	a0,-36(s0)
    240c:	fe042623          	sw	zero,-20(s0)
    2410:	0100006f          	j	2420 <delay+0x24>
    2414:	fec42783          	lw	a5,-20(s0)
    2418:	00178793          	add	a5,a5,1
    241c:	fef42623          	sw	a5,-20(s0)
    2420:	fec42703          	lw	a4,-20(s0)
    2424:	fdc42783          	lw	a5,-36(s0)
    2428:	fef746e3          	blt	a4,a5,2414 <delay+0x18>
    242c:	00000013          	nop
    2430:	00000013          	nop
    2434:	02c12403          	lw	s0,44(sp)
    2438:	03010113          	add	sp,sp,48
    243c:	00008067          	ret

00002440 <long_long_popcount>:
    2440:	fd010113          	add	sp,sp,-48
    2444:	02812623          	sw	s0,44(sp)
    2448:	03010413          	add	s0,sp,48
    244c:	fca42c23          	sw	a0,-40(s0)
    2450:	fcb42e23          	sw	a1,-36(s0)
    2454:	fe042623          	sw	zero,-20(s0)
    2458:	fe042423          	sw	zero,-24(s0)
    245c:	0780006f          	j	24d4 <long_long_popcount+0x94>
    2460:	fe842683          	lw	a3,-24(s0)
    2464:	fe068693          	add	a3,a3,-32
    2468:	0006cc63          	bltz	a3,2480 <long_long_popcount+0x40>
    246c:	fdc42603          	lw	a2,-36(s0)
    2470:	40d65733          	sra	a4,a2,a3
    2474:	fdc42683          	lw	a3,-36(s0)
    2478:	41f6d793          	sra	a5,a3,0x1f
    247c:	0380006f          	j	24b4 <long_long_popcount+0x74>
    2480:	fdc42683          	lw	a3,-36(s0)
    2484:	00169613          	sll	a2,a3,0x1
    2488:	01f00593          	li	a1,31
    248c:	fe842683          	lw	a3,-24(s0)
    2490:	40d586b3          	sub	a3,a1,a3
    2494:	00d616b3          	sll	a3,a2,a3
    2498:	fe842603          	lw	a2,-24(s0)
    249c:	fd842583          	lw	a1,-40(s0)
    24a0:	00c5d733          	srl	a4,a1,a2
    24a4:	00e6e733          	or	a4,a3,a4
    24a8:	fe842683          	lw	a3,-24(s0)
    24ac:	fdc42603          	lw	a2,-36(s0)
    24b0:	40d657b3          	sra	a5,a2,a3
    24b4:	00070693          	mv	a3,a4
    24b8:	0016f693          	and	a3,a3,1
    24bc:	fec42603          	lw	a2,-20(s0)
    24c0:	00d606b3          	add	a3,a2,a3
    24c4:	fed42623          	sw	a3,-20(s0)
    24c8:	fe842683          	lw	a3,-24(s0)
    24cc:	00168693          	add	a3,a3,1
    24d0:	fed42423          	sw	a3,-24(s0)
    24d4:	fe842603          	lw	a2,-24(s0)
    24d8:	03f00693          	li	a3,63
    24dc:	f8c6d2e3          	bge	a3,a2,2460 <long_long_popcount+0x20>
    24e0:	fec42783          	lw	a5,-20(s0)
    24e4:	00078513          	mv	a0,a5
    24e8:	02c12403          	lw	s0,44(sp)
    24ec:	03010113          	add	sp,sp,48
    24f0:	00008067          	ret

000024f4 <clamp>:
    24f4:	fe010113          	add	sp,sp,-32
    24f8:	00812e23          	sw	s0,28(sp)
    24fc:	02010413          	add	s0,sp,32
    2500:	fea42623          	sw	a0,-20(s0)
    2504:	feb42423          	sw	a1,-24(s0)
    2508:	fec42223          	sw	a2,-28(s0)
    250c:	fec42703          	lw	a4,-20(s0)
    2510:	fe842783          	lw	a5,-24(s0)
    2514:	00f75663          	bge	a4,a5,2520 <clamp+0x2c>
    2518:	fe842783          	lw	a5,-24(s0)
    251c:	01c0006f          	j	2538 <clamp+0x44>
    2520:	fec42703          	lw	a4,-20(s0)
    2524:	fe442783          	lw	a5,-28(s0)
    2528:	00e7d663          	bge	a5,a4,2534 <clamp+0x40>
    252c:	fe442783          	lw	a5,-28(s0)
    2530:	0080006f          	j	2538 <clamp+0x44>
    2534:	fec42783          	lw	a5,-20(s0)
    2538:	00078513          	mv	a0,a5
    253c:	01c12403          	lw	s0,28(sp)
    2540:	02010113          	add	sp,sp,32
    2544:	00008067          	ret

00002548 <num_to_str>:
    2548:	fd010113          	add	sp,sp,-48
    254c:	02812623          	sw	s0,44(sp)
    2550:	03010413          	add	s0,sp,48
    2554:	fca42e23          	sw	a0,-36(s0)
    2558:	fcb42c23          	sw	a1,-40(s0)
    255c:	fe042623          	sw	zero,-20(s0)
    2560:	3b9ad7b7          	lui	a5,0x3b9ad
    2564:	a0078793          	add	a5,a5,-1536 # 3b9aca00 <_stack_end+0x3b89bab8>
    2568:	fef42423          	sw	a5,-24(s0)
    256c:	fe0403a3          	sb	zero,-25(s0)
    2570:	fdc42703          	lw	a4,-36(s0)
    2574:	fe842783          	lw	a5,-24(s0)
    2578:	02f757b3          	divu	a5,a4,a5
    257c:	fef42023          	sw	a5,-32(s0)
    2580:	fe042783          	lw	a5,-32(s0)
    2584:	00078663          	beqz	a5,2590 <num_to_str+0x48>
    2588:	00100793          	li	a5,1
    258c:	fef403a3          	sb	a5,-25(s0)
    2590:	fe744783          	lbu	a5,-25(s0)
    2594:	02078863          	beqz	a5,25c4 <num_to_str+0x7c>
    2598:	fe042783          	lw	a5,-32(s0)
    259c:	0ff7f713          	zext.b	a4,a5
    25a0:	fec42783          	lw	a5,-20(s0)
    25a4:	fd842683          	lw	a3,-40(s0)
    25a8:	00f687b3          	add	a5,a3,a5
    25ac:	03070713          	add	a4,a4,48
    25b0:	0ff77713          	zext.b	a4,a4
    25b4:	00e78023          	sb	a4,0(a5)
    25b8:	fec42783          	lw	a5,-20(s0)
    25bc:	00178793          	add	a5,a5,1
    25c0:	fef42623          	sw	a5,-20(s0)
    25c4:	fdc42703          	lw	a4,-36(s0)
    25c8:	fe042683          	lw	a3,-32(s0)
    25cc:	fe842783          	lw	a5,-24(s0)
    25d0:	02f687b3          	mul	a5,a3,a5
    25d4:	40f707b3          	sub	a5,a4,a5
    25d8:	fcf42e23          	sw	a5,-36(s0)
    25dc:	fe842703          	lw	a4,-24(s0)
    25e0:	00a00793          	li	a5,10
    25e4:	02f757b3          	divu	a5,a4,a5
    25e8:	fef42423          	sw	a5,-24(s0)
    25ec:	fe842783          	lw	a5,-24(s0)
    25f0:	f80790e3          	bnez	a5,2570 <num_to_str+0x28>
    25f4:	fe744783          	lbu	a5,-25(s0)
    25f8:	00079c63          	bnez	a5,2610 <num_to_str+0xc8>
    25fc:	fec42783          	lw	a5,-20(s0)
    2600:	fd842703          	lw	a4,-40(s0)
    2604:	00f707b3          	add	a5,a4,a5
    2608:	03000713          	li	a4,48
    260c:	00e78023          	sb	a4,0(a5)
    2610:	fec42783          	lw	a5,-20(s0)
    2614:	00178793          	add	a5,a5,1
    2618:	00078513          	mv	a0,a5
    261c:	02c12403          	lw	s0,44(sp)
    2620:	03010113          	add	sp,sp,48
    2624:	00008067          	ret

00002628 <shuffle>:
    2628:	fd010113          	add	sp,sp,-48
    262c:	02112623          	sw	ra,44(sp)
    2630:	02812423          	sw	s0,40(sp)
    2634:	03010413          	add	s0,sp,48
    2638:	fca42e23          	sw	a0,-36(s0)
    263c:	fcb42c23          	sw	a1,-40(s0)
    2640:	fd842703          	lw	a4,-40(s0)
    2644:	00100793          	li	a5,1
    2648:	0ae7fc63          	bgeu	a5,a4,2700 <shuffle+0xd8>
    264c:	fe042623          	sw	zero,-20(s0)
    2650:	0a00006f          	j	26f0 <shuffle+0xc8>
    2654:	cc1fd0ef          	jal	314 <rand>
    2658:	00050793          	mv	a5,a0
    265c:	00078693          	mv	a3,a5
    2660:	fd842703          	lw	a4,-40(s0)
    2664:	fec42783          	lw	a5,-20(s0)
    2668:	40f707b3          	sub	a5,a4,a5
    266c:	80000737          	lui	a4,0x80000
    2670:	fff70713          	add	a4,a4,-1 # 7fffffff <_stack_end+0x7feef0b7>
    2674:	02f757b3          	divu	a5,a4,a5
    2678:	00178793          	add	a5,a5,1
    267c:	02f6d7b3          	divu	a5,a3,a5
    2680:	fec42703          	lw	a4,-20(s0)
    2684:	00f707b3          	add	a5,a4,a5
    2688:	fef42423          	sw	a5,-24(s0)
    268c:	fe842783          	lw	a5,-24(s0)
    2690:	00279793          	sll	a5,a5,0x2
    2694:	fdc42703          	lw	a4,-36(s0)
    2698:	00f707b3          	add	a5,a4,a5
    269c:	0007a783          	lw	a5,0(a5)
    26a0:	fef42223          	sw	a5,-28(s0)
    26a4:	fec42783          	lw	a5,-20(s0)
    26a8:	00279793          	sll	a5,a5,0x2
    26ac:	fdc42703          	lw	a4,-36(s0)
    26b0:	00f70733          	add	a4,a4,a5
    26b4:	fe842783          	lw	a5,-24(s0)
    26b8:	00279793          	sll	a5,a5,0x2
    26bc:	fdc42683          	lw	a3,-36(s0)
    26c0:	00f687b3          	add	a5,a3,a5
    26c4:	00072703          	lw	a4,0(a4)
    26c8:	00e7a023          	sw	a4,0(a5)
    26cc:	fec42783          	lw	a5,-20(s0)
    26d0:	00279793          	sll	a5,a5,0x2
    26d4:	fdc42703          	lw	a4,-36(s0)
    26d8:	00f707b3          	add	a5,a4,a5
    26dc:	fe442703          	lw	a4,-28(s0)
    26e0:	00e7a023          	sw	a4,0(a5)
    26e4:	fec42783          	lw	a5,-20(s0)
    26e8:	00178793          	add	a5,a5,1
    26ec:	fef42623          	sw	a5,-20(s0)
    26f0:	fd842783          	lw	a5,-40(s0)
    26f4:	fff78793          	add	a5,a5,-1
    26f8:	fec42703          	lw	a4,-20(s0)
    26fc:	f4f76ce3          	bltu	a4,a5,2654 <shuffle+0x2c>
    2700:	00000013          	nop
    2704:	02c12083          	lw	ra,44(sp)
    2708:	02812403          	lw	s0,40(sp)
    270c:	03010113          	add	sp,sp,48
    2710:	00008067          	ret

00002714 <solitaire_card_rank_to_str>:
    2714:	fe010113          	add	sp,sp,-32
    2718:	00812e23          	sw	s0,28(sp)
    271c:	02010413          	add	s0,sp,32
    2720:	fea42623          	sw	a0,-20(s0)
    2724:	fec42703          	lw	a4,-20(s0)
    2728:	00d00793          	li	a5,13
    272c:	0ae7ee63          	bltu	a5,a4,27e8 <solitaire_card_rank_to_str+0xd4>
    2730:	fec42783          	lw	a5,-20(s0)
    2734:	00279713          	sll	a4,a5,0x2
    2738:	000107b7          	lui	a5,0x10
    273c:	69478793          	add	a5,a5,1684 # 10694 <glyphs_width+0x24c>
    2740:	00f707b3          	add	a5,a4,a5
    2744:	0007a783          	lw	a5,0(a5)
    2748:	00078067          	jr	a5
    274c:	000107b7          	lui	a5,0x10
    2750:	66078793          	add	a5,a5,1632 # 10660 <glyphs_width+0x218>
    2754:	0940006f          	j	27e8 <solitaire_card_rank_to_str+0xd4>
    2758:	000107b7          	lui	a5,0x10
    275c:	66478793          	add	a5,a5,1636 # 10664 <glyphs_width+0x21c>
    2760:	0880006f          	j	27e8 <solitaire_card_rank_to_str+0xd4>
    2764:	000107b7          	lui	a5,0x10
    2768:	66878793          	add	a5,a5,1640 # 10668 <glyphs_width+0x220>
    276c:	07c0006f          	j	27e8 <solitaire_card_rank_to_str+0xd4>
    2770:	000107b7          	lui	a5,0x10
    2774:	66c78793          	add	a5,a5,1644 # 1066c <glyphs_width+0x224>
    2778:	0700006f          	j	27e8 <solitaire_card_rank_to_str+0xd4>
    277c:	000107b7          	lui	a5,0x10
    2780:	67078793          	add	a5,a5,1648 # 10670 <glyphs_width+0x228>
    2784:	0640006f          	j	27e8 <solitaire_card_rank_to_str+0xd4>
    2788:	000107b7          	lui	a5,0x10
    278c:	67478793          	add	a5,a5,1652 # 10674 <glyphs_width+0x22c>
    2790:	0580006f          	j	27e8 <solitaire_card_rank_to_str+0xd4>
    2794:	000107b7          	lui	a5,0x10
    2798:	67878793          	add	a5,a5,1656 # 10678 <glyphs_width+0x230>
    279c:	04c0006f          	j	27e8 <solitaire_card_rank_to_str+0xd4>
    27a0:	000107b7          	lui	a5,0x10
    27a4:	67c78793          	add	a5,a5,1660 # 1067c <glyphs_width+0x234>
    27a8:	0400006f          	j	27e8 <solitaire_card_rank_to_str+0xd4>
    27ac:	000107b7          	lui	a5,0x10
    27b0:	68078793          	add	a5,a5,1664 # 10680 <glyphs_width+0x238>
    27b4:	0340006f          	j	27e8 <solitaire_card_rank_to_str+0xd4>
    27b8:	000107b7          	lui	a5,0x10
    27bc:	68478793          	add	a5,a5,1668 # 10684 <glyphs_width+0x23c>
    27c0:	0280006f          	j	27e8 <solitaire_card_rank_to_str+0xd4>
    27c4:	000107b7          	lui	a5,0x10
    27c8:	68878793          	add	a5,a5,1672 # 10688 <glyphs_width+0x240>
    27cc:	01c0006f          	j	27e8 <solitaire_card_rank_to_str+0xd4>
    27d0:	000107b7          	lui	a5,0x10
    27d4:	68c78793          	add	a5,a5,1676 # 1068c <glyphs_width+0x244>
    27d8:	0100006f          	j	27e8 <solitaire_card_rank_to_str+0xd4>
    27dc:	000107b7          	lui	a5,0x10
    27e0:	69078793          	add	a5,a5,1680 # 10690 <glyphs_width+0x248>
    27e4:	0040006f          	j	27e8 <solitaire_card_rank_to_str+0xd4>
    27e8:	00078513          	mv	a0,a5
    27ec:	01c12403          	lw	s0,28(sp)
    27f0:	02010113          	add	sp,sp,32
    27f4:	00008067          	ret

000027f8 <solitaire_suit_is_red>:
    27f8:	fe010113          	add	sp,sp,-32
    27fc:	00812e23          	sw	s0,28(sp)
    2800:	02010413          	add	s0,sp,32
    2804:	fea42623          	sw	a0,-20(s0)
    2808:	fec42783          	lw	a5,-20(s0)
    280c:	00078863          	beqz	a5,281c <solitaire_suit_is_red+0x24>
    2810:	fec42703          	lw	a4,-20(s0)
    2814:	00200793          	li	a5,2
    2818:	00f71663          	bne	a4,a5,2824 <solitaire_suit_is_red+0x2c>
    281c:	00100793          	li	a5,1
    2820:	0080006f          	j	2828 <solitaire_suit_is_red+0x30>
    2824:	00000793          	li	a5,0
    2828:	0017f793          	and	a5,a5,1
    282c:	0ff7f793          	zext.b	a5,a5
    2830:	00078513          	mv	a0,a5
    2834:	01c12403          	lw	s0,28(sp)
    2838:	02010113          	add	sp,sp,32
    283c:	00008067          	ret

00002840 <solitaire_init_deck>:
    2840:	fd010113          	add	sp,sp,-48
    2844:	02812623          	sw	s0,44(sp)
    2848:	03010413          	add	s0,sp,48
    284c:	fca42e23          	sw	a0,-36(s0)
    2850:	fe042623          	sw	zero,-20(s0)
    2854:	0a00006f          	j	28f4 <solitaire_init_deck+0xb4>
    2858:	fec42703          	lw	a4,-20(s0)
    285c:	00d00793          	li	a5,13
    2860:	02f767b3          	rem	a5,a4,a5
    2864:	00178693          	add	a3,a5,1
    2868:	fec42703          	lw	a4,-20(s0)
    286c:	00070793          	mv	a5,a4
    2870:	00179793          	sll	a5,a5,0x1
    2874:	00e787b3          	add	a5,a5,a4
    2878:	00279793          	sll	a5,a5,0x2
    287c:	00078713          	mv	a4,a5
    2880:	fdc42783          	lw	a5,-36(s0)
    2884:	00e787b3          	add	a5,a5,a4
    2888:	00068713          	mv	a4,a3
    288c:	00e7a223          	sw	a4,4(a5)
    2890:	fec42703          	lw	a4,-20(s0)
    2894:	00d00793          	li	a5,13
    2898:	02f746b3          	div	a3,a4,a5
    289c:	fec42703          	lw	a4,-20(s0)
    28a0:	00070793          	mv	a5,a4
    28a4:	00179793          	sll	a5,a5,0x1
    28a8:	00e787b3          	add	a5,a5,a4
    28ac:	00279793          	sll	a5,a5,0x2
    28b0:	00078713          	mv	a4,a5
    28b4:	fdc42783          	lw	a5,-36(s0)
    28b8:	00e787b3          	add	a5,a5,a4
    28bc:	00068713          	mv	a4,a3
    28c0:	00e7a023          	sw	a4,0(a5)
    28c4:	fec42703          	lw	a4,-20(s0)
    28c8:	00070793          	mv	a5,a4
    28cc:	00179793          	sll	a5,a5,0x1
    28d0:	00e787b3          	add	a5,a5,a4
    28d4:	00279793          	sll	a5,a5,0x2
    28d8:	00078713          	mv	a4,a5
    28dc:	fdc42783          	lw	a5,-36(s0)
    28e0:	00e787b3          	add	a5,a5,a4
    28e4:	00078423          	sb	zero,8(a5)
    28e8:	fec42783          	lw	a5,-20(s0)
    28ec:	00178793          	add	a5,a5,1
    28f0:	fef42623          	sw	a5,-20(s0)
    28f4:	fec42703          	lw	a4,-20(s0)
    28f8:	03300793          	li	a5,51
    28fc:	f4e7dee3          	bge	a5,a4,2858 <solitaire_init_deck+0x18>
    2900:	00000013          	nop
    2904:	00000013          	nop
    2908:	02c12403          	lw	s0,44(sp)
    290c:	03010113          	add	sp,sp,48
    2910:	00008067          	ret

00002914 <solitaire_shuffle_deck>:
    2914:	fc010113          	add	sp,sp,-64
    2918:	02112e23          	sw	ra,60(sp)
    291c:	02812c23          	sw	s0,56(sp)
    2920:	04010413          	add	s0,sp,64
    2924:	fca42623          	sw	a0,-52(s0)
    2928:	fe042623          	sw	zero,-20(s0)
    292c:	1000006f          	j	2a2c <solitaire_shuffle_deck+0x118>
    2930:	9e5fd0ef          	jal	314 <rand>
    2934:	00050693          	mv	a3,a0
    2938:	03300713          	li	a4,51
    293c:	fec42783          	lw	a5,-20(s0)
    2940:	40f707b3          	sub	a5,a4,a5
    2944:	02f6e733          	rem	a4,a3,a5
    2948:	fec42783          	lw	a5,-20(s0)
    294c:	00f707b3          	add	a5,a4,a5
    2950:	00178793          	add	a5,a5,1
    2954:	fef42423          	sw	a5,-24(s0)
    2958:	fec42703          	lw	a4,-20(s0)
    295c:	00070793          	mv	a5,a4
    2960:	00179793          	sll	a5,a5,0x1
    2964:	00e787b3          	add	a5,a5,a4
    2968:	00279793          	sll	a5,a5,0x2
    296c:	00078713          	mv	a4,a5
    2970:	fcc42783          	lw	a5,-52(s0)
    2974:	00e787b3          	add	a5,a5,a4
    2978:	0007a703          	lw	a4,0(a5)
    297c:	fce42e23          	sw	a4,-36(s0)
    2980:	0047a703          	lw	a4,4(a5)
    2984:	fee42023          	sw	a4,-32(s0)
    2988:	0087a783          	lw	a5,8(a5)
    298c:	fef42223          	sw	a5,-28(s0)
    2990:	fe842703          	lw	a4,-24(s0)
    2994:	00070793          	mv	a5,a4
    2998:	00179793          	sll	a5,a5,0x1
    299c:	00e787b3          	add	a5,a5,a4
    29a0:	00279793          	sll	a5,a5,0x2
    29a4:	00078713          	mv	a4,a5
    29a8:	fcc42783          	lw	a5,-52(s0)
    29ac:	00e78733          	add	a4,a5,a4
    29b0:	fec42683          	lw	a3,-20(s0)
    29b4:	00068793          	mv	a5,a3
    29b8:	00179793          	sll	a5,a5,0x1
    29bc:	00d787b3          	add	a5,a5,a3
    29c0:	00279793          	sll	a5,a5,0x2
    29c4:	00078693          	mv	a3,a5
    29c8:	fcc42783          	lw	a5,-52(s0)
    29cc:	00d787b3          	add	a5,a5,a3
    29d0:	00072683          	lw	a3,0(a4)
    29d4:	00d7a023          	sw	a3,0(a5)
    29d8:	00472683          	lw	a3,4(a4)
    29dc:	00d7a223          	sw	a3,4(a5)
    29e0:	00872703          	lw	a4,8(a4)
    29e4:	00e7a423          	sw	a4,8(a5)
    29e8:	fe842703          	lw	a4,-24(s0)
    29ec:	00070793          	mv	a5,a4
    29f0:	00179793          	sll	a5,a5,0x1
    29f4:	00e787b3          	add	a5,a5,a4
    29f8:	00279793          	sll	a5,a5,0x2
    29fc:	00078713          	mv	a4,a5
    2a00:	fcc42783          	lw	a5,-52(s0)
    2a04:	00e787b3          	add	a5,a5,a4
    2a08:	fdc42703          	lw	a4,-36(s0)
    2a0c:	00e7a023          	sw	a4,0(a5)
    2a10:	fe042703          	lw	a4,-32(s0)
    2a14:	00e7a223          	sw	a4,4(a5)
    2a18:	fe442703          	lw	a4,-28(s0)
    2a1c:	00e7a423          	sw	a4,8(a5)
    2a20:	fec42783          	lw	a5,-20(s0)
    2a24:	00178793          	add	a5,a5,1
    2a28:	fef42623          	sw	a5,-20(s0)
    2a2c:	fec42703          	lw	a4,-20(s0)
    2a30:	03200793          	li	a5,50
    2a34:	eee7dee3          	bge	a5,a4,2930 <solitaire_shuffle_deck+0x1c>
    2a38:	00000013          	nop
    2a3c:	00000013          	nop
    2a40:	03c12083          	lw	ra,60(sp)
    2a44:	03812403          	lw	s0,56(sp)
    2a48:	04010113          	add	sp,sp,64
    2a4c:	00008067          	ret

00002a50 <solitaire_new_game>:
    2a50:	fd010113          	add	sp,sp,-48
    2a54:	02112623          	sw	ra,44(sp)
    2a58:	02812423          	sw	s0,40(sp)
    2a5c:	03010413          	add	s0,sp,48
    2a60:	fca42e23          	sw	a0,-36(s0)
    2a64:	fdc42783          	lw	a5,-36(s0)
    2a68:	00078513          	mv	a0,a5
    2a6c:	dd5ff0ef          	jal	2840 <solitaire_init_deck>
    2a70:	fdc42783          	lw	a5,-36(s0)
    2a74:	00078513          	mv	a0,a5
    2a78:	e9dff0ef          	jal	2914 <solitaire_shuffle_deck>
    2a7c:	fdc42783          	lw	a5,-36(s0)
    2a80:	03400713          	li	a4,52
    2a84:	26e7a823          	sw	a4,624(a5)
    2a88:	fdc42783          	lw	a5,-36(s0)
    2a8c:	4e07a223          	sw	zero,1252(a5)
    2a90:	fdc42703          	lw	a4,-36(s0)
    2a94:	000017b7          	lui	a5,0x1
    2a98:	d1c78793          	add	a5,a5,-740 # d1c <render_sprite_width_8_height_8+0x8c>
    2a9c:	00f707b3          	add	a5,a4,a5
    2aa0:	01c00613          	li	a2,28
    2aa4:	00000593          	li	a1,0
    2aa8:	00078513          	mv	a0,a5
    2aac:	fd0fd0ef          	jal	27c <memset>
    2ab0:	fdc42703          	lw	a4,-36(s0)
    2ab4:	000017b7          	lui	a5,0x1
    2ab8:	00f707b3          	add	a5,a4,a5
    2abc:	d607a423          	sw	zero,-664(a5) # d68 <render_sprite_width_8_height_8+0xd8>
    2ac0:	fe042623          	sw	zero,-20(s0)
    2ac4:	0e80006f          	j	2bac <solitaire_new_game+0x15c>
    2ac8:	fe042423          	sw	zero,-24(s0)
    2acc:	0880006f          	j	2b54 <solitaire_new_game+0x104>
    2ad0:	fdc42783          	lw	a5,-36(s0)
    2ad4:	2707a783          	lw	a5,624(a5)
    2ad8:	fff78713          	add	a4,a5,-1
    2adc:	fdc42783          	lw	a5,-36(s0)
    2ae0:	26e7a823          	sw	a4,624(a5)
    2ae4:	fdc42783          	lw	a5,-36(s0)
    2ae8:	2707a683          	lw	a3,624(a5)
    2aec:	fdc42603          	lw	a2,-36(s0)
    2af0:	fe842703          	lw	a4,-24(s0)
    2af4:	fec42583          	lw	a1,-20(s0)
    2af8:	00070793          	mv	a5,a4
    2afc:	00179793          	sll	a5,a5,0x1
    2b00:	00e787b3          	add	a5,a5,a4
    2b04:	00279793          	sll	a5,a5,0x2
    2b08:	12c00713          	li	a4,300
    2b0c:	02e58733          	mul	a4,a1,a4
    2b10:	00e78733          	add	a4,a5,a4
    2b14:	00e60733          	add	a4,a2,a4
    2b18:	fdc42603          	lw	a2,-36(s0)
    2b1c:	00068793          	mv	a5,a3
    2b20:	00179793          	sll	a5,a5,0x1
    2b24:	00d787b3          	add	a5,a5,a3
    2b28:	00279793          	sll	a5,a5,0x2
    2b2c:	00f607b3          	add	a5,a2,a5
    2b30:	0007a683          	lw	a3,0(a5)
    2b34:	4ed72423          	sw	a3,1256(a4)
    2b38:	0047a683          	lw	a3,4(a5)
    2b3c:	4ed72623          	sw	a3,1260(a4)
    2b40:	0087a783          	lw	a5,8(a5)
    2b44:	4ef72823          	sw	a5,1264(a4)
    2b48:	fe842783          	lw	a5,-24(s0)
    2b4c:	00178793          	add	a5,a5,1
    2b50:	fef42423          	sw	a5,-24(s0)
    2b54:	fe842703          	lw	a4,-24(s0)
    2b58:	fec42783          	lw	a5,-20(s0)
    2b5c:	f6f74ae3          	blt	a4,a5,2ad0 <solitaire_new_game+0x80>
    2b60:	fec42783          	lw	a5,-20(s0)
    2b64:	00178793          	add	a5,a5,1
    2b68:	00078693          	mv	a3,a5
    2b6c:	fdc42703          	lw	a4,-36(s0)
    2b70:	fec42783          	lw	a5,-20(s0)
    2b74:	34478793          	add	a5,a5,836
    2b78:	00279793          	sll	a5,a5,0x2
    2b7c:	00f707b3          	add	a5,a4,a5
    2b80:	00d7a623          	sw	a3,12(a5)
    2b84:	fdc42703          	lw	a4,-36(s0)
    2b88:	fec42683          	lw	a3,-20(s0)
    2b8c:	13800793          	li	a5,312
    2b90:	02f687b3          	mul	a5,a3,a5
    2b94:	00f707b3          	add	a5,a4,a5
    2b98:	00100713          	li	a4,1
    2b9c:	4ee78823          	sb	a4,1264(a5)
    2ba0:	fec42783          	lw	a5,-20(s0)
    2ba4:	00178793          	add	a5,a5,1
    2ba8:	fef42623          	sw	a5,-20(s0)
    2bac:	fec42703          	lw	a4,-20(s0)
    2bb0:	00600793          	li	a5,6
    2bb4:	f0e7dae3          	bge	a5,a4,2ac8 <solitaire_new_game+0x78>
    2bb8:	00000013          	nop
    2bbc:	00000013          	nop
    2bc0:	02c12083          	lw	ra,44(sp)
    2bc4:	02812403          	lw	s0,40(sp)
    2bc8:	03010113          	add	sp,sp,48
    2bcc:	00008067          	ret

00002bd0 <solitaire_move_top_card_to_discard>:
    2bd0:	fe010113          	add	sp,sp,-32
    2bd4:	00112e23          	sw	ra,28(sp)
    2bd8:	00812c23          	sw	s0,24(sp)
    2bdc:	02010413          	add	s0,sp,32
    2be0:	fea42623          	sw	a0,-20(s0)
    2be4:	fec42783          	lw	a5,-20(s0)
    2be8:	2707a783          	lw	a5,624(a5)
    2bec:	00079863          	bnez	a5,2bfc <solitaire_move_top_card_to_discard+0x2c>
    2bf0:	000107b7          	lui	a5,0x10
    2bf4:	6cc78513          	add	a0,a5,1740 # 106cc <glyphs_width+0x284>
    2bf8:	fecff0ef          	jal	23e4 <panic>
    2bfc:	fec42783          	lw	a5,-20(s0)
    2c00:	2707a783          	lw	a5,624(a5)
    2c04:	fff78713          	add	a4,a5,-1
    2c08:	fec42783          	lw	a5,-20(s0)
    2c0c:	26e7a823          	sw	a4,624(a5)
    2c10:	fec42783          	lw	a5,-20(s0)
    2c14:	2707a683          	lw	a3,624(a5)
    2c18:	fec42783          	lw	a5,-20(s0)
    2c1c:	4e47a703          	lw	a4,1252(a5)
    2c20:	fec42603          	lw	a2,-20(s0)
    2c24:	00070793          	mv	a5,a4
    2c28:	00179793          	sll	a5,a5,0x1
    2c2c:	00e787b3          	add	a5,a5,a4
    2c30:	00279793          	sll	a5,a5,0x2
    2c34:	00f60733          	add	a4,a2,a5
    2c38:	fec42603          	lw	a2,-20(s0)
    2c3c:	00068793          	mv	a5,a3
    2c40:	00179793          	sll	a5,a5,0x1
    2c44:	00d787b3          	add	a5,a5,a3
    2c48:	00279793          	sll	a5,a5,0x2
    2c4c:	00f607b3          	add	a5,a2,a5
    2c50:	0007a683          	lw	a3,0(a5)
    2c54:	26d72a23          	sw	a3,628(a4)
    2c58:	0047a683          	lw	a3,4(a5)
    2c5c:	26d72c23          	sw	a3,632(a4)
    2c60:	0087a783          	lw	a5,8(a5)
    2c64:	26f72e23          	sw	a5,636(a4)
    2c68:	fec42783          	lw	a5,-20(s0)
    2c6c:	4e47a783          	lw	a5,1252(a5)
    2c70:	00178713          	add	a4,a5,1
    2c74:	fec42783          	lw	a5,-20(s0)
    2c78:	4ee7a223          	sw	a4,1252(a5)
    2c7c:	00000013          	nop
    2c80:	01c12083          	lw	ra,28(sp)
    2c84:	01812403          	lw	s0,24(sp)
    2c88:	02010113          	add	sp,sp,32
    2c8c:	00008067          	ret

00002c90 <solitaire_move_discard_back_to_deck>:
    2c90:	fd010113          	add	sp,sp,-48
    2c94:	02812623          	sw	s0,44(sp)
    2c98:	03010413          	add	s0,sp,48
    2c9c:	fca42e23          	sw	a0,-36(s0)
    2ca0:	fe042623          	sw	zero,-20(s0)
    2ca4:	0780006f          	j	2d1c <solitaire_move_discard_back_to_deck+0x8c>
    2ca8:	fdc42783          	lw	a5,-36(s0)
    2cac:	2707a703          	lw	a4,624(a5)
    2cb0:	fdc42683          	lw	a3,-36(s0)
    2cb4:	00070793          	mv	a5,a4
    2cb8:	00179793          	sll	a5,a5,0x1
    2cbc:	00e787b3          	add	a5,a5,a4
    2cc0:	00279793          	sll	a5,a5,0x2
    2cc4:	00f68733          	add	a4,a3,a5
    2cc8:	fdc42603          	lw	a2,-36(s0)
    2ccc:	fec42683          	lw	a3,-20(s0)
    2cd0:	00068793          	mv	a5,a3
    2cd4:	00179793          	sll	a5,a5,0x1
    2cd8:	00d787b3          	add	a5,a5,a3
    2cdc:	00279793          	sll	a5,a5,0x2
    2ce0:	00f607b3          	add	a5,a2,a5
    2ce4:	2747a683          	lw	a3,628(a5)
    2ce8:	00d72023          	sw	a3,0(a4)
    2cec:	2787a683          	lw	a3,632(a5)
    2cf0:	00d72223          	sw	a3,4(a4)
    2cf4:	27c7a783          	lw	a5,636(a5)
    2cf8:	00f72423          	sw	a5,8(a4)
    2cfc:	fdc42783          	lw	a5,-36(s0)
    2d00:	2707a783          	lw	a5,624(a5)
    2d04:	00178713          	add	a4,a5,1
    2d08:	fdc42783          	lw	a5,-36(s0)
    2d0c:	26e7a823          	sw	a4,624(a5)
    2d10:	fec42783          	lw	a5,-20(s0)
    2d14:	00178793          	add	a5,a5,1
    2d18:	fef42623          	sw	a5,-20(s0)
    2d1c:	fdc42783          	lw	a5,-36(s0)
    2d20:	4e47a703          	lw	a4,1252(a5)
    2d24:	fec42783          	lw	a5,-20(s0)
    2d28:	f8e7e0e3          	bltu	a5,a4,2ca8 <solitaire_move_discard_back_to_deck+0x18>
    2d2c:	fdc42783          	lw	a5,-36(s0)
    2d30:	4e07a223          	sw	zero,1252(a5)
    2d34:	00000013          	nop
    2d38:	02c12403          	lw	s0,44(sp)
    2d3c:	03010113          	add	sp,sp,48
    2d40:	00008067          	ret

00002d44 <solitaire_handle_interrupt>:
    2d44:	fd010113          	add	sp,sp,-48
    2d48:	02112623          	sw	ra,44(sp)
    2d4c:	02812423          	sw	s0,40(sp)
    2d50:	03010413          	add	s0,sp,48
    2d54:	fca42e23          	sw	a0,-36(s0)
    2d58:	fdc42703          	lw	a4,-36(s0)
    2d5c:	01100793          	li	a5,17
    2d60:	02f71663          	bne	a4,a5,2d8c <solitaire_handle_interrupt+0x48>
    2d64:	000027b7          	lui	a5,0x2
    2d68:	71078513          	add	a0,a5,1808 # 2710 <shuffle+0xe8>
    2d6c:	e90ff0ef          	jal	23fc <delay>
    2d70:	c8dfd0ef          	jal	9fc <io_switch>
    2d74:	fea42623          	sw	a0,-20(s0)
    2d78:	fec42783          	lw	a5,-20(s0)
    2d7c:	2007f793          	and	a5,a5,512
    2d80:	00078a63          	beqz	a5,2d94 <solitaire_handle_interrupt+0x50>
    2d84:	00100793          	li	a5,1
    2d88:	0140006f          	j	2d9c <solitaire_handle_interrupt+0x58>
    2d8c:	00000013          	nop
    2d90:	0080006f          	j	2d98 <solitaire_handle_interrupt+0x54>
    2d94:	00000013          	nop
    2d98:	00000793          	li	a5,0
    2d9c:	00078513          	mv	a0,a5
    2da0:	02c12083          	lw	ra,44(sp)
    2da4:	02812403          	lw	s0,40(sp)
    2da8:	03010113          	add	sp,sp,48
    2dac:	00008067          	ret

00002db0 <solitaire_handler_reset>:
    2db0:	ff010113          	add	sp,sp,-16
    2db4:	00812623          	sw	s0,12(sp)
    2db8:	01010413          	add	s0,sp,16
    2dbc:	0000f7b7          	lui	a5,0xf
    2dc0:	8e07a223          	sw	zero,-1820(a5) # e8e4 <has_rendered>
    2dc4:	00000013          	nop
    2dc8:	00c12403          	lw	s0,12(sp)
    2dcc:	01010113          	add	sp,sp,16
    2dd0:	00008067          	ret

00002dd4 <solitaire_handler_render>:
    2dd4:	ff010113          	add	sp,sp,-16
    2dd8:	00112623          	sw	ra,12(sp)
    2ddc:	00812423          	sw	s0,8(sp)
    2de0:	01010413          	add	s0,sp,16
    2de4:	0000f7b7          	lui	a5,0xf
    2de8:	8e47a783          	lw	a5,-1820(a5) # e8e4 <has_rendered>
    2dec:	00079a63          	bnez	a5,2e00 <solitaire_handler_render+0x2c>
    2df0:	63c000ef          	jal	342c <solitaire_render>
    2df4:	0000f7b7          	lui	a5,0xf
    2df8:	00100713          	li	a4,1
    2dfc:	8ee7a223          	sw	a4,-1820(a5) # e8e4 <has_rendered>
    2e00:	00000013          	nop
    2e04:	00c12083          	lw	ra,12(sp)
    2e08:	00812403          	lw	s0,8(sp)
    2e0c:	01010113          	add	sp,sp,16
    2e10:	00008067          	ret

00002e14 <render_16x16_suit_sprite>:
    2e14:	fd010113          	add	sp,sp,-48
    2e18:	02112623          	sw	ra,44(sp)
    2e1c:	02812423          	sw	s0,40(sp)
    2e20:	03010413          	add	s0,sp,48
    2e24:	fca42e23          	sw	a0,-36(s0)
    2e28:	fcb42c23          	sw	a1,-40(s0)
    2e2c:	fcc42a23          	sw	a2,-44(s0)
    2e30:	00068793          	mv	a5,a3
    2e34:	fcf409a3          	sb	a5,-45(s0)
    2e38:	fd442703          	lw	a4,-44(s0)
    2e3c:	00300793          	li	a5,3
    2e40:	0af70c63          	beq	a4,a5,2ef8 <render_16x16_suit_sprite+0xe4>
    2e44:	fd442703          	lw	a4,-44(s0)
    2e48:	00300793          	li	a5,3
    2e4c:	0ce7ea63          	bltu	a5,a4,2f20 <render_16x16_suit_sprite+0x10c>
    2e50:	fd442703          	lw	a4,-44(s0)
    2e54:	00200793          	li	a5,2
    2e58:	02f70463          	beq	a4,a5,2e80 <render_16x16_suit_sprite+0x6c>
    2e5c:	fd442703          	lw	a4,-44(s0)
    2e60:	00200793          	li	a5,2
    2e64:	0ae7ee63          	bltu	a5,a4,2f20 <render_16x16_suit_sprite+0x10c>
    2e68:	fd442783          	lw	a5,-44(s0)
    2e6c:	06078263          	beqz	a5,2ed0 <render_16x16_suit_sprite+0xbc>
    2e70:	fd442703          	lw	a4,-44(s0)
    2e74:	00100793          	li	a5,1
    2e78:	02f70863          	beq	a4,a5,2ea8 <render_16x16_suit_sprite+0x94>
    2e7c:	0a40006f          	j	2f20 <render_16x16_suit_sprite+0x10c>
    2e80:	fd344783          	lbu	a5,-45(s0)
    2e84:	fef40623          	sb	a5,-20(s0)
    2e88:	fec40793          	add	a5,s0,-20
    2e8c:	00100713          	li	a4,1
    2e90:	00078693          	mv	a3,a5
    2e94:	00900613          	li	a2,9
    2e98:	fd842583          	lw	a1,-40(s0)
    2e9c:	fdc42503          	lw	a0,-36(s0)
    2ea0:	fa1fd0ef          	jal	e40 <render_sprite>
    2ea4:	07c0006f          	j	2f20 <render_16x16_suit_sprite+0x10c>
    2ea8:	fd344783          	lbu	a5,-45(s0)
    2eac:	fef40423          	sb	a5,-24(s0)
    2eb0:	fe840793          	add	a5,s0,-24
    2eb4:	00100713          	li	a4,1
    2eb8:	00078693          	mv	a3,a5
    2ebc:	00c00613          	li	a2,12
    2ec0:	fd842583          	lw	a1,-40(s0)
    2ec4:	fdc42503          	lw	a0,-36(s0)
    2ec8:	f79fd0ef          	jal	e40 <render_sprite>
    2ecc:	0540006f          	j	2f20 <render_16x16_suit_sprite+0x10c>
    2ed0:	fd344783          	lbu	a5,-45(s0)
    2ed4:	fef40223          	sb	a5,-28(s0)
    2ed8:	fe440793          	add	a5,s0,-28
    2edc:	00100713          	li	a4,1
    2ee0:	00078693          	mv	a3,a5
    2ee4:	00800613          	li	a2,8
    2ee8:	fd842583          	lw	a1,-40(s0)
    2eec:	fdc42503          	lw	a0,-36(s0)
    2ef0:	f51fd0ef          	jal	e40 <render_sprite>
    2ef4:	02c0006f          	j	2f20 <render_16x16_suit_sprite+0x10c>
    2ef8:	fd344783          	lbu	a5,-45(s0)
    2efc:	fef40023          	sb	a5,-32(s0)
    2f00:	fe040793          	add	a5,s0,-32
    2f04:	00100713          	li	a4,1
    2f08:	00078693          	mv	a3,a5
    2f0c:	00000613          	li	a2,0
    2f10:	fd842583          	lw	a1,-40(s0)
    2f14:	fdc42503          	lw	a0,-36(s0)
    2f18:	f29fd0ef          	jal	e40 <render_sprite>
    2f1c:	00000013          	nop
    2f20:	00000013          	nop
    2f24:	02c12083          	lw	ra,44(sp)
    2f28:	02812403          	lw	s0,40(sp)
    2f2c:	03010113          	add	sp,sp,48
    2f30:	00008067          	ret

00002f34 <render_card_border>:
    2f34:	fe010113          	add	sp,sp,-32
    2f38:	00112e23          	sw	ra,28(sp)
    2f3c:	00812c23          	sw	s0,24(sp)
    2f40:	02010413          	add	s0,sp,32
    2f44:	fea42623          	sw	a0,-20(s0)
    2f48:	feb42423          	sw	a1,-24(s0)
    2f4c:	00060793          	mv	a5,a2
    2f50:	fef403a3          	sb	a5,-25(s0)
    2f54:	fec42783          	lw	a5,-20(s0)
    2f58:	00278513          	add	a0,a5,2
    2f5c:	01e00713          	li	a4,30
    2f60:	fec42783          	lw	a5,-20(s0)
    2f64:	00f707b3          	add	a5,a4,a5
    2f68:	ffd78793          	add	a5,a5,-3
    2f6c:	fe744703          	lbu	a4,-25(s0)
    2f70:	fe842683          	lw	a3,-24(s0)
    2f74:	00078613          	mv	a2,a5
    2f78:	fe842583          	lw	a1,-24(s0)
    2f7c:	b60fe0ef          	jal	12dc <render_line>
    2f80:	fec42783          	lw	a5,-20(s0)
    2f84:	00278513          	add	a0,a5,2
    2f88:	02800713          	li	a4,40
    2f8c:	fe842783          	lw	a5,-24(s0)
    2f90:	00f707b3          	add	a5,a4,a5
    2f94:	fff78593          	add	a1,a5,-1
    2f98:	01e00713          	li	a4,30
    2f9c:	fec42783          	lw	a5,-20(s0)
    2fa0:	00f707b3          	add	a5,a4,a5
    2fa4:	ffd78613          	add	a2,a5,-3
    2fa8:	02800713          	li	a4,40
    2fac:	fe842783          	lw	a5,-24(s0)
    2fb0:	00f707b3          	add	a5,a4,a5
    2fb4:	fff78793          	add	a5,a5,-1
    2fb8:	fe744703          	lbu	a4,-25(s0)
    2fbc:	00078693          	mv	a3,a5
    2fc0:	b1cfe0ef          	jal	12dc <render_line>
    2fc4:	fe842783          	lw	a5,-24(s0)
    2fc8:	00278593          	add	a1,a5,2
    2fcc:	02800713          	li	a4,40
    2fd0:	fe842783          	lw	a5,-24(s0)
    2fd4:	00f707b3          	add	a5,a4,a5
    2fd8:	ffd78793          	add	a5,a5,-3
    2fdc:	fe744703          	lbu	a4,-25(s0)
    2fe0:	00078693          	mv	a3,a5
    2fe4:	fec42603          	lw	a2,-20(s0)
    2fe8:	fec42503          	lw	a0,-20(s0)
    2fec:	af0fe0ef          	jal	12dc <render_line>
    2ff0:	01e00713          	li	a4,30
    2ff4:	fec42783          	lw	a5,-20(s0)
    2ff8:	00f707b3          	add	a5,a4,a5
    2ffc:	fff78513          	add	a0,a5,-1
    3000:	fe842783          	lw	a5,-24(s0)
    3004:	00278593          	add	a1,a5,2
    3008:	01e00713          	li	a4,30
    300c:	fec42783          	lw	a5,-20(s0)
    3010:	00f707b3          	add	a5,a4,a5
    3014:	fff78613          	add	a2,a5,-1
    3018:	02800713          	li	a4,40
    301c:	fe842783          	lw	a5,-24(s0)
    3020:	00f707b3          	add	a5,a4,a5
    3024:	ffd78793          	add	a5,a5,-3
    3028:	fe744703          	lbu	a4,-25(s0)
    302c:	00078693          	mv	a3,a5
    3030:	aacfe0ef          	jal	12dc <render_line>
    3034:	fec42783          	lw	a5,-20(s0)
    3038:	00178713          	add	a4,a5,1
    303c:	fe842783          	lw	a5,-24(s0)
    3040:	00178793          	add	a5,a5,1
    3044:	fe744683          	lbu	a3,-25(s0)
    3048:	00068613          	mv	a2,a3
    304c:	00078593          	mv	a1,a5
    3050:	00070513          	mv	a0,a4
    3054:	a29fd0ef          	jal	a7c <io_vga_set_pixel>
    3058:	01e00713          	li	a4,30
    305c:	fec42783          	lw	a5,-20(s0)
    3060:	00f707b3          	add	a5,a4,a5
    3064:	ffe78713          	add	a4,a5,-2
    3068:	fe842783          	lw	a5,-24(s0)
    306c:	00178793          	add	a5,a5,1
    3070:	fe744683          	lbu	a3,-25(s0)
    3074:	00068613          	mv	a2,a3
    3078:	00078593          	mv	a1,a5
    307c:	00070513          	mv	a0,a4
    3080:	9fdfd0ef          	jal	a7c <io_vga_set_pixel>
    3084:	fec42783          	lw	a5,-20(s0)
    3088:	00178693          	add	a3,a5,1
    308c:	02800713          	li	a4,40
    3090:	fe842783          	lw	a5,-24(s0)
    3094:	00f707b3          	add	a5,a4,a5
    3098:	ffe78793          	add	a5,a5,-2
    309c:	fe744703          	lbu	a4,-25(s0)
    30a0:	00070613          	mv	a2,a4
    30a4:	00078593          	mv	a1,a5
    30a8:	00068513          	mv	a0,a3
    30ac:	9d1fd0ef          	jal	a7c <io_vga_set_pixel>
    30b0:	01e00713          	li	a4,30
    30b4:	fec42783          	lw	a5,-20(s0)
    30b8:	00f707b3          	add	a5,a4,a5
    30bc:	ffe78693          	add	a3,a5,-2
    30c0:	02800713          	li	a4,40
    30c4:	fe842783          	lw	a5,-24(s0)
    30c8:	00f707b3          	add	a5,a4,a5
    30cc:	ffe78793          	add	a5,a5,-2
    30d0:	fe744703          	lbu	a4,-25(s0)
    30d4:	00070613          	mv	a2,a4
    30d8:	00078593          	mv	a1,a5
    30dc:	00068513          	mv	a0,a3
    30e0:	99dfd0ef          	jal	a7c <io_vga_set_pixel>
    30e4:	00000013          	nop
    30e8:	01c12083          	lw	ra,28(sp)
    30ec:	01812403          	lw	s0,24(sp)
    30f0:	02010113          	add	sp,sp,32
    30f4:	00008067          	ret

000030f8 <render_card_fill>:
    30f8:	fe010113          	add	sp,sp,-32
    30fc:	00112e23          	sw	ra,28(sp)
    3100:	00812c23          	sw	s0,24(sp)
    3104:	02010413          	add	s0,sp,32
    3108:	fea42623          	sw	a0,-20(s0)
    310c:	feb42423          	sw	a1,-24(s0)
    3110:	00060793          	mv	a5,a2
    3114:	fef403a3          	sb	a5,-25(s0)
    3118:	fec42783          	lw	a5,-20(s0)
    311c:	00278513          	add	a0,a5,2
    3120:	fe842783          	lw	a5,-24(s0)
    3124:	00178593          	add	a1,a5,1
    3128:	01e00713          	li	a4,30
    312c:	fec42783          	lw	a5,-20(s0)
    3130:	00f707b3          	add	a5,a4,a5
    3134:	ffd78613          	add	a2,a5,-3
    3138:	fe842783          	lw	a5,-24(s0)
    313c:	00178793          	add	a5,a5,1
    3140:	fe744703          	lbu	a4,-25(s0)
    3144:	00078693          	mv	a3,a5
    3148:	994fe0ef          	jal	12dc <render_line>
    314c:	fec42783          	lw	a5,-20(s0)
    3150:	00278513          	add	a0,a5,2
    3154:	02800713          	li	a4,40
    3158:	fe842783          	lw	a5,-24(s0)
    315c:	00f707b3          	add	a5,a4,a5
    3160:	ffe78593          	add	a1,a5,-2
    3164:	01e00713          	li	a4,30
    3168:	fec42783          	lw	a5,-20(s0)
    316c:	00f707b3          	add	a5,a4,a5
    3170:	ffd78613          	add	a2,a5,-3
    3174:	02800713          	li	a4,40
    3178:	fe842783          	lw	a5,-24(s0)
    317c:	00f707b3          	add	a5,a4,a5
    3180:	ffe78793          	add	a5,a5,-2
    3184:	fe744703          	lbu	a4,-25(s0)
    3188:	00078693          	mv	a3,a5
    318c:	950fe0ef          	jal	12dc <render_line>
    3190:	fec42783          	lw	a5,-20(s0)
    3194:	00178513          	add	a0,a5,1
    3198:	fe842783          	lw	a5,-24(s0)
    319c:	00278593          	add	a1,a5,2
    31a0:	01e00793          	li	a5,30
    31a4:	ffe78613          	add	a2,a5,-2
    31a8:	02800793          	li	a5,40
    31ac:	ffc78793          	add	a5,a5,-4
    31b0:	fe744703          	lbu	a4,-25(s0)
    31b4:	00078693          	mv	a3,a5
    31b8:	b48fe0ef          	jal	1500 <render_rect_fill>
    31bc:	00000013          	nop
    31c0:	01c12083          	lw	ra,28(sp)
    31c4:	01812403          	lw	s0,24(sp)
    31c8:	02010113          	add	sp,sp,32
    31cc:	00008067          	ret

000031d0 <render_card_raw>:
    31d0:	fc010113          	add	sp,sp,-64
    31d4:	02112e23          	sw	ra,60(sp)
    31d8:	02812c23          	sw	s0,56(sp)
    31dc:	04010413          	add	s0,sp,64
    31e0:	fca42e23          	sw	a0,-36(s0)
    31e4:	fcb42c23          	sw	a1,-40(s0)
    31e8:	fcc42a23          	sw	a2,-44(s0)
    31ec:	fcd42823          	sw	a3,-48(s0)
    31f0:	00070793          	mv	a5,a4
    31f4:	fcf407a3          	sb	a5,-49(s0)
    31f8:	fcf44783          	lbu	a5,-49(s0)
    31fc:	00078663          	beqz	a5,3208 <render_card_raw+0x38>
    3200:	0b700793          	li	a5,183
    3204:	0080006f          	j	320c <render_card_raw+0x3c>
    3208:	0ff00793          	li	a5,255
    320c:	fef407a3          	sb	a5,-17(s0)
    3210:	fcf44783          	lbu	a5,-49(s0)
    3214:	00078663          	beqz	a5,3220 <render_card_raw+0x50>
    3218:	0ff00793          	li	a5,255
    321c:	0080006f          	j	3224 <render_card_raw+0x54>
    3220:	0a000793          	li	a5,160
    3224:	fef40723          	sb	a5,-18(s0)
    3228:	fef44783          	lbu	a5,-17(s0)
    322c:	00078613          	mv	a2,a5
    3230:	fd842583          	lw	a1,-40(s0)
    3234:	fdc42503          	lw	a0,-36(s0)
    3238:	cfdff0ef          	jal	2f34 <render_card_border>
    323c:	fee44783          	lbu	a5,-18(s0)
    3240:	00078613          	mv	a2,a5
    3244:	fd842583          	lw	a1,-40(s0)
    3248:	fdc42503          	lw	a0,-36(s0)
    324c:	eadff0ef          	jal	30f8 <render_card_fill>
    3250:	fcf44783          	lbu	a5,-49(s0)
    3254:	10078863          	beqz	a5,3364 <render_card_raw+0x194>
    3258:	fd042503          	lw	a0,-48(s0)
    325c:	d9cff0ef          	jal	27f8 <solitaire_suit_is_red>
    3260:	00050793          	mv	a5,a0
    3264:	00078663          	beqz	a5,3270 <render_card_raw+0xa0>
    3268:	0e000793          	li	a5,224
    326c:	0080006f          	j	3274 <render_card_raw+0xa4>
    3270:	00000793          	li	a5,0
    3274:	fef406a3          	sb	a5,-19(s0)
    3278:	fd442503          	lw	a0,-44(s0)
    327c:	c98ff0ef          	jal	2714 <solitaire_card_rank_to_str>
    3280:	fea42423          	sw	a0,-24(s0)
    3284:	fe842503          	lw	a0,-24(s0)
    3288:	ffdfe0ef          	jal	2284 <render_text_width>
    328c:	fea42223          	sw	a0,-28(s0)
    3290:	fdc42783          	lw	a5,-36(s0)
    3294:	00478693          	add	a3,a5,4
    3298:	fd842783          	lw	a5,-40(s0)
    329c:	00278713          	add	a4,a5,2
    32a0:	fee44603          	lbu	a2,-18(s0)
    32a4:	fed44583          	lbu	a1,-19(s0)
    32a8:	00000793          	li	a5,0
    32ac:	fe842503          	lw	a0,-24(s0)
    32b0:	c6dfe0ef          	jal	1f1c <render_text>
    32b4:	01e00713          	li	a4,30
    32b8:	fdc42783          	lw	a5,-36(s0)
    32bc:	00f707b3          	add	a5,a4,a5
    32c0:	ffd78713          	add	a4,a5,-3
    32c4:	fe442783          	lw	a5,-28(s0)
    32c8:	40f706b3          	sub	a3,a4,a5
    32cc:	02800713          	li	a4,40
    32d0:	fd842783          	lw	a5,-40(s0)
    32d4:	00f707b3          	add	a5,a4,a5
    32d8:	ff878713          	add	a4,a5,-8
    32dc:	fee44603          	lbu	a2,-18(s0)
    32e0:	fed44583          	lbu	a1,-19(s0)
    32e4:	00000793          	li	a5,0
    32e8:	fe842503          	lw	a0,-24(s0)
    32ec:	cf1fe0ef          	jal	1fdc <render_text_rot_180>
    32f0:	fd042503          	lw	a0,-48(s0)
    32f4:	d04ff0ef          	jal	27f8 <solitaire_suit_is_red>
    32f8:	00050793          	mv	a5,a0
    32fc:	00078663          	beqz	a5,3308 <render_card_raw+0x138>
    3300:	0e000793          	li	a5,224
    3304:	0080006f          	j	330c <render_card_raw+0x13c>
    3308:	00000793          	li	a5,0
    330c:	fef401a3          	sb	a5,-29(s0)
    3310:	01e00793          	li	a5,30
    3314:	ff078793          	add	a5,a5,-16
    3318:	01f7d713          	srl	a4,a5,0x1f
    331c:	00f707b3          	add	a5,a4,a5
    3320:	4017d793          	sra	a5,a5,0x1
    3324:	00078713          	mv	a4,a5
    3328:	fdc42783          	lw	a5,-36(s0)
    332c:	00f70533          	add	a0,a4,a5
    3330:	02800793          	li	a5,40
    3334:	ff078793          	add	a5,a5,-16
    3338:	01f7d713          	srl	a4,a5,0x1f
    333c:	00f707b3          	add	a5,a4,a5
    3340:	4017d793          	sra	a5,a5,0x1
    3344:	00078713          	mv	a4,a5
    3348:	fd842783          	lw	a5,-40(s0)
    334c:	00f707b3          	add	a5,a4,a5
    3350:	fe344703          	lbu	a4,-29(s0)
    3354:	00070693          	mv	a3,a4
    3358:	fd042603          	lw	a2,-48(s0)
    335c:	00078593          	mv	a1,a5
    3360:	ab5ff0ef          	jal	2e14 <render_16x16_suit_sprite>
    3364:	00000013          	nop
    3368:	03c12083          	lw	ra,60(sp)
    336c:	03812403          	lw	s0,56(sp)
    3370:	04010113          	add	sp,sp,64
    3374:	00008067          	ret

00003378 <render_card>:
    3378:	fe010113          	add	sp,sp,-32
    337c:	00112e23          	sw	ra,28(sp)
    3380:	00812c23          	sw	s0,24(sp)
    3384:	02010413          	add	s0,sp,32
    3388:	fea42623          	sw	a0,-20(s0)
    338c:	feb42423          	sw	a1,-24(s0)
    3390:	fec42223          	sw	a2,-28(s0)
    3394:	fe442783          	lw	a5,-28(s0)
    3398:	0047a603          	lw	a2,4(a5)
    339c:	fe442783          	lw	a5,-28(s0)
    33a0:	0007a683          	lw	a3,0(a5)
    33a4:	fe442783          	lw	a5,-28(s0)
    33a8:	0087c783          	lbu	a5,8(a5)
    33ac:	00078713          	mv	a4,a5
    33b0:	fe842583          	lw	a1,-24(s0)
    33b4:	fec42503          	lw	a0,-20(s0)
    33b8:	e19ff0ef          	jal	31d0 <render_card_raw>
    33bc:	00000013          	nop
    33c0:	01c12083          	lw	ra,28(sp)
    33c4:	01812403          	lw	s0,24(sp)
    33c8:	02010113          	add	sp,sp,32
    33cc:	00008067          	ret

000033d0 <render_card_solid>:
    33d0:	fe010113          	add	sp,sp,-32
    33d4:	00112e23          	sw	ra,28(sp)
    33d8:	00812c23          	sw	s0,24(sp)
    33dc:	02010413          	add	s0,sp,32
    33e0:	fea42623          	sw	a0,-20(s0)
    33e4:	feb42423          	sw	a1,-24(s0)
    33e8:	00060793          	mv	a5,a2
    33ec:	fef403a3          	sb	a5,-25(s0)
    33f0:	fe744783          	lbu	a5,-25(s0)
    33f4:	00078613          	mv	a2,a5
    33f8:	fe842583          	lw	a1,-24(s0)
    33fc:	fec42503          	lw	a0,-20(s0)
    3400:	b35ff0ef          	jal	2f34 <render_card_border>
    3404:	fe744783          	lbu	a5,-25(s0)
    3408:	00078613          	mv	a2,a5
    340c:	fe842583          	lw	a1,-24(s0)
    3410:	fec42503          	lw	a0,-20(s0)
    3414:	ce5ff0ef          	jal	30f8 <render_card_fill>
    3418:	00000013          	nop
    341c:	01c12083          	lw	ra,28(sp)
    3420:	01812403          	lw	s0,24(sp)
    3424:	02010113          	add	sp,sp,32
    3428:	00008067          	ret

0000342c <solitaire_render>:
    342c:	fc010113          	add	sp,sp,-64
    3430:	02112e23          	sw	ra,60(sp)
    3434:	02812c23          	sw	s0,56(sp)
    3438:	04010413          	add	s0,sp,64
    343c:	00800793          	li	a5,8
    3440:	00078513          	mv	a0,a5
    3444:	f59fe0ef          	jal	239c <render_background_solid>
    3448:	fe042623          	sw	zero,-20(s0)
    344c:	0b80006f          	j	3504 <solitaire_render+0xd8>
    3450:	fe042423          	sw	zero,-24(s0)
    3454:	0980006f          	j	34ec <solitaire_render+0xc0>
    3458:	fe842703          	lw	a4,-24(s0)
    345c:	fec42783          	lw	a5,-20(s0)
    3460:	00f727b3          	slt	a5,a4,a5
    3464:	0017b793          	seqz	a5,a5
    3468:	fcf405a3          	sb	a5,-53(s0)
    346c:	fe842783          	lw	a5,-24(s0)
    3470:	00178713          	add	a4,a5,1
    3474:	00d00793          	li	a5,13
    3478:	02f767b3          	rem	a5,a4,a5
    347c:	00178793          	add	a5,a5,1
    3480:	fcf42223          	sw	a5,-60(s0)
    3484:	01e00793          	li	a5,30
    3488:	00478713          	add	a4,a5,4
    348c:	fec42783          	lw	a5,-20(s0)
    3490:	02f70733          	mul	a4,a4,a5
    3494:	00600793          	li	a5,6
    3498:	00f70533          	add	a0,a4,a5
    349c:	fe842703          	lw	a4,-24(s0)
    34a0:	00070793          	mv	a5,a4
    34a4:	00379793          	sll	a5,a5,0x3
    34a8:	00e78733          	add	a4,a5,a4
    34ac:	00600793          	li	a5,6
    34b0:	00f705b3          	add	a1,a4,a5
    34b4:	fc442603          	lw	a2,-60(s0)
    34b8:	fe842703          	lw	a4,-24(s0)
    34bc:	41f75793          	sra	a5,a4,0x1f
    34c0:	01e7d793          	srl	a5,a5,0x1e
    34c4:	00f70733          	add	a4,a4,a5
    34c8:	00377713          	and	a4,a4,3
    34cc:	40f707b3          	sub	a5,a4,a5
    34d0:	00078693          	mv	a3,a5
    34d4:	fcb44783          	lbu	a5,-53(s0)
    34d8:	00078713          	mv	a4,a5
    34dc:	cf5ff0ef          	jal	31d0 <render_card_raw>
    34e0:	fe842783          	lw	a5,-24(s0)
    34e4:	00178793          	add	a5,a5,1
    34e8:	fef42423          	sw	a5,-24(s0)
    34ec:	fec42703          	lw	a4,-20(s0)
    34f0:	fe842783          	lw	a5,-24(s0)
    34f4:	f6f752e3          	bge	a4,a5,3458 <solitaire_render+0x2c>
    34f8:	fec42783          	lw	a5,-20(s0)
    34fc:	00178793          	add	a5,a5,1
    3500:	fef42623          	sw	a5,-20(s0)
    3504:	fec42703          	lw	a4,-20(s0)
    3508:	00600793          	li	a5,6
    350c:	f4e7d2e3          	bge	a5,a4,3450 <solitaire_render+0x24>
    3510:	fe042223          	sw	zero,-28(s0)
    3514:	0f00006f          	j	3604 <solitaire_render+0x1d8>
    3518:	fe042023          	sw	zero,-32(s0)
    351c:	0d00006f          	j	35ec <solitaire_render+0x1c0>
    3520:	01e00793          	li	a5,30
    3524:	14000713          	li	a4,320
    3528:	40f70733          	sub	a4,a4,a5
    352c:	00600793          	li	a5,6
    3530:	40f70733          	sub	a4,a4,a5
    3534:	01e00793          	li	a5,30
    3538:	00478693          	add	a3,a5,4
    353c:	fe442783          	lw	a5,-28(s0)
    3540:	02f687b3          	mul	a5,a3,a5
    3544:	40f707b3          	sub	a5,a4,a5
    3548:	fcf42823          	sw	a5,-48(s0)
    354c:	02800793          	li	a5,40
    3550:	00478713          	add	a4,a5,4
    3554:	fe042783          	lw	a5,-32(s0)
    3558:	02f70733          	mul	a4,a4,a5
    355c:	00600793          	li	a5,6
    3560:	00f707b3          	add	a5,a4,a5
    3564:	fcf42623          	sw	a5,-52(s0)
    3568:	01000793          	li	a5,16
    356c:	00078613          	mv	a2,a5
    3570:	fcc42583          	lw	a1,-52(s0)
    3574:	fd042503          	lw	a0,-48(s0)
    3578:	e59ff0ef          	jal	33d0 <render_card_solid>
    357c:	01e00793          	li	a5,30
    3580:	ff078793          	add	a5,a5,-16
    3584:	01f7d713          	srl	a4,a5,0x1f
    3588:	00f707b3          	add	a5,a4,a5
    358c:	4017d793          	sra	a5,a5,0x1
    3590:	00078713          	mv	a4,a5
    3594:	fd042783          	lw	a5,-48(s0)
    3598:	00f70533          	add	a0,a4,a5
    359c:	02800793          	li	a5,40
    35a0:	ff078793          	add	a5,a5,-16
    35a4:	01f7d713          	srl	a4,a5,0x1f
    35a8:	00f707b3          	add	a5,a4,a5
    35ac:	4017d793          	sra	a5,a5,0x1
    35b0:	00078713          	mv	a4,a5
    35b4:	fcc42783          	lw	a5,-52(s0)
    35b8:	00f705b3          	add	a1,a4,a5
    35bc:	fe042783          	lw	a5,-32(s0)
    35c0:	00179713          	sll	a4,a5,0x1
    35c4:	fe442783          	lw	a5,-28(s0)
    35c8:	00f707b3          	add	a5,a4,a5
    35cc:	00078713          	mv	a4,a5
    35d0:	00800793          	li	a5,8
    35d4:	00078693          	mv	a3,a5
    35d8:	00070613          	mv	a2,a4
    35dc:	839ff0ef          	jal	2e14 <render_16x16_suit_sprite>
    35e0:	fe042783          	lw	a5,-32(s0)
    35e4:	00178793          	add	a5,a5,1
    35e8:	fef42023          	sw	a5,-32(s0)
    35ec:	fe042703          	lw	a4,-32(s0)
    35f0:	00100793          	li	a5,1
    35f4:	f2e7d6e3          	bge	a5,a4,3520 <solitaire_render+0xf4>
    35f8:	fe442783          	lw	a5,-28(s0)
    35fc:	00178793          	add	a5,a5,1
    3600:	fef42223          	sw	a5,-28(s0)
    3604:	fe442703          	lw	a4,-28(s0)
    3608:	00100793          	li	a5,1
    360c:	f0e7d6e3          	bge	a5,a4,3518 <solitaire_render+0xec>
    3610:	fc042e23          	sw	zero,-36(s0)
    3614:	0780006f          	j	368c <solitaire_render+0x260>
    3618:	01e00793          	li	a5,30
    361c:	14000713          	li	a4,320
    3620:	40f70733          	sub	a4,a4,a5
    3624:	00600793          	li	a5,6
    3628:	40f70733          	sub	a4,a4,a5
    362c:	01e00793          	li	a5,30
    3630:	00478693          	add	a3,a5,4
    3634:	fdc42783          	lw	a5,-36(s0)
    3638:	02f687b3          	mul	a5,a3,a5
    363c:	40f707b3          	sub	a5,a4,a5
    3640:	fcf42c23          	sw	a5,-40(s0)
    3644:	02800793          	li	a5,40
    3648:	0f000713          	li	a4,240
    364c:	40f70733          	sub	a4,a4,a5
    3650:	00600793          	li	a5,6
    3654:	40f707b3          	sub	a5,a4,a5
    3658:	fcf42a23          	sw	a5,-44(s0)
    365c:	fdc42783          	lw	a5,-36(s0)
    3660:	00f037b3          	snez	a5,a5
    3664:	0ff7f793          	zext.b	a5,a5
    3668:	00078713          	mv	a4,a5
    366c:	00100693          	li	a3,1
    3670:	00a00613          	li	a2,10
    3674:	fd442583          	lw	a1,-44(s0)
    3678:	fd842503          	lw	a0,-40(s0)
    367c:	b55ff0ef          	jal	31d0 <render_card_raw>
    3680:	fdc42783          	lw	a5,-36(s0)
    3684:	00178793          	add	a5,a5,1
    3688:	fcf42e23          	sw	a5,-36(s0)
    368c:	fdc42703          	lw	a4,-36(s0)
    3690:	00100793          	li	a5,1
    3694:	f8e7d2e3          	bge	a5,a4,3618 <solitaire_render+0x1ec>
    3698:	c68fd0ef          	jal	b00 <io_vga_flush_pixels>
    369c:	00000013          	nop
    36a0:	03c12083          	lw	ra,60(sp)
    36a4:	03812403          	lw	s0,56(sp)
    36a8:	04010113          	add	sp,sp,64
    36ac:	00008067          	ret

000036b0 <main_menu_handle_interrupt>:
    36b0:	fe010113          	add	sp,sp,-32
    36b4:	00112e23          	sw	ra,28(sp)
    36b8:	00812c23          	sw	s0,24(sp)
    36bc:	02010413          	add	s0,sp,32
    36c0:	fea42623          	sw	a0,-20(s0)
    36c4:	fec42703          	lw	a4,-20(s0)
    36c8:	01100793          	li	a5,17
    36cc:	00f70a63          	beq	a4,a5,36e0 <main_menu_handle_interrupt+0x30>
    36d0:	fec42703          	lw	a4,-20(s0)
    36d4:	01200793          	li	a5,18
    36d8:	0cf70e63          	beq	a4,a5,37b4 <main_menu_handle_interrupt+0x104>
    36dc:	0f80006f          	j	37d4 <main_menu_handle_interrupt+0x124>
    36e0:	000027b7          	lui	a5,0x2
    36e4:	71078513          	add	a0,a5,1808 # 2710 <shuffle+0xe8>
    36e8:	d15fe0ef          	jal	23fc <delay>
    36ec:	b10fd0ef          	jal	9fc <io_switch>
    36f0:	00050713          	mv	a4,a0
    36f4:	0000f7b7          	lui	a5,0xf
    36f8:	8ee7aa23          	sw	a4,-1804(a5) # e8f4 <switch_state>
    36fc:	b00fd0ef          	jal	9fc <io_switch>
    3700:	00050793          	mv	a5,a0
    3704:	00700713          	li	a4,7
    3708:	08f76c63          	bltu	a4,a5,37a0 <main_menu_handle_interrupt+0xf0>
    370c:	00279713          	sll	a4,a5,0x2
    3710:	000107b7          	lui	a5,0x10
    3714:	6e478793          	add	a5,a5,1764 # 106e4 <glyphs_width+0x29c>
    3718:	00f707b3          	add	a5,a4,a5
    371c:	0007a783          	lw	a5,0(a5)
    3720:	00078067          	jr	a5
    3724:	0000f7b7          	lui	a5,0xf
    3728:	8e07a623          	sw	zero,-1812(a5) # e8ec <current_game>
    372c:	0840006f          	j	37b0 <main_menu_handle_interrupt+0x100>
    3730:	0000f7b7          	lui	a5,0xf
    3734:	00100713          	li	a4,1
    3738:	8ee7a623          	sw	a4,-1812(a5) # e8ec <current_game>
    373c:	0740006f          	j	37b0 <main_menu_handle_interrupt+0x100>
    3740:	0000f7b7          	lui	a5,0xf
    3744:	00200713          	li	a4,2
    3748:	8ee7a623          	sw	a4,-1812(a5) # e8ec <current_game>
    374c:	0640006f          	j	37b0 <main_menu_handle_interrupt+0x100>
    3750:	0000f7b7          	lui	a5,0xf
    3754:	00300713          	li	a4,3
    3758:	8ee7a623          	sw	a4,-1812(a5) # e8ec <current_game>
    375c:	0540006f          	j	37b0 <main_menu_handle_interrupt+0x100>
    3760:	0000f7b7          	lui	a5,0xf
    3764:	00500713          	li	a4,5
    3768:	8ee7a623          	sw	a4,-1812(a5) # e8ec <current_game>
    376c:	0440006f          	j	37b0 <main_menu_handle_interrupt+0x100>
    3770:	0000f7b7          	lui	a5,0xf
    3774:	00600713          	li	a4,6
    3778:	8ee7a623          	sw	a4,-1812(a5) # e8ec <current_game>
    377c:	0340006f          	j	37b0 <main_menu_handle_interrupt+0x100>
    3780:	0000f7b7          	lui	a5,0xf
    3784:	00700713          	li	a4,7
    3788:	8ee7a623          	sw	a4,-1812(a5) # e8ec <current_game>
    378c:	0240006f          	j	37b0 <main_menu_handle_interrupt+0x100>
    3790:	0000f7b7          	lui	a5,0xf
    3794:	00800713          	li	a4,8
    3798:	8ee7a623          	sw	a4,-1812(a5) # e8ec <current_game>
    379c:	0140006f          	j	37b0 <main_menu_handle_interrupt+0x100>
    37a0:	0000f7b7          	lui	a5,0xf
    37a4:	00400713          	li	a4,4
    37a8:	8ee7a623          	sw	a4,-1812(a5) # e8ec <current_game>
    37ac:	0280006f          	j	37d4 <main_menu_handle_interrupt+0x124>
    37b0:	0240006f          	j	37d4 <main_menu_handle_interrupt+0x124>
    37b4:	0000f7b7          	lui	a5,0xf
    37b8:	8ec7a703          	lw	a4,-1812(a5) # e8ec <current_game>
    37bc:	00400793          	li	a5,4
    37c0:	00f70863          	beq	a4,a5,37d0 <main_menu_handle_interrupt+0x120>
    37c4:	0000f7b7          	lui	a5,0xf
    37c8:	8ec7a783          	lw	a5,-1812(a5) # e8ec <current_game>
    37cc:	00c0006f          	j	37d8 <main_menu_handle_interrupt+0x128>
    37d0:	00000013          	nop
    37d4:	fff00793          	li	a5,-1
    37d8:	00078513          	mv	a0,a5
    37dc:	01c12083          	lw	ra,28(sp)
    37e0:	01812403          	lw	s0,24(sp)
    37e4:	02010113          	add	sp,sp,32
    37e8:	00008067          	ret

000037ec <main_menu_handler_reset>:
    37ec:	ff010113          	add	sp,sp,-16
    37f0:	00812623          	sw	s0,12(sp)
    37f4:	01010413          	add	s0,sp,16
    37f8:	0000f7b7          	lui	a5,0xf
    37fc:	8e07a423          	sw	zero,-1816(a5) # e8e8 <has_rendered>
    3800:	00000013          	nop
    3804:	00c12403          	lw	s0,12(sp)
    3808:	01010113          	add	sp,sp,16
    380c:	00008067          	ret

00003810 <main_menu_handler_render>:
    3810:	fd010113          	add	sp,sp,-48
    3814:	02112623          	sw	ra,44(sp)
    3818:	02812423          	sw	s0,40(sp)
    381c:	03010413          	add	s0,sp,48
    3820:	fe042623          	sw	zero,-20(s0)
    3824:	0000f7b7          	lui	a5,0xf
    3828:	8ec7a703          	lw	a4,-1812(a5) # e8ec <current_game>
    382c:	0000f7b7          	lui	a5,0xf
    3830:	8f07a783          	lw	a5,-1808(a5) # e8f0 <last_game>
    3834:	00f71c63          	bne	a4,a5,384c <main_menu_handler_render+0x3c>
    3838:	0000f7b7          	lui	a5,0xf
    383c:	8f47a703          	lw	a4,-1804(a5) # e8f4 <switch_state>
    3840:	0000f7b7          	lui	a5,0xf
    3844:	8f87a783          	lw	a5,-1800(a5) # e8f8 <last_switch_state>
    3848:	02f70663          	beq	a4,a5,3874 <main_menu_handler_render+0x64>
    384c:	00100793          	li	a5,1
    3850:	fef42623          	sw	a5,-20(s0)
    3854:	0000f7b7          	lui	a5,0xf
    3858:	8ec7a703          	lw	a4,-1812(a5) # e8ec <current_game>
    385c:	0000f7b7          	lui	a5,0xf
    3860:	8ee7a823          	sw	a4,-1808(a5) # e8f0 <last_game>
    3864:	0000f7b7          	lui	a5,0xf
    3868:	8f47a703          	lw	a4,-1804(a5) # e8f4 <switch_state>
    386c:	0000f7b7          	lui	a5,0xf
    3870:	8ee7ac23          	sw	a4,-1800(a5) # e8f8 <last_switch_state>
    3874:	0000f7b7          	lui	a5,0xf
    3878:	8e87a783          	lw	a5,-1816(a5) # e8e8 <has_rendered>
    387c:	1c079663          	bnez	a5,3a48 <main_menu_handler_render+0x238>
    3880:	00100793          	li	a5,1
    3884:	fef42623          	sw	a5,-20(s0)
    3888:	fe042423          	sw	zero,-24(s0)
    388c:	0440006f          	j	38d0 <main_menu_handler_render+0xc0>
    3890:	fe042223          	sw	zero,-28(s0)
    3894:	0240006f          	j	38b8 <main_menu_handler_render+0xa8>
    3898:	00000793          	li	a5,0
    389c:	00078613          	mv	a2,a5
    38a0:	fe442583          	lw	a1,-28(s0)
    38a4:	fe842503          	lw	a0,-24(s0)
    38a8:	9d4fd0ef          	jal	a7c <io_vga_set_pixel>
    38ac:	fe442783          	lw	a5,-28(s0)
    38b0:	00178793          	add	a5,a5,1
    38b4:	fef42223          	sw	a5,-28(s0)
    38b8:	fe442703          	lw	a4,-28(s0)
    38bc:	0ef00793          	li	a5,239
    38c0:	fce7dce3          	bge	a5,a4,3898 <main_menu_handler_render+0x88>
    38c4:	fe842783          	lw	a5,-24(s0)
    38c8:	00178793          	add	a5,a5,1
    38cc:	fef42423          	sw	a5,-24(s0)
    38d0:	fe842703          	lw	a4,-24(s0)
    38d4:	13f00793          	li	a5,319
    38d8:	fae7dce3          	bge	a5,a4,3890 <main_menu_handler_render+0x80>
    38dc:	0000f7b7          	lui	a5,0xf
    38e0:	00100713          	li	a4,1
    38e4:	8ee7a423          	sw	a4,-1816(a5) # e8e8 <has_rendered>
    38e8:	0ff00593          	li	a1,255
    38ec:	00000613          	li	a2,0
    38f0:	00000793          	li	a5,0
    38f4:	01e00713          	li	a4,30
    38f8:	00a00693          	li	a3,10
    38fc:	00010537          	lui	a0,0x10
    3900:	70450513          	add	a0,a0,1796 # 10704 <glyphs_width+0x2bc>
    3904:	e18fe0ef          	jal	1f1c <render_text>
    3908:	0ff00593          	li	a1,255
    390c:	00000613          	li	a2,0
    3910:	00000793          	li	a5,0
    3914:	02800713          	li	a4,40
    3918:	00a00693          	li	a3,10
    391c:	00010537          	lui	a0,0x10
    3920:	71050513          	add	a0,a0,1808 # 10710 <glyphs_width+0x2c8>
    3924:	df8fe0ef          	jal	1f1c <render_text>
    3928:	0ff00593          	li	a1,255
    392c:	00000613          	li	a2,0
    3930:	00000793          	li	a5,0
    3934:	03200713          	li	a4,50
    3938:	00a00693          	li	a3,10
    393c:	00010537          	lui	a0,0x10
    3940:	71c50513          	add	a0,a0,1820 # 1071c <glyphs_width+0x2d4>
    3944:	dd8fe0ef          	jal	1f1c <render_text>
    3948:	0ff00593          	li	a1,255
    394c:	00000613          	li	a2,0
    3950:	00000793          	li	a5,0
    3954:	03c00713          	li	a4,60
    3958:	00a00693          	li	a3,10
    395c:	00010537          	lui	a0,0x10
    3960:	73050513          	add	a0,a0,1840 # 10730 <glyphs_width+0x2e8>
    3964:	db8fe0ef          	jal	1f1c <render_text>
    3968:	0ff00593          	li	a1,255
    396c:	00000613          	li	a2,0
    3970:	00000793          	li	a5,0
    3974:	04600713          	li	a4,70
    3978:	00a00693          	li	a3,10
    397c:	00010537          	lui	a0,0x10
    3980:	73c50513          	add	a0,a0,1852 # 1073c <glyphs_width+0x2f4>
    3984:	d98fe0ef          	jal	1f1c <render_text>
    3988:	0ff00593          	li	a1,255
    398c:	00000613          	li	a2,0
    3990:	00000793          	li	a5,0
    3994:	05000713          	li	a4,80
    3998:	00a00693          	li	a3,10
    399c:	00010537          	lui	a0,0x10
    39a0:	74c50513          	add	a0,a0,1868 # 1074c <glyphs_width+0x304>
    39a4:	d78fe0ef          	jal	1f1c <render_text>
    39a8:	0ff00593          	li	a1,255
    39ac:	00000613          	li	a2,0
    39b0:	00000793          	li	a5,0
    39b4:	05a00713          	li	a4,90
    39b8:	00a00693          	li	a3,10
    39bc:	00010537          	lui	a0,0x10
    39c0:	76050513          	add	a0,a0,1888 # 10760 <glyphs_width+0x318>
    39c4:	d58fe0ef          	jal	1f1c <render_text>
    39c8:	0ff00593          	li	a1,255
    39cc:	00000613          	li	a2,0
    39d0:	00000793          	li	a5,0
    39d4:	06400713          	li	a4,100
    39d8:	00a00693          	li	a3,10
    39dc:	00010537          	lui	a0,0x10
    39e0:	76c50513          	add	a0,a0,1900 # 1076c <glyphs_width+0x324>
    39e4:	d38fe0ef          	jal	1f1c <render_text>
    39e8:	0ff00593          	li	a1,255
    39ec:	00000613          	li	a2,0
    39f0:	00000793          	li	a5,0
    39f4:	0c200713          	li	a4,194
    39f8:	00a00693          	li	a3,10
    39fc:	00010537          	lui	a0,0x10
    3a00:	77850513          	add	a0,a0,1912 # 10778 <glyphs_width+0x330>
    3a04:	d18fe0ef          	jal	1f1c <render_text>
    3a08:	0ff00593          	li	a1,255
    3a0c:	00000613          	li	a2,0
    3a10:	00000793          	li	a5,0
    3a14:	0cc00713          	li	a4,204
    3a18:	00a00693          	li	a3,10
    3a1c:	00010537          	lui	a0,0x10
    3a20:	79450513          	add	a0,a0,1940 # 10794 <glyphs_width+0x34c>
    3a24:	cf8fe0ef          	jal	1f1c <render_text>
    3a28:	0ff00593          	li	a1,255
    3a2c:	00000613          	li	a2,0
    3a30:	00000793          	li	a5,0
    3a34:	0e000713          	li	a4,224
    3a38:	00a00693          	li	a3,10
    3a3c:	00010537          	lui	a0,0x10
    3a40:	7b050513          	add	a0,a0,1968 # 107b0 <glyphs_width+0x368>
    3a44:	cd8fe0ef          	jal	1f1c <render_text>
    3a48:	fec42783          	lw	a5,-20(s0)
    3a4c:	14078063          	beqz	a5,3b8c <main_menu_handler_render+0x37c>
    3a50:	0000f7b7          	lui	a5,0xf
    3a54:	8a87a783          	lw	a5,-1880(a5) # e8a8 <clear_str.0>
    3a58:	00000593          	li	a1,0
    3a5c:	00000713          	li	a4,0
    3a60:	00a00693          	li	a3,10
    3a64:	00a00613          	li	a2,10
    3a68:	00078513          	mv	a0,a5
    3a6c:	f60fe0ef          	jal	21cc <render_text_clear>
    3a70:	0000f7b7          	lui	a5,0xf
    3a74:	8ec7a783          	lw	a5,-1812(a5) # e8ec <current_game>
    3a78:	00800713          	li	a4,8
    3a7c:	08f76e63          	bltu	a4,a5,3b18 <main_menu_handler_render+0x308>
    3a80:	00279713          	sll	a4,a5,0x2
    3a84:	000117b7          	lui	a5,0x11
    3a88:	83c78793          	add	a5,a5,-1988 # 1083c <glyphs_width+0x3f4>
    3a8c:	00f707b3          	add	a5,a4,a5
    3a90:	0007a783          	lw	a5,0(a5)
    3a94:	00078067          	jr	a5
    3a98:	000107b7          	lui	a5,0x10
    3a9c:	7dc78793          	add	a5,a5,2012 # 107dc <glyphs_width+0x394>
    3aa0:	fef42023          	sw	a5,-32(s0)
    3aa4:	0840006f          	j	3b28 <main_menu_handler_render+0x318>
    3aa8:	000107b7          	lui	a5,0x10
    3aac:	7e478793          	add	a5,a5,2020 # 107e4 <glyphs_width+0x39c>
    3ab0:	fef42023          	sw	a5,-32(s0)
    3ab4:	0740006f          	j	3b28 <main_menu_handler_render+0x318>
    3ab8:	000107b7          	lui	a5,0x10
    3abc:	7ec78793          	add	a5,a5,2028 # 107ec <glyphs_width+0x3a4>
    3ac0:	fef42023          	sw	a5,-32(s0)
    3ac4:	0640006f          	j	3b28 <main_menu_handler_render+0x318>
    3ac8:	000107b7          	lui	a5,0x10
    3acc:	7fc78793          	add	a5,a5,2044 # 107fc <glyphs_width+0x3b4>
    3ad0:	fef42023          	sw	a5,-32(s0)
    3ad4:	0540006f          	j	3b28 <main_menu_handler_render+0x318>
    3ad8:	000117b7          	lui	a5,0x11
    3adc:	80878793          	add	a5,a5,-2040 # 10808 <glyphs_width+0x3c0>
    3ae0:	fef42023          	sw	a5,-32(s0)
    3ae4:	0440006f          	j	3b28 <main_menu_handler_render+0x318>
    3ae8:	000117b7          	lui	a5,0x11
    3aec:	81478793          	add	a5,a5,-2028 # 10814 <glyphs_width+0x3cc>
    3af0:	fef42023          	sw	a5,-32(s0)
    3af4:	0340006f          	j	3b28 <main_menu_handler_render+0x318>
    3af8:	000117b7          	lui	a5,0x11
    3afc:	82478793          	add	a5,a5,-2012 # 10824 <glyphs_width+0x3dc>
    3b00:	fef42023          	sw	a5,-32(s0)
    3b04:	0240006f          	j	3b28 <main_menu_handler_render+0x318>
    3b08:	000117b7          	lui	a5,0x11
    3b0c:	82c78793          	add	a5,a5,-2004 # 1082c <glyphs_width+0x3e4>
    3b10:	fef42023          	sw	a5,-32(s0)
    3b14:	0140006f          	j	3b28 <main_menu_handler_render+0x318>
    3b18:	000117b7          	lui	a5,0x11
    3b1c:	83478793          	add	a5,a5,-1996 # 10834 <glyphs_width+0x3ec>
    3b20:	fef42023          	sw	a5,-32(s0)
    3b24:	00000013          	nop
    3b28:	fc042e23          	sw	zero,-36(s0)
    3b2c:	0000f7b7          	lui	a5,0xf
    3b30:	8f47a783          	lw	a5,-1804(a5) # e8f4 <switch_state>
    3b34:	00078513          	mv	a0,a5
    3b38:	0ff00593          	li	a1,255
    3b3c:	00000613          	li	a2,0
    3b40:	fdc40793          	add	a5,s0,-36
    3b44:	00a00713          	li	a4,10
    3b48:	00a00693          	li	a3,10
    3b4c:	d74fe0ef          	jal	20c0 <render_text_number>
    3b50:	0ff00593          	li	a1,255
    3b54:	00000613          	li	a2,0
    3b58:	fdc40793          	add	a5,s0,-36
    3b5c:	00a00713          	li	a4,10
    3b60:	00a00693          	li	a3,10
    3b64:	00011537          	lui	a0,0x11
    3b68:	83850513          	add	a0,a0,-1992 # 10838 <glyphs_width+0x3f0>
    3b6c:	bb0fe0ef          	jal	1f1c <render_text>
    3b70:	0ff00593          	li	a1,255
    3b74:	00000613          	li	a2,0
    3b78:	fdc40793          	add	a5,s0,-36
    3b7c:	00a00713          	li	a4,10
    3b80:	00a00693          	li	a3,10
    3b84:	fe042503          	lw	a0,-32(s0)
    3b88:	b94fe0ef          	jal	1f1c <render_text>
    3b8c:	f75fc0ef          	jal	b00 <io_vga_flush_pixels>
    3b90:	00000013          	nop
    3b94:	02c12083          	lw	ra,44(sp)
    3b98:	02812403          	lw	s0,40(sp)
    3b9c:	03010113          	add	sp,sp,48
    3ba0:	00008067          	ret

00003ba4 <checkers_get_starting_board>:
    3ba4:	f8010113          	add	sp,sp,-128
    3ba8:	06112e23          	sw	ra,124(sp)
    3bac:	06812c23          	sw	s0,120(sp)
    3bb0:	08010413          	add	s0,sp,128
    3bb4:	f8a42623          	sw	a0,-116(s0)
    3bb8:	00100793          	li	a5,1
    3bbc:	f8f42c23          	sw	a5,-104(s0)
    3bc0:	fc042623          	sw	zero,-52(s0)
    3bc4:	fff00793          	li	a5,-1
    3bc8:	fcf42423          	sw	a5,-56(s0)
    3bcc:	00000793          	li	a5,0
    3bd0:	00000813          	li	a6,0
    3bd4:	faf42023          	sw	a5,-96(s0)
    3bd8:	fb042223          	sw	a6,-92(s0)
    3bdc:	faf42423          	sw	a5,-88(s0)
    3be0:	fb042623          	sw	a6,-84(s0)
    3be4:	faf42823          	sw	a5,-80(s0)
    3be8:	fb042a23          	sw	a6,-76(s0)
    3bec:	faf42c23          	sw	a5,-72(s0)
    3bf0:	fb042e23          	sw	a6,-68(s0)
    3bf4:	fcf42023          	sw	a5,-64(s0)
    3bf8:	fd042223          	sw	a6,-60(s0)
    3bfc:	fe042623          	sw	zero,-20(s0)
    3c00:	05c0006f          	j	3c5c <checkers_get_starting_board+0xb8>
    3c04:	fe042423          	sw	zero,-24(s0)
    3c08:	03c0006f          	j	3c44 <checkers_get_starting_board+0xa0>
    3c0c:	fe842583          	lw	a1,-24(s0)
    3c10:	fec42503          	lw	a0,-20(s0)
    3c14:	1bc000ef          	jal	3dd0 <checkers_valid_tile>
    3c18:	00050793          	mv	a5,a0
    3c1c:	00078e63          	beqz	a5,3c38 <checkers_get_starting_board+0x94>
    3c20:	f9840793          	add	a5,s0,-104
    3c24:	00100693          	li	a3,1
    3c28:	fe842603          	lw	a2,-24(s0)
    3c2c:	fec42583          	lw	a1,-20(s0)
    3c30:	00078513          	mv	a0,a5
    3c34:	5e4000ef          	jal	4218 <checkers_set_tile>
    3c38:	fe842783          	lw	a5,-24(s0)
    3c3c:	00178793          	add	a5,a5,1
    3c40:	fef42423          	sw	a5,-24(s0)
    3c44:	fe842703          	lw	a4,-24(s0)
    3c48:	00200793          	li	a5,2
    3c4c:	fce7d0e3          	bge	a5,a4,3c0c <checkers_get_starting_board+0x68>
    3c50:	fec42783          	lw	a5,-20(s0)
    3c54:	00178793          	add	a5,a5,1
    3c58:	fef42623          	sw	a5,-20(s0)
    3c5c:	fec42703          	lw	a4,-20(s0)
    3c60:	00700793          	li	a5,7
    3c64:	fae7d0e3          	bge	a5,a4,3c04 <checkers_get_starting_board+0x60>
    3c68:	fe042223          	sw	zero,-28(s0)
    3c6c:	0600006f          	j	3ccc <checkers_get_starting_board+0x128>
    3c70:	00500793          	li	a5,5
    3c74:	fef42023          	sw	a5,-32(s0)
    3c78:	03c0006f          	j	3cb4 <checkers_get_starting_board+0x110>
    3c7c:	fe042583          	lw	a1,-32(s0)
    3c80:	fe442503          	lw	a0,-28(s0)
    3c84:	14c000ef          	jal	3dd0 <checkers_valid_tile>
    3c88:	00050793          	mv	a5,a0
    3c8c:	00078e63          	beqz	a5,3ca8 <checkers_get_starting_board+0x104>
    3c90:	f9840793          	add	a5,s0,-104
    3c94:	00000693          	li	a3,0
    3c98:	fe042603          	lw	a2,-32(s0)
    3c9c:	fe442583          	lw	a1,-28(s0)
    3ca0:	00078513          	mv	a0,a5
    3ca4:	574000ef          	jal	4218 <checkers_set_tile>
    3ca8:	fe042783          	lw	a5,-32(s0)
    3cac:	00178793          	add	a5,a5,1
    3cb0:	fef42023          	sw	a5,-32(s0)
    3cb4:	fe042703          	lw	a4,-32(s0)
    3cb8:	00700793          	li	a5,7
    3cbc:	fce7d0e3          	bge	a5,a4,3c7c <checkers_get_starting_board+0xd8>
    3cc0:	fe442783          	lw	a5,-28(s0)
    3cc4:	00178793          	add	a5,a5,1
    3cc8:	fef42223          	sw	a5,-28(s0)
    3ccc:	fe442703          	lw	a4,-28(s0)
    3cd0:	00700793          	li	a5,7
    3cd4:	f8e7dee3          	bge	a5,a4,3c70 <checkers_get_starting_board+0xcc>
    3cd8:	f8042e23          	sw	zero,-100(s0)
    3cdc:	fff00793          	li	a5,-1
    3ce0:	fcf42c23          	sw	a5,-40(s0)
    3ce4:	fc042a23          	sw	zero,-44(s0)
    3ce8:	f8c42783          	lw	a5,-116(s0)
    3cec:	00078693          	mv	a3,a5
    3cf0:	f9840793          	add	a5,s0,-104
    3cf4:	04800713          	li	a4,72
    3cf8:	00070613          	mv	a2,a4
    3cfc:	00078593          	mv	a1,a5
    3d00:	00068513          	mv	a0,a3
    3d04:	d0cfc0ef          	jal	210 <memcpy>
    3d08:	f8c42503          	lw	a0,-116(s0)
    3d0c:	07c12083          	lw	ra,124(sp)
    3d10:	07812403          	lw	s0,120(sp)
    3d14:	08010113          	add	sp,sp,128
    3d18:	00008067          	ret

00003d1c <checkers_player_from_piece>:
    3d1c:	fe010113          	add	sp,sp,-32
    3d20:	00812e23          	sw	s0,28(sp)
    3d24:	02010413          	add	s0,sp,32
    3d28:	fea42623          	sw	a0,-20(s0)
    3d2c:	fec42703          	lw	a4,-20(s0)
    3d30:	00300793          	li	a5,3
    3d34:	04f70c63          	beq	a4,a5,3d8c <checkers_player_from_piece+0x70>
    3d38:	fec42703          	lw	a4,-20(s0)
    3d3c:	00300793          	li	a5,3
    3d40:	04e7ea63          	bltu	a5,a4,3d94 <checkers_player_from_piece+0x78>
    3d44:	fec42703          	lw	a4,-20(s0)
    3d48:	00200793          	li	a5,2
    3d4c:	02f70c63          	beq	a4,a5,3d84 <checkers_player_from_piece+0x68>
    3d50:	fec42703          	lw	a4,-20(s0)
    3d54:	00200793          	li	a5,2
    3d58:	02e7ee63          	bltu	a5,a4,3d94 <checkers_player_from_piece+0x78>
    3d5c:	fec42783          	lw	a5,-20(s0)
    3d60:	00078a63          	beqz	a5,3d74 <checkers_player_from_piece+0x58>
    3d64:	fec42703          	lw	a4,-20(s0)
    3d68:	00100793          	li	a5,1
    3d6c:	00f70863          	beq	a4,a5,3d7c <checkers_player_from_piece+0x60>
    3d70:	0240006f          	j	3d94 <checkers_player_from_piece+0x78>
    3d74:	00000793          	li	a5,0
    3d78:	01c0006f          	j	3d94 <checkers_player_from_piece+0x78>
    3d7c:	00100793          	li	a5,1
    3d80:	0140006f          	j	3d94 <checkers_player_from_piece+0x78>
    3d84:	00000793          	li	a5,0
    3d88:	00c0006f          	j	3d94 <checkers_player_from_piece+0x78>
    3d8c:	00100793          	li	a5,1
    3d90:	0040006f          	j	3d94 <checkers_player_from_piece+0x78>
    3d94:	00078513          	mv	a0,a5
    3d98:	01c12403          	lw	s0,28(sp)
    3d9c:	02010113          	add	sp,sp,32
    3da0:	00008067          	ret

00003da4 <checkers_opposite_player>:
    3da4:	fe010113          	add	sp,sp,-32
    3da8:	00812e23          	sw	s0,28(sp)
    3dac:	02010413          	add	s0,sp,32
    3db0:	fea42623          	sw	a0,-20(s0)
    3db4:	fec42783          	lw	a5,-20(s0)
    3db8:	0017b793          	seqz	a5,a5
    3dbc:	0ff7f793          	zext.b	a5,a5
    3dc0:	00078513          	mv	a0,a5
    3dc4:	01c12403          	lw	s0,28(sp)
    3dc8:	02010113          	add	sp,sp,32
    3dcc:	00008067          	ret

00003dd0 <checkers_valid_tile>:
    3dd0:	fe010113          	add	sp,sp,-32
    3dd4:	00812e23          	sw	s0,28(sp)
    3dd8:	02010413          	add	s0,sp,32
    3ddc:	fea42623          	sw	a0,-20(s0)
    3de0:	feb42423          	sw	a1,-24(s0)
    3de4:	fec42783          	lw	a5,-20(s0)
    3de8:	0407cc63          	bltz	a5,3e40 <checkers_valid_tile+0x70>
    3dec:	fec42703          	lw	a4,-20(s0)
    3df0:	00700793          	li	a5,7
    3df4:	04e7c663          	blt	a5,a4,3e40 <checkers_valid_tile+0x70>
    3df8:	fe842783          	lw	a5,-24(s0)
    3dfc:	0407c263          	bltz	a5,3e40 <checkers_valid_tile+0x70>
    3e00:	fe842703          	lw	a4,-24(s0)
    3e04:	00700793          	li	a5,7
    3e08:	02e7cc63          	blt	a5,a4,3e40 <checkers_valid_tile+0x70>
    3e0c:	fec42703          	lw	a4,-20(s0)
    3e10:	fe842783          	lw	a5,-24(s0)
    3e14:	00f70733          	add	a4,a4,a5
    3e18:	41f75793          	sra	a5,a4,0x1f
    3e1c:	01f7d793          	srl	a5,a5,0x1f
    3e20:	00f70733          	add	a4,a4,a5
    3e24:	00177713          	and	a4,a4,1
    3e28:	40f707b3          	sub	a5,a4,a5
    3e2c:	00078713          	mv	a4,a5
    3e30:	00100793          	li	a5,1
    3e34:	00f71663          	bne	a4,a5,3e40 <checkers_valid_tile+0x70>
    3e38:	00100793          	li	a5,1
    3e3c:	0080006f          	j	3e44 <checkers_valid_tile+0x74>
    3e40:	00000793          	li	a5,0
    3e44:	0017f793          	and	a5,a5,1
    3e48:	0ff7f793          	zext.b	a5,a5
    3e4c:	00078513          	mv	a0,a5
    3e50:	01c12403          	lw	s0,28(sp)
    3e54:	02010113          	add	sp,sp,32
    3e58:	00008067          	ret

00003e5c <idx>:
    3e5c:	fe010113          	add	sp,sp,-32
    3e60:	00812e23          	sw	s0,28(sp)
    3e64:	02010413          	add	s0,sp,32
    3e68:	fea42623          	sw	a0,-20(s0)
    3e6c:	feb42423          	sw	a1,-24(s0)
    3e70:	fec42583          	lw	a1,-20(s0)
    3e74:	00058813          	mv	a6,a1
    3e78:	41f5d593          	sra	a1,a1,0x1f
    3e7c:	00058893          	mv	a7,a1
    3e80:	fe842583          	lw	a1,-24(s0)
    3e84:	00058613          	mv	a2,a1
    3e88:	41f5d593          	sra	a1,a1,0x1f
    3e8c:	00058693          	mv	a3,a1
    3e90:	01d65593          	srl	a1,a2,0x1d
    3e94:	00369793          	sll	a5,a3,0x3
    3e98:	00f5e7b3          	or	a5,a1,a5
    3e9c:	00361713          	sll	a4,a2,0x3
    3ea0:	00e80633          	add	a2,a6,a4
    3ea4:	00060593          	mv	a1,a2
    3ea8:	0105b5b3          	sltu	a1,a1,a6
    3eac:	00f886b3          	add	a3,a7,a5
    3eb0:	00d587b3          	add	a5,a1,a3
    3eb4:	00078693          	mv	a3,a5
    3eb8:	00060713          	mv	a4,a2
    3ebc:	00068793          	mv	a5,a3
    3ec0:	00070513          	mv	a0,a4
    3ec4:	00078593          	mv	a1,a5
    3ec8:	01c12403          	lw	s0,28(sp)
    3ecc:	02010113          	add	sp,sp,32
    3ed0:	00008067          	ret

00003ed4 <checkers_has_tile>:
    3ed4:	fb010113          	add	sp,sp,-80
    3ed8:	04112623          	sw	ra,76(sp)
    3edc:	04812423          	sw	s0,72(sp)
    3ee0:	05212223          	sw	s2,68(sp)
    3ee4:	05312023          	sw	s3,64(sp)
    3ee8:	03412e23          	sw	s4,60(sp)
    3eec:	03512c23          	sw	s5,56(sp)
    3ef0:	03612a23          	sw	s6,52(sp)
    3ef4:	03712823          	sw	s7,48(sp)
    3ef8:	03812623          	sw	s8,44(sp)
    3efc:	03912423          	sw	s9,40(sp)
    3f00:	05010413          	add	s0,sp,80
    3f04:	faa42e23          	sw	a0,-68(s0)
    3f08:	fab42c23          	sw	a1,-72(s0)
    3f0c:	fac42a23          	sw	a2,-76(s0)
    3f10:	fb442583          	lw	a1,-76(s0)
    3f14:	fb842503          	lw	a0,-72(s0)
    3f18:	eb9ff0ef          	jal	3dd0 <checkers_valid_tile>
    3f1c:	00050793          	mv	a5,a0
    3f20:	0017c793          	xor	a5,a5,1
    3f24:	0ff7f793          	zext.b	a5,a5
    3f28:	00078863          	beqz	a5,3f38 <checkers_has_tile+0x64>
    3f2c:	000117b7          	lui	a5,0x11
    3f30:	87478513          	add	a0,a5,-1932 # 10874 <glyphs_width+0x42c>
    3f34:	cb0fe0ef          	jal	23e4 <panic>
    3f38:	fbc42783          	lw	a5,-68(s0)
    3f3c:	0087a603          	lw	a2,8(a5)
    3f40:	00c7a683          	lw	a3,12(a5)
    3f44:	fbc42783          	lw	a5,-68(s0)
    3f48:	0187a703          	lw	a4,24(a5)
    3f4c:	01c7a783          	lw	a5,28(a5)
    3f50:	00e66c33          	or	s8,a2,a4
    3f54:	00f6ecb3          	or	s9,a3,a5
    3f58:	fbc42783          	lw	a5,-68(s0)
    3f5c:	0107a703          	lw	a4,16(a5)
    3f60:	0147a783          	lw	a5,20(a5)
    3f64:	00ec6b33          	or	s6,s8,a4
    3f68:	00fcebb3          	or	s7,s9,a5
    3f6c:	fbc42783          	lw	a5,-68(s0)
    3f70:	0207a703          	lw	a4,32(a5)
    3f74:	0247a783          	lw	a5,36(a5)
    3f78:	00eb66b3          	or	a3,s6,a4
    3f7c:	fcd42423          	sw	a3,-56(s0)
    3f80:	00fbe7b3          	or	a5,s7,a5
    3f84:	fcf42623          	sw	a5,-52(s0)
    3f88:	fb442583          	lw	a1,-76(s0)
    3f8c:	fb842503          	lw	a0,-72(s0)
    3f90:	ecdff0ef          	jal	3e5c <idx>
    3f94:	00050713          	mv	a4,a0
    3f98:	00058793          	mv	a5,a1
    3f9c:	00070793          	mv	a5,a4
    3fa0:	fe078713          	add	a4,a5,-32
    3fa4:	00074a63          	bltz	a4,3fb8 <checkers_has_tile+0xe4>
    3fa8:	fcc42783          	lw	a5,-52(s0)
    3fac:	00e7d933          	srl	s2,a5,a4
    3fb0:	00000993          	li	s3,0
    3fb4:	02c0006f          	j	3fe0 <checkers_has_tile+0x10c>
    3fb8:	fcc42703          	lw	a4,-52(s0)
    3fbc:	00171693          	sll	a3,a4,0x1
    3fc0:	01f00713          	li	a4,31
    3fc4:	40f70733          	sub	a4,a4,a5
    3fc8:	00e69733          	sll	a4,a3,a4
    3fcc:	fc842683          	lw	a3,-56(s0)
    3fd0:	00f6d933          	srl	s2,a3,a5
    3fd4:	01276933          	or	s2,a4,s2
    3fd8:	fcc42703          	lw	a4,-52(s0)
    3fdc:	00f759b3          	srl	s3,a4,a5
    3fe0:	00197a13          	and	s4,s2,1
    3fe4:	0009fa93          	and	s5,s3,0
    3fe8:	015a67b3          	or	a5,s4,s5
    3fec:	00f037b3          	snez	a5,a5
    3ff0:	0ff7f793          	zext.b	a5,a5
    3ff4:	00078513          	mv	a0,a5
    3ff8:	04c12083          	lw	ra,76(sp)
    3ffc:	04812403          	lw	s0,72(sp)
    4000:	04412903          	lw	s2,68(sp)
    4004:	04012983          	lw	s3,64(sp)
    4008:	03c12a03          	lw	s4,60(sp)
    400c:	03812a83          	lw	s5,56(sp)
    4010:	03412b03          	lw	s6,52(sp)
    4014:	03012b83          	lw	s7,48(sp)
    4018:	02c12c03          	lw	s8,44(sp)
    401c:	02812c83          	lw	s9,40(sp)
    4020:	05010113          	add	sp,sp,80
    4024:	00008067          	ret

00004028 <checkers_get_tile>:
    4028:	f9010113          	add	sp,sp,-112
    402c:	06112623          	sw	ra,108(sp)
    4030:	06812423          	sw	s0,104(sp)
    4034:	07212223          	sw	s2,100(sp)
    4038:	07312023          	sw	s3,96(sp)
    403c:	05412e23          	sw	s4,92(sp)
    4040:	05512c23          	sw	s5,88(sp)
    4044:	05612a23          	sw	s6,84(sp)
    4048:	05712823          	sw	s7,80(sp)
    404c:	05812623          	sw	s8,76(sp)
    4050:	05912423          	sw	s9,72(sp)
    4054:	07010413          	add	s0,sp,112
    4058:	f8a42e23          	sw	a0,-100(s0)
    405c:	f8b42c23          	sw	a1,-104(s0)
    4060:	f8c42a23          	sw	a2,-108(s0)
    4064:	f9442603          	lw	a2,-108(s0)
    4068:	f9842583          	lw	a1,-104(s0)
    406c:	f9c42503          	lw	a0,-100(s0)
    4070:	e65ff0ef          	jal	3ed4 <checkers_has_tile>
    4074:	00050793          	mv	a5,a0
    4078:	0017c793          	xor	a5,a5,1
    407c:	0ff7f793          	zext.b	a5,a5
    4080:	00078863          	beqz	a5,4090 <checkers_get_tile+0x68>
    4084:	000117b7          	lui	a5,0x11
    4088:	89478513          	add	a0,a5,-1900 # 10894 <glyphs_width+0x44c>
    408c:	b58fe0ef          	jal	23e4 <panic>
    4090:	f9442583          	lw	a1,-108(s0)
    4094:	f9842503          	lw	a0,-104(s0)
    4098:	dc5ff0ef          	jal	3e5c <idx>
    409c:	00050713          	mv	a4,a0
    40a0:	00058793          	mv	a5,a1
    40a4:	00070793          	mv	a5,a4
    40a8:	fe078713          	add	a4,a5,-32
    40ac:	00074c63          	bltz	a4,40c4 <checkers_get_tile+0x9c>
    40b0:	00100793          	li	a5,1
    40b4:	00e797b3          	sll	a5,a5,a4
    40b8:	fcf42623          	sw	a5,-52(s0)
    40bc:	fc042423          	sw	zero,-56(s0)
    40c0:	0340006f          	j	40f4 <checkers_get_tile+0xcc>
    40c4:	00100713          	li	a4,1
    40c8:	00175693          	srl	a3,a4,0x1
    40cc:	01f00713          	li	a4,31
    40d0:	40f70733          	sub	a4,a4,a5
    40d4:	00e6d733          	srl	a4,a3,a4
    40d8:	00000693          	li	a3,0
    40dc:	00f696b3          	sll	a3,a3,a5
    40e0:	00e6e733          	or	a4,a3,a4
    40e4:	fce42623          	sw	a4,-52(s0)
    40e8:	00100713          	li	a4,1
    40ec:	00f717b3          	sll	a5,a4,a5
    40f0:	fcf42423          	sw	a5,-56(s0)
    40f4:	f9c42783          	lw	a5,-100(s0)
    40f8:	0087a703          	lw	a4,8(a5)
    40fc:	00c7a783          	lw	a5,12(a5)
    4100:	fc842683          	lw	a3,-56(s0)
    4104:	00e6fc33          	and	s8,a3,a4
    4108:	fcc42683          	lw	a3,-52(s0)
    410c:	00f6fcb3          	and	s9,a3,a5
    4110:	fd842023          	sw	s8,-64(s0)
    4114:	fd942223          	sw	s9,-60(s0)
    4118:	f9c42783          	lw	a5,-100(s0)
    411c:	0187a703          	lw	a4,24(a5)
    4120:	01c7a783          	lw	a5,28(a5)
    4124:	fc842683          	lw	a3,-56(s0)
    4128:	00e6fb33          	and	s6,a3,a4
    412c:	fcc42683          	lw	a3,-52(s0)
    4130:	00f6fbb3          	and	s7,a3,a5
    4134:	fb642c23          	sw	s6,-72(s0)
    4138:	fb742e23          	sw	s7,-68(s0)
    413c:	f9c42783          	lw	a5,-100(s0)
    4140:	0107a703          	lw	a4,16(a5)
    4144:	0147a783          	lw	a5,20(a5)
    4148:	fc842683          	lw	a3,-56(s0)
    414c:	00e6fa33          	and	s4,a3,a4
    4150:	fcc42683          	lw	a3,-52(s0)
    4154:	00f6fab3          	and	s5,a3,a5
    4158:	fb442823          	sw	s4,-80(s0)
    415c:	fb542a23          	sw	s5,-76(s0)
    4160:	f9c42783          	lw	a5,-100(s0)
    4164:	0207a703          	lw	a4,32(a5)
    4168:	0247a783          	lw	a5,36(a5)
    416c:	fc842683          	lw	a3,-56(s0)
    4170:	00e6f933          	and	s2,a3,a4
    4174:	fcc42683          	lw	a3,-52(s0)
    4178:	00f6f9b3          	and	s3,a3,a5
    417c:	fb242423          	sw	s2,-88(s0)
    4180:	fb342623          	sw	s3,-84(s0)
    4184:	fc042783          	lw	a5,-64(s0)
    4188:	fc442703          	lw	a4,-60(s0)
    418c:	00e7e7b3          	or	a5,a5,a4
    4190:	00078663          	beqz	a5,419c <checkers_get_tile+0x174>
    4194:	00000793          	li	a5,0
    4198:	04c0006f          	j	41e4 <checkers_get_tile+0x1bc>
    419c:	fb842783          	lw	a5,-72(s0)
    41a0:	fbc42703          	lw	a4,-68(s0)
    41a4:	00e7e7b3          	or	a5,a5,a4
    41a8:	00078663          	beqz	a5,41b4 <checkers_get_tile+0x18c>
    41ac:	00100793          	li	a5,1
    41b0:	0340006f          	j	41e4 <checkers_get_tile+0x1bc>
    41b4:	fb042783          	lw	a5,-80(s0)
    41b8:	fb442703          	lw	a4,-76(s0)
    41bc:	00e7e7b3          	or	a5,a5,a4
    41c0:	00078663          	beqz	a5,41cc <checkers_get_tile+0x1a4>
    41c4:	00200793          	li	a5,2
    41c8:	01c0006f          	j	41e4 <checkers_get_tile+0x1bc>
    41cc:	fa842783          	lw	a5,-88(s0)
    41d0:	fac42703          	lw	a4,-84(s0)
    41d4:	00e7e7b3          	or	a5,a5,a4
    41d8:	00078663          	beqz	a5,41e4 <checkers_get_tile+0x1bc>
    41dc:	00300793          	li	a5,3
    41e0:	0040006f          	j	41e4 <checkers_get_tile+0x1bc>
    41e4:	00078513          	mv	a0,a5
    41e8:	06c12083          	lw	ra,108(sp)
    41ec:	06812403          	lw	s0,104(sp)
    41f0:	06412903          	lw	s2,100(sp)
    41f4:	06012983          	lw	s3,96(sp)
    41f8:	05c12a03          	lw	s4,92(sp)
    41fc:	05812a83          	lw	s5,88(sp)
    4200:	05412b03          	lw	s6,84(sp)
    4204:	05012b83          	lw	s7,80(sp)
    4208:	04c12c03          	lw	s8,76(sp)
    420c:	04812c83          	lw	s9,72(sp)
    4210:	07010113          	add	sp,sp,112
    4214:	00008067          	ret

00004218 <checkers_set_tile>:
    4218:	fd010113          	add	sp,sp,-48
    421c:	02112623          	sw	ra,44(sp)
    4220:	02812423          	sw	s0,40(sp)
    4224:	03212223          	sw	s2,36(sp)
    4228:	03312023          	sw	s3,32(sp)
    422c:	03010413          	add	s0,sp,48
    4230:	fca42e23          	sw	a0,-36(s0)
    4234:	fcb42c23          	sw	a1,-40(s0)
    4238:	fcc42a23          	sw	a2,-44(s0)
    423c:	fcd42823          	sw	a3,-48(s0)
    4240:	fd442583          	lw	a1,-44(s0)
    4244:	fd842503          	lw	a0,-40(s0)
    4248:	b89ff0ef          	jal	3dd0 <checkers_valid_tile>
    424c:	00050793          	mv	a5,a0
    4250:	0017c793          	xor	a5,a5,1
    4254:	0ff7f793          	zext.b	a5,a5
    4258:	00078863          	beqz	a5,4268 <checkers_set_tile+0x50>
    425c:	000117b7          	lui	a5,0x11
    4260:	8b478513          	add	a0,a5,-1868 # 108b4 <glyphs_width+0x46c>
    4264:	980fe0ef          	jal	23e4 <panic>
    4268:	fd442603          	lw	a2,-44(s0)
    426c:	fd842583          	lw	a1,-40(s0)
    4270:	fdc42503          	lw	a0,-36(s0)
    4274:	c61ff0ef          	jal	3ed4 <checkers_has_tile>
    4278:	00050793          	mv	a5,a0
    427c:	00078863          	beqz	a5,428c <checkers_set_tile+0x74>
    4280:	000117b7          	lui	a5,0x11
    4284:	8d478513          	add	a0,a5,-1836 # 108d4 <glyphs_width+0x48c>
    4288:	95cfe0ef          	jal	23e4 <panic>
    428c:	fd442583          	lw	a1,-44(s0)
    4290:	fd842503          	lw	a0,-40(s0)
    4294:	bc9ff0ef          	jal	3e5c <idx>
    4298:	00050713          	mv	a4,a0
    429c:	00058793          	mv	a5,a1
    42a0:	00070793          	mv	a5,a4
    42a4:	fe078713          	add	a4,a5,-32
    42a8:	00074c63          	bltz	a4,42c0 <checkers_set_tile+0xa8>
    42ac:	00100793          	li	a5,1
    42b0:	00e797b3          	sll	a5,a5,a4
    42b4:	fef42223          	sw	a5,-28(s0)
    42b8:	fe042023          	sw	zero,-32(s0)
    42bc:	0340006f          	j	42f0 <checkers_set_tile+0xd8>
    42c0:	00100713          	li	a4,1
    42c4:	00175693          	srl	a3,a4,0x1
    42c8:	01f00713          	li	a4,31
    42cc:	40f70733          	sub	a4,a4,a5
    42d0:	00e6d733          	srl	a4,a3,a4
    42d4:	00000693          	li	a3,0
    42d8:	00f696b3          	sll	a3,a3,a5
    42dc:	00e6e733          	or	a4,a3,a4
    42e0:	fee42223          	sw	a4,-28(s0)
    42e4:	00100713          	li	a4,1
    42e8:	00f717b3          	sll	a5,a4,a5
    42ec:	fef42023          	sw	a5,-32(s0)
    42f0:	fd042703          	lw	a4,-48(s0)
    42f4:	00300793          	li	a5,3
    42f8:	06f70863          	beq	a4,a5,4368 <checkers_set_tile+0x150>
    42fc:	fd042703          	lw	a4,-48(s0)
    4300:	00300793          	li	a5,3
    4304:	06e7ea63          	bltu	a5,a4,4378 <checkers_set_tile+0x160>
    4308:	fd042703          	lw	a4,-48(s0)
    430c:	00200793          	li	a5,2
    4310:	04f70463          	beq	a4,a5,4358 <checkers_set_tile+0x140>
    4314:	fd042703          	lw	a4,-48(s0)
    4318:	00200793          	li	a5,2
    431c:	04e7ee63          	bltu	a5,a4,4378 <checkers_set_tile+0x160>
    4320:	fd042783          	lw	a5,-48(s0)
    4324:	00078a63          	beqz	a5,4338 <checkers_set_tile+0x120>
    4328:	fd042703          	lw	a4,-48(s0)
    432c:	00100793          	li	a5,1
    4330:	00f70c63          	beq	a4,a5,4348 <checkers_set_tile+0x130>
    4334:	0440006f          	j	4378 <checkers_set_tile+0x160>
    4338:	fdc42783          	lw	a5,-36(s0)
    433c:	00878793          	add	a5,a5,8
    4340:	fef42623          	sw	a5,-20(s0)
    4344:	0340006f          	j	4378 <checkers_set_tile+0x160>
    4348:	fdc42783          	lw	a5,-36(s0)
    434c:	01878793          	add	a5,a5,24
    4350:	fef42623          	sw	a5,-20(s0)
    4354:	0240006f          	j	4378 <checkers_set_tile+0x160>
    4358:	fdc42783          	lw	a5,-36(s0)
    435c:	01078793          	add	a5,a5,16
    4360:	fef42623          	sw	a5,-20(s0)
    4364:	0140006f          	j	4378 <checkers_set_tile+0x160>
    4368:	fdc42783          	lw	a5,-36(s0)
    436c:	02078793          	add	a5,a5,32
    4370:	fef42623          	sw	a5,-20(s0)
    4374:	0040006f          	j	4378 <checkers_set_tile+0x160>
    4378:	fec42783          	lw	a5,-20(s0)
    437c:	0007a703          	lw	a4,0(a5)
    4380:	0047a783          	lw	a5,4(a5)
    4384:	fe042683          	lw	a3,-32(s0)
    4388:	00e6e933          	or	s2,a3,a4
    438c:	fe442683          	lw	a3,-28(s0)
    4390:	00f6e9b3          	or	s3,a3,a5
    4394:	fec42783          	lw	a5,-20(s0)
    4398:	0127a023          	sw	s2,0(a5)
    439c:	0137a223          	sw	s3,4(a5)
    43a0:	00000013          	nop
    43a4:	02c12083          	lw	ra,44(sp)
    43a8:	02812403          	lw	s0,40(sp)
    43ac:	02412903          	lw	s2,36(sp)
    43b0:	02012983          	lw	s3,32(sp)
    43b4:	03010113          	add	sp,sp,48
    43b8:	00008067          	ret

000043bc <checkers_clear_tile>:
    43bc:	f9010113          	add	sp,sp,-112
    43c0:	06112623          	sw	ra,108(sp)
    43c4:	06812423          	sw	s0,104(sp)
    43c8:	07212223          	sw	s2,100(sp)
    43cc:	07312023          	sw	s3,96(sp)
    43d0:	05412e23          	sw	s4,92(sp)
    43d4:	05512c23          	sw	s5,88(sp)
    43d8:	05612a23          	sw	s6,84(sp)
    43dc:	05712823          	sw	s7,80(sp)
    43e0:	05812623          	sw	s8,76(sp)
    43e4:	05912423          	sw	s9,72(sp)
    43e8:	05a12223          	sw	s10,68(sp)
    43ec:	05b12023          	sw	s11,64(sp)
    43f0:	07010413          	add	s0,sp,112
    43f4:	faa42e23          	sw	a0,-68(s0)
    43f8:	fab42c23          	sw	a1,-72(s0)
    43fc:	fac42a23          	sw	a2,-76(s0)
    4400:	fb442603          	lw	a2,-76(s0)
    4404:	fb842583          	lw	a1,-72(s0)
    4408:	fbc42503          	lw	a0,-68(s0)
    440c:	ac9ff0ef          	jal	3ed4 <checkers_has_tile>
    4410:	00050793          	mv	a5,a0
    4414:	0017c793          	xor	a5,a5,1
    4418:	0ff7f793          	zext.b	a5,a5
    441c:	00078863          	beqz	a5,442c <checkers_clear_tile+0x70>
    4420:	000117b7          	lui	a5,0x11
    4424:	90078513          	add	a0,a5,-1792 # 10900 <glyphs_width+0x4b8>
    4428:	fbdfd0ef          	jal	23e4 <panic>
    442c:	fb442583          	lw	a1,-76(s0)
    4430:	fb842503          	lw	a0,-72(s0)
    4434:	a29ff0ef          	jal	3e5c <idx>
    4438:	00050713          	mv	a4,a0
    443c:	00058793          	mv	a5,a1
    4440:	00070793          	mv	a5,a4
    4444:	fe078713          	add	a4,a5,-32
    4448:	00074c63          	bltz	a4,4460 <checkers_clear_tile+0xa4>
    444c:	00100793          	li	a5,1
    4450:	00e797b3          	sll	a5,a5,a4
    4454:	fcf42623          	sw	a5,-52(s0)
    4458:	fc042423          	sw	zero,-56(s0)
    445c:	0340006f          	j	4490 <checkers_clear_tile+0xd4>
    4460:	00100713          	li	a4,1
    4464:	00175693          	srl	a3,a4,0x1
    4468:	01f00713          	li	a4,31
    446c:	40f70733          	sub	a4,a4,a5
    4470:	00e6d733          	srl	a4,a3,a4
    4474:	00000693          	li	a3,0
    4478:	00f696b3          	sll	a3,a3,a5
    447c:	00e6e733          	or	a4,a3,a4
    4480:	fce42623          	sw	a4,-52(s0)
    4484:	00100713          	li	a4,1
    4488:	00f717b3          	sll	a5,a4,a5
    448c:	fcf42423          	sw	a5,-56(s0)
    4490:	fbc42783          	lw	a5,-68(s0)
    4494:	0087a703          	lw	a4,8(a5)
    4498:	00c7a783          	lw	a5,12(a5)
    449c:	fc842683          	lw	a3,-56(s0)
    44a0:	fff6cc13          	not	s8,a3
    44a4:	fcc42683          	lw	a3,-52(s0)
    44a8:	fff6cc93          	not	s9,a3
    44ac:	018776b3          	and	a3,a4,s8
    44b0:	fad42423          	sw	a3,-88(s0)
    44b4:	0197f7b3          	and	a5,a5,s9
    44b8:	faf42623          	sw	a5,-84(s0)
    44bc:	fbc42783          	lw	a5,-68(s0)
    44c0:	fa842683          	lw	a3,-88(s0)
    44c4:	fac42703          	lw	a4,-84(s0)
    44c8:	00d7a423          	sw	a3,8(a5)
    44cc:	00e7a623          	sw	a4,12(a5)
    44d0:	fbc42783          	lw	a5,-68(s0)
    44d4:	0187a703          	lw	a4,24(a5)
    44d8:	01c7a783          	lw	a5,28(a5)
    44dc:	fc842683          	lw	a3,-56(s0)
    44e0:	fff6cb13          	not	s6,a3
    44e4:	fcc42683          	lw	a3,-52(s0)
    44e8:	fff6cb93          	not	s7,a3
    44ec:	016776b3          	and	a3,a4,s6
    44f0:	fad42023          	sw	a3,-96(s0)
    44f4:	0177f7b3          	and	a5,a5,s7
    44f8:	faf42223          	sw	a5,-92(s0)
    44fc:	fbc42783          	lw	a5,-68(s0)
    4500:	fa042683          	lw	a3,-96(s0)
    4504:	fa442703          	lw	a4,-92(s0)
    4508:	00d7ac23          	sw	a3,24(a5)
    450c:	00e7ae23          	sw	a4,28(a5)
    4510:	fbc42783          	lw	a5,-68(s0)
    4514:	0107a703          	lw	a4,16(a5)
    4518:	0147a783          	lw	a5,20(a5)
    451c:	fc842683          	lw	a3,-56(s0)
    4520:	fff6ca13          	not	s4,a3
    4524:	fcc42683          	lw	a3,-52(s0)
    4528:	fff6ca93          	not	s5,a3
    452c:	014776b3          	and	a3,a4,s4
    4530:	f8d42c23          	sw	a3,-104(s0)
    4534:	0157f7b3          	and	a5,a5,s5
    4538:	f8f42e23          	sw	a5,-100(s0)
    453c:	fbc42783          	lw	a5,-68(s0)
    4540:	f9842683          	lw	a3,-104(s0)
    4544:	f9c42703          	lw	a4,-100(s0)
    4548:	00d7a823          	sw	a3,16(a5)
    454c:	00e7aa23          	sw	a4,20(a5)
    4550:	fbc42783          	lw	a5,-68(s0)
    4554:	0207a703          	lw	a4,32(a5)
    4558:	0247a783          	lw	a5,36(a5)
    455c:	fc842683          	lw	a3,-56(s0)
    4560:	fff6c913          	not	s2,a3
    4564:	fcc42683          	lw	a3,-52(s0)
    4568:	fff6c993          	not	s3,a3
    456c:	01277d33          	and	s10,a4,s2
    4570:	0137fdb3          	and	s11,a5,s3
    4574:	fbc42783          	lw	a5,-68(s0)
    4578:	03a7a023          	sw	s10,32(a5)
    457c:	03b7a223          	sw	s11,36(a5)
    4580:	00000013          	nop
    4584:	06c12083          	lw	ra,108(sp)
    4588:	06812403          	lw	s0,104(sp)
    458c:	06412903          	lw	s2,100(sp)
    4590:	06012983          	lw	s3,96(sp)
    4594:	05c12a03          	lw	s4,92(sp)
    4598:	05812a83          	lw	s5,88(sp)
    459c:	05412b03          	lw	s6,84(sp)
    45a0:	05012b83          	lw	s7,80(sp)
    45a4:	04c12c03          	lw	s8,76(sp)
    45a8:	04812c83          	lw	s9,72(sp)
    45ac:	04412d03          	lw	s10,68(sp)
    45b0:	04012d83          	lw	s11,64(sp)
    45b4:	07010113          	add	sp,sp,112
    45b8:	00008067          	ret

000045bc <checkers_can_move>:
    45bc:	fe010113          	add	sp,sp,-32
    45c0:	00112e23          	sw	ra,28(sp)
    45c4:	00812c23          	sw	s0,24(sp)
    45c8:	02010413          	add	s0,sp,32
    45cc:	fea42623          	sw	a0,-20(s0)
    45d0:	feb42423          	sw	a1,-24(s0)
    45d4:	fec42223          	sw	a2,-28(s0)
    45d8:	fed42023          	sw	a3,-32(s0)
    45dc:	fe442583          	lw	a1,-28(s0)
    45e0:	fe842503          	lw	a0,-24(s0)
    45e4:	fecff0ef          	jal	3dd0 <checkers_valid_tile>
    45e8:	00050793          	mv	a5,a0
    45ec:	04078663          	beqz	a5,4638 <checkers_can_move+0x7c>
    45f0:	fe442603          	lw	a2,-28(s0)
    45f4:	fe842583          	lw	a1,-24(s0)
    45f8:	fec42503          	lw	a0,-20(s0)
    45fc:	8d9ff0ef          	jal	3ed4 <checkers_has_tile>
    4600:	00050793          	mv	a5,a0
    4604:	02078a63          	beqz	a5,4638 <checkers_can_move+0x7c>
    4608:	fe442603          	lw	a2,-28(s0)
    460c:	fe842583          	lw	a1,-24(s0)
    4610:	fec42503          	lw	a0,-20(s0)
    4614:	a15ff0ef          	jal	4028 <checkers_get_tile>
    4618:	00050793          	mv	a5,a0
    461c:	00078513          	mv	a0,a5
    4620:	efcff0ef          	jal	3d1c <checkers_player_from_piece>
    4624:	00050713          	mv	a4,a0
    4628:	fe042783          	lw	a5,-32(s0)
    462c:	00e79663          	bne	a5,a4,4638 <checkers_can_move+0x7c>
    4630:	00100793          	li	a5,1
    4634:	0080006f          	j	463c <checkers_can_move+0x80>
    4638:	00000793          	li	a5,0
    463c:	0017f793          	and	a5,a5,1
    4640:	0ff7f793          	zext.b	a5,a5
    4644:	00078513          	mv	a0,a5
    4648:	01c12083          	lw	ra,28(sp)
    464c:	01812403          	lw	s0,24(sp)
    4650:	02010113          	add	sp,sp,32
    4654:	00008067          	ret

00004658 <can_make_move_direction>:
    4658:	fd010113          	add	sp,sp,-48
    465c:	02112623          	sw	ra,44(sp)
    4660:	02812423          	sw	s0,40(sp)
    4664:	02912223          	sw	s1,36(sp)
    4668:	03010413          	add	s0,sp,48
    466c:	fea42623          	sw	a0,-20(s0)
    4670:	feb42423          	sw	a1,-24(s0)
    4674:	fec42223          	sw	a2,-28(s0)
    4678:	fed42023          	sw	a3,-32(s0)
    467c:	fce42e23          	sw	a4,-36(s0)
    4680:	fe842703          	lw	a4,-24(s0)
    4684:	fe042783          	lw	a5,-32(s0)
    4688:	00f706b3          	add	a3,a4,a5
    468c:	fe442703          	lw	a4,-28(s0)
    4690:	fdc42783          	lw	a5,-36(s0)
    4694:	00f707b3          	add	a5,a4,a5
    4698:	00078593          	mv	a1,a5
    469c:	00068513          	mv	a0,a3
    46a0:	f30ff0ef          	jal	3dd0 <checkers_valid_tile>
    46a4:	00050793          	mv	a5,a0
    46a8:	0017c793          	xor	a5,a5,1
    46ac:	0ff7f793          	zext.b	a5,a5
    46b0:	00078663          	beqz	a5,46bc <can_make_move_direction+0x64>
    46b4:	00000793          	li	a5,0
    46b8:	1340006f          	j	47ec <can_make_move_direction+0x194>
    46bc:	fe842703          	lw	a4,-24(s0)
    46c0:	fe042783          	lw	a5,-32(s0)
    46c4:	00f706b3          	add	a3,a4,a5
    46c8:	fe442703          	lw	a4,-28(s0)
    46cc:	fdc42783          	lw	a5,-36(s0)
    46d0:	00f707b3          	add	a5,a4,a5
    46d4:	00078613          	mv	a2,a5
    46d8:	00068593          	mv	a1,a3
    46dc:	fec42503          	lw	a0,-20(s0)
    46e0:	ff4ff0ef          	jal	3ed4 <checkers_has_tile>
    46e4:	00050793          	mv	a5,a0
    46e8:	0c078863          	beqz	a5,47b8 <can_make_move_direction+0x160>
    46ec:	fe842703          	lw	a4,-24(s0)
    46f0:	fe042783          	lw	a5,-32(s0)
    46f4:	00f706b3          	add	a3,a4,a5
    46f8:	fe442703          	lw	a4,-28(s0)
    46fc:	fdc42783          	lw	a5,-36(s0)
    4700:	00f707b3          	add	a5,a4,a5
    4704:	00078613          	mv	a2,a5
    4708:	00068593          	mv	a1,a3
    470c:	fec42503          	lw	a0,-20(s0)
    4710:	919ff0ef          	jal	4028 <checkers_get_tile>
    4714:	00050793          	mv	a5,a0
    4718:	00078513          	mv	a0,a5
    471c:	e00ff0ef          	jal	3d1c <checkers_player_from_piece>
    4720:	00050493          	mv	s1,a0
    4724:	fec42783          	lw	a5,-20(s0)
    4728:	0047a783          	lw	a5,4(a5)
    472c:	00078513          	mv	a0,a5
    4730:	e74ff0ef          	jal	3da4 <checkers_opposite_player>
    4734:	00050793          	mv	a5,a0
    4738:	08f49063          	bne	s1,a5,47b8 <can_make_move_direction+0x160>
    473c:	fe042783          	lw	a5,-32(s0)
    4740:	00179713          	sll	a4,a5,0x1
    4744:	fe842783          	lw	a5,-24(s0)
    4748:	00f706b3          	add	a3,a4,a5
    474c:	fdc42783          	lw	a5,-36(s0)
    4750:	00179713          	sll	a4,a5,0x1
    4754:	fe442783          	lw	a5,-28(s0)
    4758:	00f707b3          	add	a5,a4,a5
    475c:	00078593          	mv	a1,a5
    4760:	00068513          	mv	a0,a3
    4764:	e6cff0ef          	jal	3dd0 <checkers_valid_tile>
    4768:	00050793          	mv	a5,a0
    476c:	04078663          	beqz	a5,47b8 <can_make_move_direction+0x160>
    4770:	fe042783          	lw	a5,-32(s0)
    4774:	00179713          	sll	a4,a5,0x1
    4778:	fe842783          	lw	a5,-24(s0)
    477c:	00f706b3          	add	a3,a4,a5
    4780:	fdc42783          	lw	a5,-36(s0)
    4784:	00179713          	sll	a4,a5,0x1
    4788:	fe442783          	lw	a5,-28(s0)
    478c:	00f707b3          	add	a5,a4,a5
    4790:	00078613          	mv	a2,a5
    4794:	00068593          	mv	a1,a3
    4798:	fec42503          	lw	a0,-20(s0)
    479c:	f38ff0ef          	jal	3ed4 <checkers_has_tile>
    47a0:	00050793          	mv	a5,a0
    47a4:	0017c793          	xor	a5,a5,1
    47a8:	0ff7f793          	zext.b	a5,a5
    47ac:	00078663          	beqz	a5,47b8 <can_make_move_direction+0x160>
    47b0:	00200793          	li	a5,2
    47b4:	0380006f          	j	47ec <can_make_move_direction+0x194>
    47b8:	fe842703          	lw	a4,-24(s0)
    47bc:	fe042783          	lw	a5,-32(s0)
    47c0:	00f706b3          	add	a3,a4,a5
    47c4:	fe442703          	lw	a4,-28(s0)
    47c8:	fdc42783          	lw	a5,-36(s0)
    47cc:	00f707b3          	add	a5,a4,a5
    47d0:	00078613          	mv	a2,a5
    47d4:	00068593          	mv	a1,a3
    47d8:	fec42503          	lw	a0,-20(s0)
    47dc:	ef8ff0ef          	jal	3ed4 <checkers_has_tile>
    47e0:	00050793          	mv	a5,a0
    47e4:	0017c793          	xor	a5,a5,1
    47e8:	0ff7f793          	zext.b	a5,a5
    47ec:	00078513          	mv	a0,a5
    47f0:	02c12083          	lw	ra,44(sp)
    47f4:	02812403          	lw	s0,40(sp)
    47f8:	02412483          	lw	s1,36(sp)
    47fc:	03010113          	add	sp,sp,48
    4800:	00008067          	ret

00004804 <available_moves_for_tile>:
    4804:	f4010113          	add	sp,sp,-192
    4808:	0a112e23          	sw	ra,188(sp)
    480c:	0a812c23          	sw	s0,184(sp)
    4810:	0b212a23          	sw	s2,180(sp)
    4814:	0b312823          	sw	s3,176(sp)
    4818:	0b412623          	sw	s4,172(sp)
    481c:	0b512423          	sw	s5,168(sp)
    4820:	0b612223          	sw	s6,164(sp)
    4824:	0b712023          	sw	s7,160(sp)
    4828:	09812e23          	sw	s8,156(sp)
    482c:	09912c23          	sw	s9,152(sp)
    4830:	09a12a23          	sw	s10,148(sp)
    4834:	09b12823          	sw	s11,144(sp)
    4838:	0c010413          	add	s0,sp,192
    483c:	f4a42e23          	sw	a0,-164(s0)
    4840:	f4b42c23          	sw	a1,-168(s0)
    4844:	f4c42a23          	sw	a2,-172(s0)
    4848:	00068793          	mv	a5,a3
    484c:	f4f409a3          	sb	a5,-173(s0)
    4850:	00000793          	li	a5,0
    4854:	00000813          	li	a6,0
    4858:	fcf42423          	sw	a5,-56(s0)
    485c:	fd042623          	sw	a6,-52(s0)
    4860:	f5442583          	lw	a1,-172(s0)
    4864:	f5842503          	lw	a0,-168(s0)
    4868:	df4ff0ef          	jal	3e5c <idx>
    486c:	faa42c23          	sw	a0,-72(s0)
    4870:	fab42e23          	sw	a1,-68(s0)
    4874:	f5c42783          	lw	a5,-164(s0)
    4878:	03c7a703          	lw	a4,60(a5)
    487c:	00100793          	li	a5,1
    4880:	0cf71263          	bne	a4,a5,4944 <available_moves_for_tile+0x140>
    4884:	f5c42783          	lw	a5,-164(s0)
    4888:	0387a783          	lw	a5,56(a5)
    488c:	f4f42423          	sw	a5,-184(s0)
    4890:	41f7d793          	sra	a5,a5,0x1f
    4894:	f4f42623          	sw	a5,-180(s0)
    4898:	fb842783          	lw	a5,-72(s0)
    489c:	f4842603          	lw	a2,-184(s0)
    48a0:	f4c42683          	lw	a3,-180(s0)
    48a4:	00060713          	mv	a4,a2
    48a8:	00e79863          	bne	a5,a4,48b8 <available_moves_for_tile+0xb4>
    48ac:	fbc42783          	lw	a5,-68(s0)
    48b0:	00068713          	mv	a4,a3
    48b4:	00e78863          	beq	a5,a4,48c4 <available_moves_for_tile+0xc0>
    48b8:	00000713          	li	a4,0
    48bc:	00000793          	li	a5,0
    48c0:	3dc0006f          	j	4c9c <available_moves_for_tile+0x498>
    48c4:	f5c42783          	lw	a5,-164(s0)
    48c8:	0007a703          	lw	a4,0(a5)
    48cc:	00100793          	li	a5,1
    48d0:	06f70a63          	beq	a4,a5,4944 <available_moves_for_tile+0x140>
    48d4:	f5c42783          	lw	a5,-164(s0)
    48d8:	0387a783          	lw	a5,56(a5)
    48dc:	fe078713          	add	a4,a5,-32
    48e0:	00074a63          	bltz	a4,48f4 <available_moves_for_tile+0xf0>
    48e4:	00100793          	li	a5,1
    48e8:	00e79bb3          	sll	s7,a5,a4
    48ec:	00000b13          	li	s6,0
    48f0:	02c0006f          	j	491c <available_moves_for_tile+0x118>
    48f4:	00100713          	li	a4,1
    48f8:	00175693          	srl	a3,a4,0x1
    48fc:	01f00713          	li	a4,31
    4900:	40f70733          	sub	a4,a4,a5
    4904:	00e6d733          	srl	a4,a3,a4
    4908:	00000693          	li	a3,0
    490c:	00f69bb3          	sll	s7,a3,a5
    4910:	01776bb3          	or	s7,a4,s7
    4914:	00100713          	li	a4,1
    4918:	00f71b33          	sll	s6,a4,a5
    491c:	fc842783          	lw	a5,-56(s0)
    4920:	0167e7b3          	or	a5,a5,s6
    4924:	f4f42023          	sw	a5,-192(s0)
    4928:	fcc42783          	lw	a5,-52(s0)
    492c:	0177e7b3          	or	a5,a5,s7
    4930:	f4f42223          	sw	a5,-188(s0)
    4934:	f4042783          	lw	a5,-192(s0)
    4938:	f4442803          	lw	a6,-188(s0)
    493c:	fcf42423          	sw	a5,-56(s0)
    4940:	fd042623          	sw	a6,-52(s0)
    4944:	f5c42783          	lw	a5,-164(s0)
    4948:	0047a783          	lw	a5,4(a5)
    494c:	00078693          	mv	a3,a5
    4950:	f5442603          	lw	a2,-172(s0)
    4954:	f5842583          	lw	a1,-168(s0)
    4958:	f5c42503          	lw	a0,-164(s0)
    495c:	c61ff0ef          	jal	45bc <checkers_can_move>
    4960:	00050793          	mv	a5,a0
    4964:	0017c793          	xor	a5,a5,1
    4968:	0ff7f793          	zext.b	a5,a5
    496c:	00078863          	beqz	a5,497c <available_moves_for_tile+0x178>
    4970:	00000713          	li	a4,0
    4974:	00000793          	li	a5,0
    4978:	3240006f          	j	4c9c <available_moves_for_tile+0x498>
    497c:	f5442603          	lw	a2,-172(s0)
    4980:	f5842583          	lw	a1,-168(s0)
    4984:	f5c42503          	lw	a0,-164(s0)
    4988:	ea0ff0ef          	jal	4028 <checkers_get_tile>
    498c:	faa42a23          	sw	a0,-76(s0)
    4990:	fc042223          	sw	zero,-60(s0)
    4994:	f5c42783          	lw	a5,-164(s0)
    4998:	0047a783          	lw	a5,4(a5)
    499c:	00079663          	bnez	a5,49a8 <available_moves_for_tile+0x1a4>
    49a0:	fff00793          	li	a5,-1
    49a4:	0080006f          	j	49ac <available_moves_for_tile+0x1a8>
    49a8:	00100793          	li	a5,1
    49ac:	faf42823          	sw	a5,-80(s0)
    49b0:	fc442783          	lw	a5,-60(s0)
    49b4:	00178713          	add	a4,a5,1
    49b8:	fce42223          	sw	a4,-60(s0)
    49bc:	00379713          	sll	a4,a5,0x3
    49c0:	fd070713          	add	a4,a4,-48
    49c4:	00870733          	add	a4,a4,s0
    49c8:	00100693          	li	a3,1
    49cc:	fad72a23          	sw	a3,-76(a4)
    49d0:	00379793          	sll	a5,a5,0x3
    49d4:	fd078793          	add	a5,a5,-48
    49d8:	008787b3          	add	a5,a5,s0
    49dc:	fb042703          	lw	a4,-80(s0)
    49e0:	fae7ac23          	sw	a4,-72(a5)
    49e4:	fc442783          	lw	a5,-60(s0)
    49e8:	00178713          	add	a4,a5,1
    49ec:	fce42223          	sw	a4,-60(s0)
    49f0:	00379713          	sll	a4,a5,0x3
    49f4:	fd070713          	add	a4,a4,-48
    49f8:	00870733          	add	a4,a4,s0
    49fc:	fff00693          	li	a3,-1
    4a00:	fad72a23          	sw	a3,-76(a4)
    4a04:	00379793          	sll	a5,a5,0x3
    4a08:	fd078793          	add	a5,a5,-48
    4a0c:	008787b3          	add	a5,a5,s0
    4a10:	fb042703          	lw	a4,-80(s0)
    4a14:	fae7ac23          	sw	a4,-72(a5)
    4a18:	fb442703          	lw	a4,-76(s0)
    4a1c:	00200793          	li	a5,2
    4a20:	00f70863          	beq	a4,a5,4a30 <available_moves_for_tile+0x22c>
    4a24:	fb442703          	lw	a4,-76(s0)
    4a28:	00300793          	li	a5,3
    4a2c:	06f71a63          	bne	a4,a5,4aa0 <available_moves_for_tile+0x29c>
    4a30:	fc442783          	lw	a5,-60(s0)
    4a34:	00178713          	add	a4,a5,1
    4a38:	fce42223          	sw	a4,-60(s0)
    4a3c:	fb042703          	lw	a4,-80(s0)
    4a40:	40e006b3          	neg	a3,a4
    4a44:	00379713          	sll	a4,a5,0x3
    4a48:	fd070713          	add	a4,a4,-48
    4a4c:	00870733          	add	a4,a4,s0
    4a50:	00100613          	li	a2,1
    4a54:	fac72a23          	sw	a2,-76(a4)
    4a58:	00379793          	sll	a5,a5,0x3
    4a5c:	fd078793          	add	a5,a5,-48
    4a60:	008787b3          	add	a5,a5,s0
    4a64:	fad7ac23          	sw	a3,-72(a5)
    4a68:	fc442783          	lw	a5,-60(s0)
    4a6c:	00178713          	add	a4,a5,1
    4a70:	fce42223          	sw	a4,-60(s0)
    4a74:	fb042703          	lw	a4,-80(s0)
    4a78:	40e006b3          	neg	a3,a4
    4a7c:	00379713          	sll	a4,a5,0x3
    4a80:	fd070713          	add	a4,a4,-48
    4a84:	00870733          	add	a4,a4,s0
    4a88:	fff00613          	li	a2,-1
    4a8c:	fac72a23          	sw	a2,-76(a4)
    4a90:	00379793          	sll	a5,a5,0x3
    4a94:	fd078793          	add	a5,a5,-48
    4a98:	008787b3          	add	a5,a5,s0
    4a9c:	fad7ac23          	sw	a3,-72(a5)
    4aa0:	fc042023          	sw	zero,-64(s0)
    4aa4:	1e40006f          	j	4c88 <available_moves_for_tile+0x484>
    4aa8:	fc042783          	lw	a5,-64(s0)
    4aac:	00379793          	sll	a5,a5,0x3
    4ab0:	fd078793          	add	a5,a5,-48
    4ab4:	008787b3          	add	a5,a5,s0
    4ab8:	fb47a783          	lw	a5,-76(a5)
    4abc:	faf42623          	sw	a5,-84(s0)
    4ac0:	fc042783          	lw	a5,-64(s0)
    4ac4:	00379793          	sll	a5,a5,0x3
    4ac8:	fd078793          	add	a5,a5,-48
    4acc:	008787b3          	add	a5,a5,s0
    4ad0:	fb87a783          	lw	a5,-72(a5)
    4ad4:	faf42423          	sw	a5,-88(s0)
    4ad8:	fa842703          	lw	a4,-88(s0)
    4adc:	fac42683          	lw	a3,-84(s0)
    4ae0:	f5442603          	lw	a2,-172(s0)
    4ae4:	f5842583          	lw	a1,-168(s0)
    4ae8:	f5c42503          	lw	a0,-164(s0)
    4aec:	b6dff0ef          	jal	4658 <can_make_move_direction>
    4af0:	faa42223          	sw	a0,-92(s0)
    4af4:	fa442703          	lw	a4,-92(s0)
    4af8:	00200793          	li	a5,2
    4afc:	0cf70863          	beq	a4,a5,4bcc <available_moves_for_tile+0x3c8>
    4b00:	fa442703          	lw	a4,-92(s0)
    4b04:	00200793          	li	a5,2
    4b08:	14e7cc63          	blt	a5,a4,4c60 <available_moves_for_tile+0x45c>
    4b0c:	fa442783          	lw	a5,-92(s0)
    4b10:	16078063          	beqz	a5,4c70 <available_moves_for_tile+0x46c>
    4b14:	fa442703          	lw	a4,-92(s0)
    4b18:	00100793          	li	a5,1
    4b1c:	14f71263          	bne	a4,a5,4c60 <available_moves_for_tile+0x45c>
    4b20:	f5c42783          	lw	a5,-164(s0)
    4b24:	03c7a703          	lw	a4,60(a5)
    4b28:	00100793          	li	a5,1
    4b2c:	14f70663          	beq	a4,a5,4c78 <available_moves_for_tile+0x474>
    4b30:	f5344783          	lbu	a5,-173(s0)
    4b34:	0017c793          	xor	a5,a5,1
    4b38:	0ff7f793          	zext.b	a5,a5
    4b3c:	12078e63          	beqz	a5,4c78 <available_moves_for_tile+0x474>
    4b40:	f5842703          	lw	a4,-168(s0)
    4b44:	fac42783          	lw	a5,-84(s0)
    4b48:	00f706b3          	add	a3,a4,a5
    4b4c:	f5442703          	lw	a4,-172(s0)
    4b50:	fa842783          	lw	a5,-88(s0)
    4b54:	00f707b3          	add	a5,a4,a5
    4b58:	00078593          	mv	a1,a5
    4b5c:	00068513          	mv	a0,a3
    4b60:	afcff0ef          	jal	3e5c <idx>
    4b64:	00050713          	mv	a4,a0
    4b68:	00058793          	mv	a5,a1
    4b6c:	00070793          	mv	a5,a4
    4b70:	fe078713          	add	a4,a5,-32
    4b74:	00074a63          	bltz	a4,4b88 <available_moves_for_tile+0x384>
    4b78:	00100793          	li	a5,1
    4b7c:	00e79ab3          	sll	s5,a5,a4
    4b80:	00000a13          	li	s4,0
    4b84:	02c0006f          	j	4bb0 <available_moves_for_tile+0x3ac>
    4b88:	00100713          	li	a4,1
    4b8c:	00175693          	srl	a3,a4,0x1
    4b90:	01f00713          	li	a4,31
    4b94:	40f70733          	sub	a4,a4,a5
    4b98:	00e6d733          	srl	a4,a3,a4
    4b9c:	00000693          	li	a3,0
    4ba0:	00f69ab3          	sll	s5,a3,a5
    4ba4:	01576ab3          	or	s5,a4,s5
    4ba8:	00100713          	li	a4,1
    4bac:	00f71a33          	sll	s4,a4,a5
    4bb0:	fc842783          	lw	a5,-56(s0)
    4bb4:	0147ec33          	or	s8,a5,s4
    4bb8:	fcc42783          	lw	a5,-52(s0)
    4bbc:	0157ecb3          	or	s9,a5,s5
    4bc0:	fd842423          	sw	s8,-56(s0)
    4bc4:	fd942623          	sw	s9,-52(s0)
    4bc8:	0b00006f          	j	4c78 <available_moves_for_tile+0x474>
    4bcc:	fac42783          	lw	a5,-84(s0)
    4bd0:	00179713          	sll	a4,a5,0x1
    4bd4:	f5842783          	lw	a5,-168(s0)
    4bd8:	00f706b3          	add	a3,a4,a5
    4bdc:	fa842783          	lw	a5,-88(s0)
    4be0:	00179713          	sll	a4,a5,0x1
    4be4:	f5442783          	lw	a5,-172(s0)
    4be8:	00f707b3          	add	a5,a4,a5
    4bec:	00078593          	mv	a1,a5
    4bf0:	00068513          	mv	a0,a3
    4bf4:	a68ff0ef          	jal	3e5c <idx>
    4bf8:	00050713          	mv	a4,a0
    4bfc:	00058793          	mv	a5,a1
    4c00:	00070793          	mv	a5,a4
    4c04:	fe078713          	add	a4,a5,-32
    4c08:	00074a63          	bltz	a4,4c1c <available_moves_for_tile+0x418>
    4c0c:	00100793          	li	a5,1
    4c10:	00e799b3          	sll	s3,a5,a4
    4c14:	00000913          	li	s2,0
    4c18:	02c0006f          	j	4c44 <available_moves_for_tile+0x440>
    4c1c:	00100713          	li	a4,1
    4c20:	00175693          	srl	a3,a4,0x1
    4c24:	01f00713          	li	a4,31
    4c28:	40f70733          	sub	a4,a4,a5
    4c2c:	00e6d733          	srl	a4,a3,a4
    4c30:	00000693          	li	a3,0
    4c34:	00f699b3          	sll	s3,a3,a5
    4c38:	013769b3          	or	s3,a4,s3
    4c3c:	00100713          	li	a4,1
    4c40:	00f71933          	sll	s2,a4,a5
    4c44:	fc842783          	lw	a5,-56(s0)
    4c48:	0127ed33          	or	s10,a5,s2
    4c4c:	fcc42783          	lw	a5,-52(s0)
    4c50:	0137edb3          	or	s11,a5,s3
    4c54:	fda42423          	sw	s10,-56(s0)
    4c58:	fdb42623          	sw	s11,-52(s0)
    4c5c:	0200006f          	j	4c7c <available_moves_for_tile+0x478>
    4c60:	000117b7          	lui	a5,0x11
    4c64:	92478513          	add	a0,a5,-1756 # 10924 <glyphs_width+0x4dc>
    4c68:	f7cfd0ef          	jal	23e4 <panic>
    4c6c:	0100006f          	j	4c7c <available_moves_for_tile+0x478>
    4c70:	00000013          	nop
    4c74:	0080006f          	j	4c7c <available_moves_for_tile+0x478>
    4c78:	00000013          	nop
    4c7c:	fc042783          	lw	a5,-64(s0)
    4c80:	00178793          	add	a5,a5,1
    4c84:	fcf42023          	sw	a5,-64(s0)
    4c88:	fc042783          	lw	a5,-64(s0)
    4c8c:	fc442703          	lw	a4,-60(s0)
    4c90:	e0e7ece3          	bltu	a5,a4,4aa8 <available_moves_for_tile+0x2a4>
    4c94:	fc842703          	lw	a4,-56(s0)
    4c98:	fcc42783          	lw	a5,-52(s0)
    4c9c:	00070513          	mv	a0,a4
    4ca0:	00078593          	mv	a1,a5
    4ca4:	0bc12083          	lw	ra,188(sp)
    4ca8:	0b812403          	lw	s0,184(sp)
    4cac:	0b412903          	lw	s2,180(sp)
    4cb0:	0b012983          	lw	s3,176(sp)
    4cb4:	0ac12a03          	lw	s4,172(sp)
    4cb8:	0a812a83          	lw	s5,168(sp)
    4cbc:	0a412b03          	lw	s6,164(sp)
    4cc0:	0a012b83          	lw	s7,160(sp)
    4cc4:	09c12c03          	lw	s8,156(sp)
    4cc8:	09812c83          	lw	s9,152(sp)
    4ccc:	09412d03          	lw	s10,148(sp)
    4cd0:	09012d83          	lw	s11,144(sp)
    4cd4:	0c010113          	add	sp,sp,192
    4cd8:	00008067          	ret

00004cdc <does_capture_move_exist>:
    4cdc:	fd010113          	add	sp,sp,-48
    4ce0:	02112623          	sw	ra,44(sp)
    4ce4:	02812423          	sw	s0,40(sp)
    4ce8:	03212223          	sw	s2,36(sp)
    4cec:	03312023          	sw	s3,32(sp)
    4cf0:	03010413          	add	s0,sp,48
    4cf4:	fca42e23          	sw	a0,-36(s0)
    4cf8:	00000793          	li	a5,0
    4cfc:	00000813          	li	a6,0
    4d00:	fef42423          	sw	a5,-24(s0)
    4d04:	ff042623          	sw	a6,-20(s0)
    4d08:	fe042223          	sw	zero,-28(s0)
    4d0c:	0880006f          	j	4d94 <does_capture_move_exist+0xb8>
    4d10:	fe042023          	sw	zero,-32(s0)
    4d14:	0680006f          	j	4d7c <does_capture_move_exist+0xa0>
    4d18:	fdc42783          	lw	a5,-36(s0)
    4d1c:	0047a783          	lw	a5,4(a5)
    4d20:	00078693          	mv	a3,a5
    4d24:	fe042603          	lw	a2,-32(s0)
    4d28:	fe442583          	lw	a1,-28(s0)
    4d2c:	fdc42503          	lw	a0,-36(s0)
    4d30:	88dff0ef          	jal	45bc <checkers_can_move>
    4d34:	00050793          	mv	a5,a0
    4d38:	02078c63          	beqz	a5,4d70 <does_capture_move_exist+0x94>
    4d3c:	00100693          	li	a3,1
    4d40:	fe042603          	lw	a2,-32(s0)
    4d44:	fe442583          	lw	a1,-28(s0)
    4d48:	fdc42503          	lw	a0,-36(s0)
    4d4c:	ab9ff0ef          	jal	4804 <available_moves_for_tile>
    4d50:	00050713          	mv	a4,a0
    4d54:	00058793          	mv	a5,a1
    4d58:	fe842683          	lw	a3,-24(s0)
    4d5c:	00e6e933          	or	s2,a3,a4
    4d60:	fec42683          	lw	a3,-20(s0)
    4d64:	00f6e9b3          	or	s3,a3,a5
    4d68:	ff242423          	sw	s2,-24(s0)
    4d6c:	ff342623          	sw	s3,-20(s0)
    4d70:	fe042783          	lw	a5,-32(s0)
    4d74:	00178793          	add	a5,a5,1
    4d78:	fef42023          	sw	a5,-32(s0)
    4d7c:	fe042703          	lw	a4,-32(s0)
    4d80:	00700793          	li	a5,7
    4d84:	f8e7dae3          	bge	a5,a4,4d18 <does_capture_move_exist+0x3c>
    4d88:	fe442783          	lw	a5,-28(s0)
    4d8c:	00178793          	add	a5,a5,1
    4d90:	fef42223          	sw	a5,-28(s0)
    4d94:	fe442703          	lw	a4,-28(s0)
    4d98:	00700793          	li	a5,7
    4d9c:	f6e7dae3          	bge	a5,a4,4d10 <does_capture_move_exist+0x34>
    4da0:	fe842703          	lw	a4,-24(s0)
    4da4:	fec42783          	lw	a5,-20(s0)
    4da8:	00f767b3          	or	a5,a4,a5
    4dac:	00f037b3          	snez	a5,a5
    4db0:	0ff7f793          	zext.b	a5,a5
    4db4:	00078513          	mv	a0,a5
    4db8:	02c12083          	lw	ra,44(sp)
    4dbc:	02812403          	lw	s0,40(sp)
    4dc0:	02412903          	lw	s2,36(sp)
    4dc4:	02012983          	lw	s3,32(sp)
    4dc8:	03010113          	add	sp,sp,48
    4dcc:	00008067          	ret

00004dd0 <checkers_get_available_moves>:
    4dd0:	fd010113          	add	sp,sp,-48
    4dd4:	02112623          	sw	ra,44(sp)
    4dd8:	02812423          	sw	s0,40(sp)
    4ddc:	03010413          	add	s0,sp,48
    4de0:	fca42e23          	sw	a0,-36(s0)
    4de4:	fdc42783          	lw	a5,-36(s0)
    4de8:	0307a703          	lw	a4,48(a5)
    4dec:	41f75793          	sra	a5,a4,0x1f
    4df0:	01d7d793          	srl	a5,a5,0x1d
    4df4:	00f70733          	add	a4,a4,a5
    4df8:	00777713          	and	a4,a4,7
    4dfc:	40f707b3          	sub	a5,a4,a5
    4e00:	fef42623          	sw	a5,-20(s0)
    4e04:	fdc42783          	lw	a5,-36(s0)
    4e08:	0307a783          	lw	a5,48(a5)
    4e0c:	41f7d713          	sra	a4,a5,0x1f
    4e10:	00777713          	and	a4,a4,7
    4e14:	00f707b3          	add	a5,a4,a5
    4e18:	4037d793          	sra	a5,a5,0x3
    4e1c:	fef42423          	sw	a5,-24(s0)
    4e20:	fdc42783          	lw	a5,-36(s0)
    4e24:	0007a703          	lw	a4,0(a5)
    4e28:	00100793          	li	a5,1
    4e2c:	06f71663          	bne	a4,a5,4e98 <checkers_get_available_moves+0xc8>
    4e30:	fdc42503          	lw	a0,-36(s0)
    4e34:	ea9ff0ef          	jal	4cdc <does_capture_move_exist>
    4e38:	00050793          	mv	a5,a0
    4e3c:	02078863          	beqz	a5,4e6c <checkers_get_available_moves+0x9c>
    4e40:	00100693          	li	a3,1
    4e44:	fe842603          	lw	a2,-24(s0)
    4e48:	fec42583          	lw	a1,-20(s0)
    4e4c:	fdc42503          	lw	a0,-36(s0)
    4e50:	9b5ff0ef          	jal	4804 <available_moves_for_tile>
    4e54:	00050713          	mv	a4,a0
    4e58:	00058793          	mv	a5,a1
    4e5c:	fdc42683          	lw	a3,-36(s0)
    4e60:	02e6a423          	sw	a4,40(a3)
    4e64:	02f6a623          	sw	a5,44(a3)
    4e68:	0580006f          	j	4ec0 <checkers_get_available_moves+0xf0>
    4e6c:	00000693          	li	a3,0
    4e70:	fe842603          	lw	a2,-24(s0)
    4e74:	fec42583          	lw	a1,-20(s0)
    4e78:	fdc42503          	lw	a0,-36(s0)
    4e7c:	989ff0ef          	jal	4804 <available_moves_for_tile>
    4e80:	00050713          	mv	a4,a0
    4e84:	00058793          	mv	a5,a1
    4e88:	fdc42683          	lw	a3,-36(s0)
    4e8c:	02e6a423          	sw	a4,40(a3)
    4e90:	02f6a623          	sw	a5,44(a3)
    4e94:	02c0006f          	j	4ec0 <checkers_get_available_moves+0xf0>
    4e98:	00000693          	li	a3,0
    4e9c:	fe842603          	lw	a2,-24(s0)
    4ea0:	fec42583          	lw	a1,-20(s0)
    4ea4:	fdc42503          	lw	a0,-36(s0)
    4ea8:	95dff0ef          	jal	4804 <available_moves_for_tile>
    4eac:	00050713          	mv	a4,a0
    4eb0:	00058793          	mv	a5,a1
    4eb4:	fdc42683          	lw	a3,-36(s0)
    4eb8:	02e6a423          	sw	a4,40(a3)
    4ebc:	02f6a623          	sw	a5,44(a3)
    4ec0:	00000013          	nop
    4ec4:	02c12083          	lw	ra,44(sp)
    4ec8:	02812403          	lw	s0,40(sp)
    4ecc:	03010113          	add	sp,sp,48
    4ed0:	00008067          	ret

00004ed4 <checkers_can_make_move>:
    4ed4:	fc010113          	add	sp,sp,-64
    4ed8:	02112e23          	sw	ra,60(sp)
    4edc:	02812c23          	sw	s0,56(sp)
    4ee0:	03212a23          	sw	s2,52(sp)
    4ee4:	03312823          	sw	s3,48(sp)
    4ee8:	03412623          	sw	s4,44(sp)
    4eec:	03512423          	sw	s5,40(sp)
    4ef0:	03612223          	sw	s6,36(sp)
    4ef4:	03712023          	sw	s7,32(sp)
    4ef8:	04010413          	add	s0,sp,64
    4efc:	fca42623          	sw	a0,-52(s0)
    4f00:	fcc42783          	lw	a5,-52(s0)
    4f04:	0347a703          	lw	a4,52(a5)
    4f08:	41f75793          	sra	a5,a4,0x1f
    4f0c:	01d7d793          	srl	a5,a5,0x1d
    4f10:	00f70733          	add	a4,a4,a5
    4f14:	00777713          	and	a4,a4,7
    4f18:	40f707b3          	sub	a5,a4,a5
    4f1c:	fcf42e23          	sw	a5,-36(s0)
    4f20:	fcc42783          	lw	a5,-52(s0)
    4f24:	0347a783          	lw	a5,52(a5)
    4f28:	41f7d713          	sra	a4,a5,0x1f
    4f2c:	00777713          	and	a4,a4,7
    4f30:	00f707b3          	add	a5,a4,a5
    4f34:	4037d793          	sra	a5,a5,0x3
    4f38:	fcf42c23          	sw	a5,-40(s0)
    4f3c:	fcc42783          	lw	a5,-52(s0)
    4f40:	0287aa03          	lw	s4,40(a5)
    4f44:	02c7aa83          	lw	s5,44(a5)
    4f48:	fd842583          	lw	a1,-40(s0)
    4f4c:	fdc42503          	lw	a0,-36(s0)
    4f50:	f0dfe0ef          	jal	3e5c <idx>
    4f54:	00050713          	mv	a4,a0
    4f58:	00058793          	mv	a5,a1
    4f5c:	00070793          	mv	a5,a4
    4f60:	fe078713          	add	a4,a5,-32
    4f64:	00074863          	bltz	a4,4f74 <checkers_can_make_move+0xa0>
    4f68:	00ead933          	srl	s2,s5,a4
    4f6c:	00000993          	li	s3,0
    4f70:	0200006f          	j	4f90 <checkers_can_make_move+0xbc>
    4f74:	001a9693          	sll	a3,s5,0x1
    4f78:	01f00713          	li	a4,31
    4f7c:	40f70733          	sub	a4,a4,a5
    4f80:	00e69733          	sll	a4,a3,a4
    4f84:	00fa5933          	srl	s2,s4,a5
    4f88:	01276933          	or	s2,a4,s2
    4f8c:	00fad9b3          	srl	s3,s5,a5
    4f90:	00197b13          	and	s6,s2,1
    4f94:	0009fb93          	and	s7,s3,0
    4f98:	017b67b3          	or	a5,s6,s7
    4f9c:	00f037b3          	snez	a5,a5
    4fa0:	0ff7f793          	zext.b	a5,a5
    4fa4:	00078513          	mv	a0,a5
    4fa8:	03c12083          	lw	ra,60(sp)
    4fac:	03812403          	lw	s0,56(sp)
    4fb0:	03412903          	lw	s2,52(sp)
    4fb4:	03012983          	lw	s3,48(sp)
    4fb8:	02c12a03          	lw	s4,44(sp)
    4fbc:	02812a83          	lw	s5,40(sp)
    4fc0:	02412b03          	lw	s6,36(sp)
    4fc4:	02012b83          	lw	s7,32(sp)
    4fc8:	04010113          	add	sp,sp,64
    4fcc:	00008067          	ret

00004fd0 <generate_game_state>:
    4fd0:	fd010113          	add	sp,sp,-48
    4fd4:	02812623          	sw	s0,44(sp)
    4fd8:	03010413          	add	s0,sp,48
    4fdc:	fca42e23          	sw	a0,-36(s0)
    4fe0:	fdc42783          	lw	a5,-36(s0)
    4fe4:	0087a603          	lw	a2,8(a5)
    4fe8:	00c7a683          	lw	a3,12(a5)
    4fec:	fdc42783          	lw	a5,-36(s0)
    4ff0:	0107a703          	lw	a4,16(a5)
    4ff4:	0147a783          	lw	a5,20(a5)
    4ff8:	00e665b3          	or	a1,a2,a4
    4ffc:	feb42423          	sw	a1,-24(s0)
    5000:	00f6e7b3          	or	a5,a3,a5
    5004:	fef42623          	sw	a5,-20(s0)
    5008:	fdc42783          	lw	a5,-36(s0)
    500c:	0187a603          	lw	a2,24(a5)
    5010:	01c7a683          	lw	a3,28(a5)
    5014:	fdc42783          	lw	a5,-36(s0)
    5018:	0207a703          	lw	a4,32(a5)
    501c:	0247a783          	lw	a5,36(a5)
    5020:	00e665b3          	or	a1,a2,a4
    5024:	feb42023          	sw	a1,-32(s0)
    5028:	00f6e7b3          	or	a5,a3,a5
    502c:	fef42223          	sw	a5,-28(s0)
    5030:	fe842783          	lw	a5,-24(s0)
    5034:	fec42703          	lw	a4,-20(s0)
    5038:	00e7e7b3          	or	a5,a5,a4
    503c:	00079a63          	bnez	a5,5050 <generate_game_state+0x80>
    5040:	fdc42783          	lw	a5,-36(s0)
    5044:	00200713          	li	a4,2
    5048:	04e7a023          	sw	a4,64(a5)
    504c:	0300006f          	j	507c <generate_game_state+0xac>
    5050:	fe042783          	lw	a5,-32(s0)
    5054:	fe442703          	lw	a4,-28(s0)
    5058:	00e7e7b3          	or	a5,a5,a4
    505c:	00079a63          	bnez	a5,5070 <generate_game_state+0xa0>
    5060:	fdc42783          	lw	a5,-36(s0)
    5064:	00100713          	li	a4,1
    5068:	04e7a023          	sw	a4,64(a5)
    506c:	0100006f          	j	507c <generate_game_state+0xac>
    5070:	fdc42783          	lw	a5,-36(s0)
    5074:	fff00713          	li	a4,-1
    5078:	04e7a023          	sw	a4,64(a5)
    507c:	00000013          	nop
    5080:	02c12403          	lw	s0,44(sp)
    5084:	03010113          	add	sp,sp,48
    5088:	00008067          	ret

0000508c <checkers_make_move>:
    508c:	fb010113          	add	sp,sp,-80
    5090:	04112623          	sw	ra,76(sp)
    5094:	04812423          	sw	s0,72(sp)
    5098:	05212223          	sw	s2,68(sp)
    509c:	05312023          	sw	s3,64(sp)
    50a0:	03412e23          	sw	s4,60(sp)
    50a4:	03512c23          	sw	s5,56(sp)
    50a8:	03612a23          	sw	s6,52(sp)
    50ac:	03712823          	sw	s7,48(sp)
    50b0:	05010413          	add	s0,sp,80
    50b4:	faa42e23          	sw	a0,-68(s0)
    50b8:	fbc42783          	lw	a5,-68(s0)
    50bc:	0347a703          	lw	a4,52(a5)
    50c0:	41f75793          	sra	a5,a4,0x1f
    50c4:	01d7d793          	srl	a5,a5,0x1d
    50c8:	00f70733          	add	a4,a4,a5
    50cc:	00777713          	and	a4,a4,7
    50d0:	40f707b3          	sub	a5,a4,a5
    50d4:	fcf42e23          	sw	a5,-36(s0)
    50d8:	fbc42783          	lw	a5,-68(s0)
    50dc:	0347a783          	lw	a5,52(a5)
    50e0:	41f7d713          	sra	a4,a5,0x1f
    50e4:	00777713          	and	a4,a4,7
    50e8:	00f707b3          	add	a5,a4,a5
    50ec:	4037d793          	sra	a5,a5,0x3
    50f0:	fcf42c23          	sw	a5,-40(s0)
    50f4:	fbc42783          	lw	a5,-68(s0)
    50f8:	0307a703          	lw	a4,48(a5)
    50fc:	41f75793          	sra	a5,a4,0x1f
    5100:	01d7d793          	srl	a5,a5,0x1d
    5104:	00f70733          	add	a4,a4,a5
    5108:	00777713          	and	a4,a4,7
    510c:	40f707b3          	sub	a5,a4,a5
    5110:	fcf42a23          	sw	a5,-44(s0)
    5114:	fbc42783          	lw	a5,-68(s0)
    5118:	0307a783          	lw	a5,48(a5)
    511c:	41f7d713          	sra	a4,a5,0x1f
    5120:	00777713          	and	a4,a4,7
    5124:	00f707b3          	add	a5,a4,a5
    5128:	4037d793          	sra	a5,a5,0x3
    512c:	fcf42823          	sw	a5,-48(s0)
    5130:	fbc42503          	lw	a0,-68(s0)
    5134:	da1ff0ef          	jal	4ed4 <checkers_can_make_move>
    5138:	00050793          	mv	a5,a0
    513c:	0017c793          	xor	a5,a5,1
    5140:	0ff7f793          	zext.b	a5,a5
    5144:	00078863          	beqz	a5,5154 <checkers_make_move+0xc8>
    5148:	000117b7          	lui	a5,0x11
    514c:	95878513          	add	a0,a5,-1704 # 10958 <glyphs_width+0x510>
    5150:	a94fd0ef          	jal	23e4 <panic>
    5154:	fdc42703          	lw	a4,-36(s0)
    5158:	fd442783          	lw	a5,-44(s0)
    515c:	06f71663          	bne	a4,a5,51c8 <checkers_make_move+0x13c>
    5160:	fd842703          	lw	a4,-40(s0)
    5164:	fd042783          	lw	a5,-48(s0)
    5168:	06f71063          	bne	a4,a5,51c8 <checkers_make_move+0x13c>
    516c:	fbc42783          	lw	a5,-68(s0)
    5170:	0207ae23          	sw	zero,60(a5)
    5174:	fbc42783          	lw	a5,-68(s0)
    5178:	fff00713          	li	a4,-1
    517c:	02e7ac23          	sw	a4,56(a5)
    5180:	fbc42783          	lw	a5,-68(s0)
    5184:	0047a783          	lw	a5,4(a5)
    5188:	00078513          	mv	a0,a5
    518c:	c19fe0ef          	jal	3da4 <checkers_opposite_player>
    5190:	00050713          	mv	a4,a0
    5194:	fbc42783          	lw	a5,-68(s0)
    5198:	00e7a223          	sw	a4,4(a5)
    519c:	fbc42783          	lw	a5,-68(s0)
    51a0:	fff00713          	li	a4,-1
    51a4:	02e7a823          	sw	a4,48(a5)
    51a8:	fbc42783          	lw	a5,-68(s0)
    51ac:	00000693          	li	a3,0
    51b0:	00000713          	li	a4,0
    51b4:	02d7a423          	sw	a3,40(a5)
    51b8:	02e7a623          	sw	a4,44(a5)
    51bc:	fbc42503          	lw	a0,-68(s0)
    51c0:	e11ff0ef          	jal	4fd0 <generate_game_state>
    51c4:	25c0006f          	j	5420 <checkers_make_move+0x394>
    51c8:	fdc42703          	lw	a4,-36(s0)
    51cc:	fd442783          	lw	a5,-44(s0)
    51d0:	40f707b3          	sub	a5,a4,a5
    51d4:	fcf42623          	sw	a5,-52(s0)
    51d8:	fd842703          	lw	a4,-40(s0)
    51dc:	fd042783          	lw	a5,-48(s0)
    51e0:	40f707b3          	sub	a5,a4,a5
    51e4:	fcf42423          	sw	a5,-56(s0)
    51e8:	fcc42783          	lw	a5,-52(s0)
    51ec:	41f7d713          	sra	a4,a5,0x1f
    51f0:	fcc42783          	lw	a5,-52(s0)
    51f4:	00f747b3          	xor	a5,a4,a5
    51f8:	40e787b3          	sub	a5,a5,a4
    51fc:	00200713          	li	a4,2
    5200:	06e79463          	bne	a5,a4,5268 <checkers_make_move+0x1dc>
    5204:	fcc42783          	lw	a5,-52(s0)
    5208:	01f7d713          	srl	a4,a5,0x1f
    520c:	00f707b3          	add	a5,a4,a5
    5210:	4017d793          	sra	a5,a5,0x1
    5214:	00078713          	mv	a4,a5
    5218:	fd442783          	lw	a5,-44(s0)
    521c:	00f706b3          	add	a3,a4,a5
    5220:	fc842783          	lw	a5,-56(s0)
    5224:	01f7d713          	srl	a4,a5,0x1f
    5228:	00f707b3          	add	a5,a4,a5
    522c:	4017d793          	sra	a5,a5,0x1
    5230:	00078713          	mv	a4,a5
    5234:	fd042783          	lw	a5,-48(s0)
    5238:	00f707b3          	add	a5,a4,a5
    523c:	00078613          	mv	a2,a5
    5240:	00068593          	mv	a1,a3
    5244:	fbc42503          	lw	a0,-68(s0)
    5248:	974ff0ef          	jal	43bc <checkers_clear_tile>
    524c:	fbc42783          	lw	a5,-68(s0)
    5250:	00100713          	li	a4,1
    5254:	02e7ae23          	sw	a4,60(a5)
    5258:	fbc42783          	lw	a5,-68(s0)
    525c:	0347a703          	lw	a4,52(a5)
    5260:	fbc42783          	lw	a5,-68(s0)
    5264:	02e7ac23          	sw	a4,56(a5)
    5268:	fd042603          	lw	a2,-48(s0)
    526c:	fd442583          	lw	a1,-44(s0)
    5270:	fbc42503          	lw	a0,-68(s0)
    5274:	db5fe0ef          	jal	4028 <checkers_get_tile>
    5278:	00050793          	mv	a5,a0
    527c:	00078693          	mv	a3,a5
    5280:	fd842603          	lw	a2,-40(s0)
    5284:	fdc42583          	lw	a1,-36(s0)
    5288:	fbc42503          	lw	a0,-68(s0)
    528c:	f8dfe0ef          	jal	4218 <checkers_set_tile>
    5290:	fd042603          	lw	a2,-48(s0)
    5294:	fd442583          	lw	a1,-44(s0)
    5298:	fbc42503          	lw	a0,-68(s0)
    529c:	920ff0ef          	jal	43bc <checkers_clear_tile>
    52a0:	fd842783          	lw	a5,-40(s0)
    52a4:	00078863          	beqz	a5,52b4 <checkers_make_move+0x228>
    52a8:	fd842703          	lw	a4,-40(s0)
    52ac:	00700793          	li	a5,7
    52b0:	06f71c63          	bne	a4,a5,5328 <checkers_make_move+0x29c>
    52b4:	fd842603          	lw	a2,-40(s0)
    52b8:	fdc42583          	lw	a1,-36(s0)
    52bc:	fbc42503          	lw	a0,-68(s0)
    52c0:	d69fe0ef          	jal	4028 <checkers_get_tile>
    52c4:	fca42223          	sw	a0,-60(s0)
    52c8:	fc442783          	lw	a5,-60(s0)
    52cc:	02079663          	bnez	a5,52f8 <checkers_make_move+0x26c>
    52d0:	fd842603          	lw	a2,-40(s0)
    52d4:	fdc42583          	lw	a1,-36(s0)
    52d8:	fbc42503          	lw	a0,-68(s0)
    52dc:	8e0ff0ef          	jal	43bc <checkers_clear_tile>
    52e0:	00200693          	li	a3,2
    52e4:	fd842603          	lw	a2,-40(s0)
    52e8:	fdc42583          	lw	a1,-36(s0)
    52ec:	fbc42503          	lw	a0,-68(s0)
    52f0:	f29fe0ef          	jal	4218 <checkers_set_tile>
    52f4:	0340006f          	j	5328 <checkers_make_move+0x29c>
    52f8:	fc442703          	lw	a4,-60(s0)
    52fc:	00100793          	li	a5,1
    5300:	02f71463          	bne	a4,a5,5328 <checkers_make_move+0x29c>
    5304:	fd842603          	lw	a2,-40(s0)
    5308:	fdc42583          	lw	a1,-36(s0)
    530c:	fbc42503          	lw	a0,-68(s0)
    5310:	8acff0ef          	jal	43bc <checkers_clear_tile>
    5314:	00300693          	li	a3,3
    5318:	fd842603          	lw	a2,-40(s0)
    531c:	fdc42583          	lw	a1,-36(s0)
    5320:	fbc42503          	lw	a0,-68(s0)
    5324:	ef5fe0ef          	jal	4218 <checkers_set_tile>
    5328:	fbc42783          	lw	a5,-68(s0)
    532c:	03c7a703          	lw	a4,60(a5)
    5330:	00100793          	li	a5,1
    5334:	08f71663          	bne	a4,a5,53c0 <checkers_make_move+0x334>
    5338:	fbc42783          	lw	a5,-68(s0)
    533c:	0387a703          	lw	a4,56(a5)
    5340:	fbc42783          	lw	a5,-68(s0)
    5344:	02e7a823          	sw	a4,48(a5)
    5348:	fbc42503          	lw	a0,-68(s0)
    534c:	a85ff0ef          	jal	4dd0 <checkers_get_available_moves>
    5350:	fbc42783          	lw	a5,-68(s0)
    5354:	0287a603          	lw	a2,40(a5)
    5358:	02c7a683          	lw	a3,44(a5)
    535c:	fbc42783          	lw	a5,-68(s0)
    5360:	0307a783          	lw	a5,48(a5)
    5364:	fe078713          	add	a4,a5,-32
    5368:	00074a63          	bltz	a4,537c <checkers_make_move+0x2f0>
    536c:	00100793          	li	a5,1
    5370:	00e799b3          	sll	s3,a5,a4
    5374:	00000913          	li	s2,0
    5378:	02c0006f          	j	53a4 <checkers_make_move+0x318>
    537c:	00100713          	li	a4,1
    5380:	00175593          	srl	a1,a4,0x1
    5384:	01f00713          	li	a4,31
    5388:	40f70733          	sub	a4,a4,a5
    538c:	00e5d733          	srl	a4,a1,a4
    5390:	00000593          	li	a1,0
    5394:	00f599b3          	sll	s3,a1,a5
    5398:	013769b3          	or	s3,a4,s3
    539c:	00100713          	li	a4,1
    53a0:	00f71933          	sll	s2,a4,a5
    53a4:	fff94a13          	not	s4,s2
    53a8:	fff9ca93          	not	s5,s3
    53ac:	01467b33          	and	s6,a2,s4
    53b0:	0156fbb3          	and	s7,a3,s5
    53b4:	000b0793          	mv	a5,s6
    53b8:	0177e7b3          	or	a5,a5,s7
    53bc:	06079063          	bnez	a5,541c <checkers_make_move+0x390>
    53c0:	fbc42783          	lw	a5,-68(s0)
    53c4:	0207ae23          	sw	zero,60(a5)
    53c8:	fbc42783          	lw	a5,-68(s0)
    53cc:	fff00713          	li	a4,-1
    53d0:	02e7ac23          	sw	a4,56(a5)
    53d4:	fbc42783          	lw	a5,-68(s0)
    53d8:	0047a783          	lw	a5,4(a5)
    53dc:	00078513          	mv	a0,a5
    53e0:	9c5fe0ef          	jal	3da4 <checkers_opposite_player>
    53e4:	00050713          	mv	a4,a0
    53e8:	fbc42783          	lw	a5,-68(s0)
    53ec:	00e7a223          	sw	a4,4(a5)
    53f0:	fbc42783          	lw	a5,-68(s0)
    53f4:	fff00713          	li	a4,-1
    53f8:	02e7a823          	sw	a4,48(a5)
    53fc:	fbc42783          	lw	a5,-68(s0)
    5400:	00000693          	li	a3,0
    5404:	00000713          	li	a4,0
    5408:	02d7a423          	sw	a3,40(a5)
    540c:	02e7a623          	sw	a4,44(a5)
    5410:	fbc42503          	lw	a0,-68(s0)
    5414:	bbdff0ef          	jal	4fd0 <generate_game_state>
    5418:	0080006f          	j	5420 <checkers_make_move+0x394>
    541c:	00000013          	nop
    5420:	04c12083          	lw	ra,76(sp)
    5424:	04812403          	lw	s0,72(sp)
    5428:	04412903          	lw	s2,68(sp)
    542c:	04012983          	lw	s3,64(sp)
    5430:	03c12a03          	lw	s4,60(sp)
    5434:	03812a83          	lw	s5,56(sp)
    5438:	03412b03          	lw	s6,52(sp)
    543c:	03012b83          	lw	s7,48(sp)
    5440:	05010113          	add	sp,sp,80
    5444:	00008067          	ret

00005448 <render_select_screen>:
    5448:	fe010113          	add	sp,sp,-32
    544c:	00112e23          	sw	ra,28(sp)
    5450:	00812c23          	sw	s0,24(sp)
    5454:	02010413          	add	s0,sp,32
    5458:	0000f7b7          	lui	a5,0xf
    545c:	9047a783          	lw	a5,-1788(a5) # e904 <has_rendered_background>
    5460:	00079e63          	bnez	a5,547c <render_select_screen+0x34>
    5464:	09100793          	li	a5,145
    5468:	00078513          	mv	a0,a5
    546c:	f31fc0ef          	jal	239c <render_background_solid>
    5470:	0000f7b7          	lui	a5,0xf
    5474:	00100713          	li	a4,1
    5478:	90e7a223          	sw	a4,-1788(a5) # e904 <has_rendered_background>
    547c:	000117b7          	lui	a5,0x11
    5480:	97c78793          	add	a5,a5,-1668 # 1097c <glyphs_width+0x534>
    5484:	fef42623          	sw	a5,-20(s0)
    5488:	000117b7          	lui	a5,0x11
    548c:	99478793          	add	a5,a5,-1644 # 10994 <glyphs_width+0x54c>
    5490:	fef42423          	sw	a5,-24(s0)
    5494:	000117b7          	lui	a5,0x11
    5498:	9a078793          	add	a5,a5,-1632 # 109a0 <glyphs_width+0x558>
    549c:	fef42223          	sw	a5,-28(s0)
    54a0:	fec42503          	lw	a0,-20(s0)
    54a4:	de1fc0ef          	jal	2284 <render_text_width>
    54a8:	fea42023          	sw	a0,-32(s0)
    54ac:	09100593          	li	a1,145
    54b0:	14000713          	li	a4,320
    54b4:	fe042783          	lw	a5,-32(s0)
    54b8:	40f707b3          	sub	a5,a4,a5
    54bc:	01f7d713          	srl	a4,a5,0x1f
    54c0:	00f707b3          	add	a5,a4,a5
    54c4:	4017d793          	sra	a5,a5,0x1
    54c8:	00000713          	li	a4,0
    54cc:	07000693          	li	a3,112
    54d0:	00078613          	mv	a2,a5
    54d4:	fec42503          	lw	a0,-20(s0)
    54d8:	cf5fc0ef          	jal	21cc <render_text_clear>
    54dc:	00000593          	li	a1,0
    54e0:	09100613          	li	a2,145
    54e4:	00000793          	li	a5,0
    54e8:	0e000713          	li	a4,224
    54ec:	00a00693          	li	a3,10
    54f0:	00011537          	lui	a0,0x11
    54f4:	9b850513          	add	a0,a0,-1608 # 109b8 <glyphs_width+0x570>
    54f8:	a25fc0ef          	jal	1f1c <render_text>
    54fc:	0000f7b7          	lui	a5,0xf
    5500:	9507a783          	lw	a5,-1712(a5) # e950 <version>
    5504:	00078863          	beqz	a5,5514 <render_select_screen+0xcc>
    5508:	00100713          	li	a4,1
    550c:	04e78663          	beq	a5,a4,5558 <render_select_screen+0x110>
    5510:	08c0006f          	j	559c <render_select_screen+0x154>
    5514:	fe842503          	lw	a0,-24(s0)
    5518:	d6dfc0ef          	jal	2284 <render_text_width>
    551c:	fea42023          	sw	a0,-32(s0)
    5520:	00000593          	li	a1,0
    5524:	09100613          	li	a2,145
    5528:	14000713          	li	a4,320
    552c:	fe042783          	lw	a5,-32(s0)
    5530:	40f707b3          	sub	a5,a4,a5
    5534:	01f7d713          	srl	a4,a5,0x1f
    5538:	00f707b3          	add	a5,a4,a5
    553c:	4017d793          	sra	a5,a5,0x1
    5540:	00078693          	mv	a3,a5
    5544:	00000793          	li	a5,0
    5548:	07000713          	li	a4,112
    554c:	fe842503          	lw	a0,-24(s0)
    5550:	9cdfc0ef          	jal	1f1c <render_text>
    5554:	0480006f          	j	559c <render_select_screen+0x154>
    5558:	fe442503          	lw	a0,-28(s0)
    555c:	d29fc0ef          	jal	2284 <render_text_width>
    5560:	fea42023          	sw	a0,-32(s0)
    5564:	00000593          	li	a1,0
    5568:	09100613          	li	a2,145
    556c:	14000713          	li	a4,320
    5570:	fe042783          	lw	a5,-32(s0)
    5574:	40f707b3          	sub	a5,a4,a5
    5578:	01f7d713          	srl	a4,a5,0x1f
    557c:	00f707b3          	add	a5,a4,a5
    5580:	4017d793          	sra	a5,a5,0x1
    5584:	00078693          	mv	a3,a5
    5588:	00000793          	li	a5,0
    558c:	07000713          	li	a4,112
    5590:	fe442503          	lw	a0,-28(s0)
    5594:	989fc0ef          	jal	1f1c <render_text>
    5598:	00000013          	nop
    559c:	d64fb0ef          	jal	b00 <io_vga_flush_pixels>
    55a0:	00000013          	nop
    55a4:	01c12083          	lw	ra,28(sp)
    55a8:	01812403          	lw	s0,24(sp)
    55ac:	02010113          	add	sp,sp,32
    55b0:	00008067          	ret

000055b4 <checkers_handle_interrupt>:
    55b4:	fd010113          	add	sp,sp,-48
    55b8:	02112623          	sw	ra,44(sp)
    55bc:	02812423          	sw	s0,40(sp)
    55c0:	03010413          	add	s0,sp,48
    55c4:	fca42e23          	sw	a0,-36(s0)
    55c8:	0000f7b7          	lui	a5,0xf
    55cc:	8ac7a783          	lw	a5,-1876(a5) # e8ac <select_mode_scene>
    55d0:	0a078063          	beqz	a5,5670 <checkers_handle_interrupt+0xbc>
    55d4:	fdc42703          	lw	a4,-36(s0)
    55d8:	01100793          	li	a5,17
    55dc:	00f70a63          	beq	a4,a5,55f0 <checkers_handle_interrupt+0x3c>
    55e0:	fdc42703          	lw	a4,-36(s0)
    55e4:	01200793          	li	a5,18
    55e8:	04f70663          	beq	a4,a5,5634 <checkers_handle_interrupt+0x80>
    55ec:	07c0006f          	j	5668 <checkers_handle_interrupt+0xb4>
    55f0:	c0cfb0ef          	jal	9fc <io_switch>
    55f4:	fea42423          	sw	a0,-24(s0)
    55f8:	fe842783          	lw	a5,-24(s0)
    55fc:	2007f793          	and	a5,a5,512
    5600:	00078663          	beqz	a5,560c <checkers_handle_interrupt+0x58>
    5604:	00100793          	li	a5,1
    5608:	18c0006f          	j	5794 <checkers_handle_interrupt+0x1e0>
    560c:	fe842783          	lw	a5,-24(s0)
    5610:	0017f793          	and	a5,a5,1
    5614:	00078863          	beqz	a5,5624 <checkers_handle_interrupt+0x70>
    5618:	0000f7b7          	lui	a5,0xf
    561c:	9407a823          	sw	zero,-1712(a5) # e950 <version>
    5620:	0100006f          	j	5630 <checkers_handle_interrupt+0x7c>
    5624:	0000f7b7          	lui	a5,0xf
    5628:	00100713          	li	a4,1
    562c:	94e7a823          	sw	a4,-1712(a5) # e950 <version>
    5630:	e19ff0ef          	jal	5448 <render_select_screen>
    5634:	b40fb0ef          	jal	974 <io_button>
    5638:	00050793          	mv	a5,a0
    563c:	02078663          	beqz	a5,5668 <checkers_handle_interrupt+0xb4>
    5640:	0000f7b7          	lui	a5,0xf
    5644:	8a07a623          	sw	zero,-1876(a5) # e8ac <select_mode_scene>
    5648:	0000f7b7          	lui	a5,0xf
    564c:	9507a703          	lw	a4,-1712(a5) # e950 <version>
    5650:	0000f7b7          	lui	a5,0xf
    5654:	90878793          	add	a5,a5,-1784 # e908 <board>
    5658:	00e7a023          	sw	a4,0(a5)
    565c:	0000f7b7          	lui	a5,0xf
    5660:	90878513          	add	a0,a5,-1784 # e908 <board>
    5664:	615000ef          	jal	6478 <checkers_render>
    5668:	00000793          	li	a5,0
    566c:	1280006f          	j	5794 <checkers_handle_interrupt+0x1e0>
    5670:	fdc42703          	lw	a4,-36(s0)
    5674:	01100793          	li	a5,17
    5678:	00f70a63          	beq	a4,a5,568c <checkers_handle_interrupt+0xd8>
    567c:	fdc42703          	lw	a4,-36(s0)
    5680:	01200793          	li	a5,18
    5684:	04f70863          	beq	a4,a5,56d4 <checkers_handle_interrupt+0x120>
    5688:	1080006f          	j	5790 <checkers_handle_interrupt+0x1dc>
    568c:	000027b7          	lui	a5,0x2
    5690:	71078513          	add	a0,a5,1808 # 2710 <shuffle+0xe8>
    5694:	d69fc0ef          	jal	23fc <delay>
    5698:	b64fb0ef          	jal	9fc <io_switch>
    569c:	fea42623          	sw	a0,-20(s0)
    56a0:	fec42783          	lw	a5,-20(s0)
    56a4:	03f7f713          	and	a4,a5,63
    56a8:	0000f7b7          	lui	a5,0xf
    56ac:	90878793          	add	a5,a5,-1784 # e908 <board>
    56b0:	02e7aa23          	sw	a4,52(a5)
    56b4:	0000f7b7          	lui	a5,0xf
    56b8:	90878513          	add	a0,a5,-1784 # e908 <board>
    56bc:	5bd000ef          	jal	6478 <checkers_render>
    56c0:	fec42783          	lw	a5,-20(s0)
    56c4:	2007f793          	and	a5,a5,512
    56c8:	0c078263          	beqz	a5,578c <checkers_handle_interrupt+0x1d8>
    56cc:	00100793          	li	a5,1
    56d0:	0c40006f          	j	5794 <checkers_handle_interrupt+0x1e0>
    56d4:	000027b7          	lui	a5,0x2
    56d8:	71078513          	add	a0,a5,1808 # 2710 <shuffle+0xe8>
    56dc:	d21fc0ef          	jal	23fc <delay>
    56e0:	a94fb0ef          	jal	974 <io_button>
    56e4:	00050793          	mv	a5,a0
    56e8:	08078a63          	beqz	a5,577c <checkers_handle_interrupt+0x1c8>
    56ec:	0000f7b7          	lui	a5,0xf
    56f0:	90878513          	add	a0,a5,-1784 # e908 <board>
    56f4:	fe0ff0ef          	jal	4ed4 <checkers_can_make_move>
    56f8:	00050793          	mv	a5,a0
    56fc:	00078a63          	beqz	a5,5710 <checkers_handle_interrupt+0x15c>
    5700:	0000f7b7          	lui	a5,0xf
    5704:	90878513          	add	a0,a5,-1784 # e908 <board>
    5708:	985ff0ef          	jal	508c <checkers_make_move>
    570c:	0840006f          	j	5790 <checkers_handle_interrupt+0x1dc>
    5710:	0000f7b7          	lui	a5,0xf
    5714:	90878793          	add	a5,a5,-1784 # e908 <board>
    5718:	0307a703          	lw	a4,48(a5)
    571c:	0000f7b7          	lui	a5,0xf
    5720:	90878793          	add	a5,a5,-1784 # e908 <board>
    5724:	0347a783          	lw	a5,52(a5)
    5728:	02f71863          	bne	a4,a5,5758 <checkers_handle_interrupt+0x1a4>
    572c:	0000f7b7          	lui	a5,0xf
    5730:	90878793          	add	a5,a5,-1784 # e908 <board>
    5734:	fff00713          	li	a4,-1
    5738:	02e7a823          	sw	a4,48(a5)
    573c:	0000f7b7          	lui	a5,0xf
    5740:	90878793          	add	a5,a5,-1784 # e908 <board>
    5744:	00000693          	li	a3,0
    5748:	00000713          	li	a4,0
    574c:	02d7a423          	sw	a3,40(a5)
    5750:	02e7a623          	sw	a4,44(a5)
    5754:	0280006f          	j	577c <checkers_handle_interrupt+0x1c8>
    5758:	0000f7b7          	lui	a5,0xf
    575c:	90878793          	add	a5,a5,-1784 # e908 <board>
    5760:	0347a703          	lw	a4,52(a5)
    5764:	0000f7b7          	lui	a5,0xf
    5768:	90878793          	add	a5,a5,-1784 # e908 <board>
    576c:	02e7a823          	sw	a4,48(a5)
    5770:	0000f7b7          	lui	a5,0xf
    5774:	90878513          	add	a0,a5,-1784 # e908 <board>
    5778:	e58ff0ef          	jal	4dd0 <checkers_get_available_moves>
    577c:	0000f7b7          	lui	a5,0xf
    5780:	90878513          	add	a0,a5,-1784 # e908 <board>
    5784:	4f5000ef          	jal	6478 <checkers_render>
    5788:	0080006f          	j	5790 <checkers_handle_interrupt+0x1dc>
    578c:	00000013          	nop
    5790:	00000793          	li	a5,0
    5794:	00078513          	mv	a0,a5
    5798:	02c12083          	lw	ra,44(sp)
    579c:	02812403          	lw	s0,40(sp)
    57a0:	03010113          	add	sp,sp,48
    57a4:	00008067          	ret

000057a8 <checkers_handler_reset>:
    57a8:	fa010113          	add	sp,sp,-96
    57ac:	04112e23          	sw	ra,92(sp)
    57b0:	04812c23          	sw	s0,88(sp)
    57b4:	04912a23          	sw	s1,84(sp)
    57b8:	06010413          	add	s0,sp,96
    57bc:	0000f7b7          	lui	a5,0xf
    57c0:	90878493          	add	s1,a5,-1784 # e908 <board>
    57c4:	fa040793          	add	a5,s0,-96
    57c8:	00078513          	mv	a0,a5
    57cc:	bd8fe0ef          	jal	3ba4 <checkers_get_starting_board>
    57d0:	00048693          	mv	a3,s1
    57d4:	fa040793          	add	a5,s0,-96
    57d8:	04800713          	li	a4,72
    57dc:	00070613          	mv	a2,a4
    57e0:	00078593          	mv	a1,a5
    57e4:	00068513          	mv	a0,a3
    57e8:	a29fa0ef          	jal	210 <memcpy>
    57ec:	469000ef          	jal	6454 <checkers_render_reset>
    57f0:	0000f7b7          	lui	a5,0xf
    57f4:	9407a823          	sw	zero,-1712(a5) # e950 <version>
    57f8:	0000f7b7          	lui	a5,0xf
    57fc:	00100713          	li	a4,1
    5800:	8ae7a623          	sw	a4,-1876(a5) # e8ac <select_mode_scene>
    5804:	0000f7b7          	lui	a5,0xf
    5808:	9007a023          	sw	zero,-1792(a5) # e900 <has_rendered>
    580c:	0000f7b7          	lui	a5,0xf
    5810:	9007a223          	sw	zero,-1788(a5) # e904 <has_rendered_background>
    5814:	00000013          	nop
    5818:	05c12083          	lw	ra,92(sp)
    581c:	05812403          	lw	s0,88(sp)
    5820:	05412483          	lw	s1,84(sp)
    5824:	06010113          	add	sp,sp,96
    5828:	00008067          	ret

0000582c <checkers_handler_render>:
    582c:	ff010113          	add	sp,sp,-16
    5830:	00112623          	sw	ra,12(sp)
    5834:	00812423          	sw	s0,8(sp)
    5838:	01010413          	add	s0,sp,16
    583c:	0000f7b7          	lui	a5,0xf
    5840:	9007a783          	lw	a5,-1792(a5) # e900 <has_rendered>
    5844:	00079a63          	bnez	a5,5858 <checkers_handler_render+0x2c>
    5848:	c01ff0ef          	jal	5448 <render_select_screen>
    584c:	0000f7b7          	lui	a5,0xf
    5850:	00100713          	li	a4,1
    5854:	90e7a023          	sw	a4,-1792(a5) # e900 <has_rendered>
    5858:	00000013          	nop
    585c:	00c12083          	lw	ra,12(sp)
    5860:	00812403          	lw	s0,8(sp)
    5864:	01010113          	add	sp,sp,16
    5868:	00008067          	ret

0000586c <get_rendering_mask>:
    586c:	f7010113          	add	sp,sp,-144
    5870:	08812623          	sw	s0,140(sp)
    5874:	09212423          	sw	s2,136(sp)
    5878:	09312223          	sw	s3,132(sp)
    587c:	09412023          	sw	s4,128(sp)
    5880:	07512e23          	sw	s5,124(sp)
    5884:	07612c23          	sw	s6,120(sp)
    5888:	07712a23          	sw	s7,116(sp)
    588c:	07812823          	sw	s8,112(sp)
    5890:	07912623          	sw	s9,108(sp)
    5894:	07a12423          	sw	s10,104(sp)
    5898:	07b12223          	sw	s11,100(sp)
    589c:	09010413          	add	s0,sp,144
    58a0:	f8a42e23          	sw	a0,-100(s0)
    58a4:	f8b42c23          	sw	a1,-104(s0)
    58a8:	00000713          	li	a4,0
    58ac:	00000793          	li	a5,0
    58b0:	fce42423          	sw	a4,-56(s0)
    58b4:	fcf42623          	sw	a5,-52(s0)
    58b8:	f9c42783          	lw	a5,-100(s0)
    58bc:	0087a503          	lw	a0,8(a5)
    58c0:	00c7a583          	lw	a1,12(a5)
    58c4:	f9842783          	lw	a5,-104(s0)
    58c8:	0087a703          	lw	a4,8(a5)
    58cc:	00c7a783          	lw	a5,12(a5)
    58d0:	00e546b3          	xor	a3,a0,a4
    58d4:	fcd42023          	sw	a3,-64(s0)
    58d8:	00f5c7b3          	xor	a5,a1,a5
    58dc:	fcf42223          	sw	a5,-60(s0)
    58e0:	f9c42783          	lw	a5,-100(s0)
    58e4:	0187a503          	lw	a0,24(a5)
    58e8:	01c7a583          	lw	a1,28(a5)
    58ec:	f9842783          	lw	a5,-104(s0)
    58f0:	0187a703          	lw	a4,24(a5)
    58f4:	01c7a783          	lw	a5,28(a5)
    58f8:	00e546b3          	xor	a3,a0,a4
    58fc:	fad42c23          	sw	a3,-72(s0)
    5900:	00f5c7b3          	xor	a5,a1,a5
    5904:	faf42e23          	sw	a5,-68(s0)
    5908:	f9c42783          	lw	a5,-100(s0)
    590c:	0107a503          	lw	a0,16(a5)
    5910:	0147a583          	lw	a1,20(a5)
    5914:	f9842783          	lw	a5,-104(s0)
    5918:	0107a703          	lw	a4,16(a5)
    591c:	0147a783          	lw	a5,20(a5)
    5920:	00e546b3          	xor	a3,a0,a4
    5924:	fad42823          	sw	a3,-80(s0)
    5928:	00f5c7b3          	xor	a5,a1,a5
    592c:	faf42a23          	sw	a5,-76(s0)
    5930:	f9c42783          	lw	a5,-100(s0)
    5934:	0207a503          	lw	a0,32(a5)
    5938:	0247a583          	lw	a1,36(a5)
    593c:	f9842783          	lw	a5,-104(s0)
    5940:	0207a703          	lw	a4,32(a5)
    5944:	0247a783          	lw	a5,36(a5)
    5948:	00e546b3          	xor	a3,a0,a4
    594c:	fad42423          	sw	a3,-88(s0)
    5950:	00f5c7b3          	xor	a5,a1,a5
    5954:	faf42623          	sw	a5,-84(s0)
    5958:	f9c42783          	lw	a5,-100(s0)
    595c:	0287a503          	lw	a0,40(a5)
    5960:	02c7a583          	lw	a1,44(a5)
    5964:	f9842783          	lw	a5,-104(s0)
    5968:	0287a703          	lw	a4,40(a5)
    596c:	02c7a783          	lw	a5,44(a5)
    5970:	00e546b3          	xor	a3,a0,a4
    5974:	fad42023          	sw	a3,-96(s0)
    5978:	00f5c7b3          	xor	a5,a1,a5
    597c:	faf42223          	sw	a5,-92(s0)
    5980:	f9c42783          	lw	a5,-100(s0)
    5984:	0307a703          	lw	a4,48(a5)
    5988:	f9842783          	lw	a5,-104(s0)
    598c:	0307a783          	lw	a5,48(a5)
    5990:	0ef70463          	beq	a4,a5,5a78 <get_rendering_mask+0x20c>
    5994:	f9842783          	lw	a5,-104(s0)
    5998:	0307a783          	lw	a5,48(a5)
    599c:	00078693          	mv	a3,a5
    59a0:	fe068713          	add	a4,a3,-32
    59a4:	00074a63          	bltz	a4,59b8 <get_rendering_mask+0x14c>
    59a8:	00100793          	li	a5,1
    59ac:	00e79fb3          	sll	t6,a5,a4
    59b0:	00000f13          	li	t5,0
    59b4:	02c0006f          	j	59e0 <get_rendering_mask+0x174>
    59b8:	00100793          	li	a5,1
    59bc:	0017d713          	srl	a4,a5,0x1
    59c0:	01f00793          	li	a5,31
    59c4:	40d787b3          	sub	a5,a5,a3
    59c8:	00f75733          	srl	a4,a4,a5
    59cc:	00000793          	li	a5,0
    59d0:	00d79fb3          	sll	t6,a5,a3
    59d4:	01f76fb3          	or	t6,a4,t6
    59d8:	00100793          	li	a5,1
    59dc:	00d79f33          	sll	t5,a5,a3
    59e0:	fc842783          	lw	a5,-56(s0)
    59e4:	01e7e7b3          	or	a5,a5,t5
    59e8:	f8f42823          	sw	a5,-112(s0)
    59ec:	fcc42783          	lw	a5,-52(s0)
    59f0:	01f7e7b3          	or	a5,a5,t6
    59f4:	f8f42a23          	sw	a5,-108(s0)
    59f8:	f9042703          	lw	a4,-112(s0)
    59fc:	f9442783          	lw	a5,-108(s0)
    5a00:	fce42423          	sw	a4,-56(s0)
    5a04:	fcf42623          	sw	a5,-52(s0)
    5a08:	f9c42783          	lw	a5,-100(s0)
    5a0c:	0307a783          	lw	a5,48(a5)
    5a10:	fe078713          	add	a4,a5,-32
    5a14:	00074a63          	bltz	a4,5a28 <get_rendering_mask+0x1bc>
    5a18:	00100793          	li	a5,1
    5a1c:	00e79eb3          	sll	t4,a5,a4
    5a20:	00000e13          	li	t3,0
    5a24:	02c0006f          	j	5a50 <get_rendering_mask+0x1e4>
    5a28:	00100713          	li	a4,1
    5a2c:	00175693          	srl	a3,a4,0x1
    5a30:	01f00713          	li	a4,31
    5a34:	40f70733          	sub	a4,a4,a5
    5a38:	00e6d733          	srl	a4,a3,a4
    5a3c:	00000693          	li	a3,0
    5a40:	00f69eb3          	sll	t4,a3,a5
    5a44:	01d76eb3          	or	t4,a4,t4
    5a48:	00100713          	li	a4,1
    5a4c:	00f71e33          	sll	t3,a4,a5
    5a50:	fc842783          	lw	a5,-56(s0)
    5a54:	01c7e7b3          	or	a5,a5,t3
    5a58:	f8f42423          	sw	a5,-120(s0)
    5a5c:	fcc42783          	lw	a5,-52(s0)
    5a60:	01d7e7b3          	or	a5,a5,t4
    5a64:	f8f42623          	sw	a5,-116(s0)
    5a68:	f8842703          	lw	a4,-120(s0)
    5a6c:	f8c42783          	lw	a5,-116(s0)
    5a70:	fce42423          	sw	a4,-56(s0)
    5a74:	fcf42623          	sw	a5,-52(s0)
    5a78:	f9c42783          	lw	a5,-100(s0)
    5a7c:	0347a703          	lw	a4,52(a5)
    5a80:	f9842783          	lw	a5,-104(s0)
    5a84:	0347a783          	lw	a5,52(a5)
    5a88:	0ef70263          	beq	a4,a5,5b6c <get_rendering_mask+0x300>
    5a8c:	f9842783          	lw	a5,-104(s0)
    5a90:	0347a783          	lw	a5,52(a5)
    5a94:	fe078713          	add	a4,a5,-32
    5a98:	00074a63          	bltz	a4,5aac <get_rendering_mask+0x240>
    5a9c:	00100793          	li	a5,1
    5aa0:	00e793b3          	sll	t2,a5,a4
    5aa4:	00000313          	li	t1,0
    5aa8:	02c0006f          	j	5ad4 <get_rendering_mask+0x268>
    5aac:	00100713          	li	a4,1
    5ab0:	00175693          	srl	a3,a4,0x1
    5ab4:	01f00713          	li	a4,31
    5ab8:	40f70733          	sub	a4,a4,a5
    5abc:	00e6d733          	srl	a4,a3,a4
    5ac0:	00000693          	li	a3,0
    5ac4:	00f693b3          	sll	t2,a3,a5
    5ac8:	007763b3          	or	t2,a4,t2
    5acc:	00100713          	li	a4,1
    5ad0:	00f71333          	sll	t1,a4,a5
    5ad4:	fc842783          	lw	a5,-56(s0)
    5ad8:	0067e7b3          	or	a5,a5,t1
    5adc:	f8f42023          	sw	a5,-128(s0)
    5ae0:	fcc42783          	lw	a5,-52(s0)
    5ae4:	0077e7b3          	or	a5,a5,t2
    5ae8:	f8f42223          	sw	a5,-124(s0)
    5aec:	f8042703          	lw	a4,-128(s0)
    5af0:	f8442783          	lw	a5,-124(s0)
    5af4:	fce42423          	sw	a4,-56(s0)
    5af8:	fcf42623          	sw	a5,-52(s0)
    5afc:	f9c42783          	lw	a5,-100(s0)
    5b00:	0347a783          	lw	a5,52(a5)
    5b04:	fe078713          	add	a4,a5,-32
    5b08:	00074a63          	bltz	a4,5b1c <get_rendering_mask+0x2b0>
    5b0c:	00100793          	li	a5,1
    5b10:	00e798b3          	sll	a7,a5,a4
    5b14:	00000813          	li	a6,0
    5b18:	02c0006f          	j	5b44 <get_rendering_mask+0x2d8>
    5b1c:	00100713          	li	a4,1
    5b20:	00175693          	srl	a3,a4,0x1
    5b24:	01f00713          	li	a4,31
    5b28:	40f70733          	sub	a4,a4,a5
    5b2c:	00e6d733          	srl	a4,a3,a4
    5b30:	00000693          	li	a3,0
    5b34:	00f698b3          	sll	a7,a3,a5
    5b38:	011768b3          	or	a7,a4,a7
    5b3c:	00100713          	li	a4,1
    5b40:	00f71833          	sll	a6,a4,a5
    5b44:	fc842783          	lw	a5,-56(s0)
    5b48:	0107e7b3          	or	a5,a5,a6
    5b4c:	f6f42c23          	sw	a5,-136(s0)
    5b50:	fcc42783          	lw	a5,-52(s0)
    5b54:	0117e7b3          	or	a5,a5,a7
    5b58:	f6f42e23          	sw	a5,-132(s0)
    5b5c:	f7842783          	lw	a5,-136(s0)
    5b60:	f7c42803          	lw	a6,-132(s0)
    5b64:	fcf42423          	sw	a5,-56(s0)
    5b68:	fd042623          	sw	a6,-52(s0)
    5b6c:	fc042703          	lw	a4,-64(s0)
    5b70:	fb842783          	lw	a5,-72(s0)
    5b74:	00f76c33          	or	s8,a4,a5
    5b78:	fc442703          	lw	a4,-60(s0)
    5b7c:	fbc42783          	lw	a5,-68(s0)
    5b80:	00f76cb3          	or	s9,a4,a5
    5b84:	fb042783          	lw	a5,-80(s0)
    5b88:	0187eb33          	or	s6,a5,s8
    5b8c:	fb442783          	lw	a5,-76(s0)
    5b90:	0197ebb3          	or	s7,a5,s9
    5b94:	fa842783          	lw	a5,-88(s0)
    5b98:	0167ea33          	or	s4,a5,s6
    5b9c:	fac42783          	lw	a5,-84(s0)
    5ba0:	0177eab3          	or	s5,a5,s7
    5ba4:	fa042783          	lw	a5,-96(s0)
    5ba8:	0147e933          	or	s2,a5,s4
    5bac:	fa442783          	lw	a5,-92(s0)
    5bb0:	0157e9b3          	or	s3,a5,s5
    5bb4:	fc842783          	lw	a5,-56(s0)
    5bb8:	0127ed33          	or	s10,a5,s2
    5bbc:	fcc42783          	lw	a5,-52(s0)
    5bc0:	0137edb3          	or	s11,a5,s3
    5bc4:	fda42423          	sw	s10,-56(s0)
    5bc8:	fdb42623          	sw	s11,-52(s0)
    5bcc:	fc842703          	lw	a4,-56(s0)
    5bd0:	fcc42783          	lw	a5,-52(s0)
    5bd4:	00070513          	mv	a0,a4
    5bd8:	00078593          	mv	a1,a5
    5bdc:	08c12403          	lw	s0,140(sp)
    5be0:	08812903          	lw	s2,136(sp)
    5be4:	08412983          	lw	s3,132(sp)
    5be8:	08012a03          	lw	s4,128(sp)
    5bec:	07c12a83          	lw	s5,124(sp)
    5bf0:	07812b03          	lw	s6,120(sp)
    5bf4:	07412b83          	lw	s7,116(sp)
    5bf8:	07012c03          	lw	s8,112(sp)
    5bfc:	06c12c83          	lw	s9,108(sp)
    5c00:	06812d03          	lw	s10,104(sp)
    5c04:	06412d83          	lw	s11,100(sp)
    5c08:	09010113          	add	sp,sp,144
    5c0c:	00008067          	ret

00005c10 <get_background_color>:
    5c10:	fd010113          	add	sp,sp,-48
    5c14:	02812623          	sw	s0,44(sp)
    5c18:	03010413          	add	s0,sp,48
    5c1c:	fca42e23          	sw	a0,-36(s0)
    5c20:	fcb42c23          	sw	a1,-40(s0)
    5c24:	04000793          	li	a5,64
    5c28:	fdc42703          	lw	a4,-36(s0)
    5c2c:	08f74663          	blt	a4,a5,5cb8 <get_background_color+0xa8>
    5c30:	04000713          	li	a4,64
    5c34:	0c000793          	li	a5,192
    5c38:	00f707b3          	add	a5,a4,a5
    5c3c:	fdc42703          	lw	a4,-36(s0)
    5c40:	06f75c63          	bge	a4,a5,5cb8 <get_background_color+0xa8>
    5c44:	01800793          	li	a5,24
    5c48:	fd842703          	lw	a4,-40(s0)
    5c4c:	06f74663          	blt	a4,a5,5cb8 <get_background_color+0xa8>
    5c50:	01800713          	li	a4,24
    5c54:	0c000793          	li	a5,192
    5c58:	00f707b3          	add	a5,a4,a5
    5c5c:	fd842703          	lw	a4,-40(s0)
    5c60:	04f75c63          	bge	a4,a5,5cb8 <get_background_color+0xa8>
    5c64:	04000793          	li	a5,64
    5c68:	fdc42703          	lw	a4,-36(s0)
    5c6c:	40f70733          	sub	a4,a4,a5
    5c70:	01800793          	li	a5,24
    5c74:	02f747b3          	div	a5,a4,a5
    5c78:	fef42623          	sw	a5,-20(s0)
    5c7c:	01800793          	li	a5,24
    5c80:	fd842703          	lw	a4,-40(s0)
    5c84:	40f70733          	sub	a4,a4,a5
    5c88:	01800793          	li	a5,24
    5c8c:	02f747b3          	div	a5,a4,a5
    5c90:	fef42423          	sw	a5,-24(s0)
    5c94:	fec42703          	lw	a4,-20(s0)
    5c98:	fe842783          	lw	a5,-24(s0)
    5c9c:	00f707b3          	add	a5,a4,a5
    5ca0:	0017f793          	and	a5,a5,1
    5ca4:	00079663          	bnez	a5,5cb0 <get_background_color+0xa0>
    5ca8:	0da00793          	li	a5,218
    5cac:	0100006f          	j	5cbc <get_background_color+0xac>
    5cb0:	06d00793          	li	a5,109
    5cb4:	0080006f          	j	5cbc <get_background_color+0xac>
    5cb8:	09100793          	li	a5,145
    5cbc:	00078513          	mv	a0,a5
    5cc0:	02c12403          	lw	s0,44(sp)
    5cc4:	03010113          	add	sp,sp,48
    5cc8:	00008067          	ret

00005ccc <render_star>:
    5ccc:	fd010113          	add	sp,sp,-48
    5cd0:	02112623          	sw	ra,44(sp)
    5cd4:	02812423          	sw	s0,40(sp)
    5cd8:	03010413          	add	s0,sp,48
    5cdc:	fca42e23          	sw	a0,-36(s0)
    5ce0:	fcb42c23          	sw	a1,-40(s0)
    5ce4:	fcc42a23          	sw	a2,-44(s0)
    5ce8:	01800713          	li	a4,24
    5cec:	fdc42783          	lw	a5,-36(s0)
    5cf0:	02f70733          	mul	a4,a4,a5
    5cf4:	04000793          	li	a5,64
    5cf8:	00f707b3          	add	a5,a4,a5
    5cfc:	00278793          	add	a5,a5,2
    5d00:	fef42623          	sw	a5,-20(s0)
    5d04:	01800713          	li	a4,24
    5d08:	fd842783          	lw	a5,-40(s0)
    5d0c:	02f70733          	mul	a4,a4,a5
    5d10:	01800793          	li	a5,24
    5d14:	00f707b3          	add	a5,a4,a5
    5d18:	00278793          	add	a5,a5,2
    5d1c:	fef42423          	sw	a5,-24(s0)
    5d20:	fec42783          	lw	a5,-20(s0)
    5d24:	00678513          	add	a0,a5,6
    5d28:	fe842783          	lw	a5,-24(s0)
    5d2c:	00578593          	add	a1,a5,5
    5d30:	fd442783          	lw	a5,-44(s0)
    5d34:	00079663          	bnez	a5,5d40 <render_star+0x74>
    5d38:	08000793          	li	a5,128
    5d3c:	0080006f          	j	5d44 <render_star+0x78>
    5d40:	00000793          	li	a5,0
    5d44:	fef40223          	sb	a5,-28(s0)
    5d48:	fe440793          	add	a5,s0,-28
    5d4c:	00100713          	li	a4,1
    5d50:	00078693          	mv	a3,a5
    5d54:	00600613          	li	a2,6
    5d58:	8e8fb0ef          	jal	e40 <render_sprite>
    5d5c:	00000013          	nop
    5d60:	02c12083          	lw	ra,44(sp)
    5d64:	02812403          	lw	s0,40(sp)
    5d68:	03010113          	add	sp,sp,48
    5d6c:	00008067          	ret

00005d70 <render_tile>:
    5d70:	fb010113          	add	sp,sp,-80
    5d74:	04112623          	sw	ra,76(sp)
    5d78:	04812423          	sw	s0,72(sp)
    5d7c:	05212223          	sw	s2,68(sp)
    5d80:	05312023          	sw	s3,64(sp)
    5d84:	03412e23          	sw	s4,60(sp)
    5d88:	03512c23          	sw	s5,56(sp)
    5d8c:	05010413          	add	s0,sp,80
    5d90:	faa42e23          	sw	a0,-68(s0)
    5d94:	fab42c23          	sw	a1,-72(s0)
    5d98:	fac42a23          	sw	a2,-76(s0)
    5d9c:	01800713          	li	a4,24
    5da0:	fb842783          	lw	a5,-72(s0)
    5da4:	02f70733          	mul	a4,a4,a5
    5da8:	04000793          	li	a5,64
    5dac:	00f707b3          	add	a5,a4,a5
    5db0:	fcf42c23          	sw	a5,-40(s0)
    5db4:	01800713          	li	a4,24
    5db8:	fb442783          	lw	a5,-76(s0)
    5dbc:	02f70733          	mul	a4,a4,a5
    5dc0:	01800793          	li	a5,24
    5dc4:	00f707b3          	add	a5,a4,a5
    5dc8:	fcf42a23          	sw	a5,-44(s0)
    5dcc:	fb842703          	lw	a4,-72(s0)
    5dd0:	fb442783          	lw	a5,-76(s0)
    5dd4:	00f707b3          	add	a5,a4,a5
    5dd8:	0017f793          	and	a5,a5,1
    5ddc:	00078663          	beqz	a5,5de8 <render_tile+0x78>
    5de0:	06d00793          	li	a5,109
    5de4:	0080006f          	j	5dec <render_tile+0x7c>
    5de8:	0da00793          	li	a5,218
    5dec:	fcf40fa3          	sb	a5,-33(s0)
    5df0:	fbc42783          	lw	a5,-68(s0)
    5df4:	0307a703          	lw	a4,48(a5)
    5df8:	fb442783          	lw	a5,-76(s0)
    5dfc:	00379693          	sll	a3,a5,0x3
    5e00:	fb842783          	lw	a5,-72(s0)
    5e04:	00f687b3          	add	a5,a3,a5
    5e08:	00f71663          	bne	a4,a5,5e14 <render_tile+0xa4>
    5e0c:	fd900793          	li	a5,-39
    5e10:	fcf40fa3          	sb	a5,-33(s0)
    5e14:	01800793          	li	a5,24
    5e18:	01800693          	li	a3,24
    5e1c:	fdf44703          	lbu	a4,-33(s0)
    5e20:	00078613          	mv	a2,a5
    5e24:	fd442583          	lw	a1,-44(s0)
    5e28:	fd842503          	lw	a0,-40(s0)
    5e2c:	ed4fb0ef          	jal	1500 <render_rect_fill>
    5e30:	fb442583          	lw	a1,-76(s0)
    5e34:	fb842503          	lw	a0,-72(s0)
    5e38:	f99fd0ef          	jal	3dd0 <checkers_valid_tile>
    5e3c:	00050793          	mv	a5,a0
    5e40:	0e078263          	beqz	a5,5f24 <render_tile+0x1b4>
    5e44:	fb442603          	lw	a2,-76(s0)
    5e48:	fb842583          	lw	a1,-72(s0)
    5e4c:	fbc42503          	lw	a0,-68(s0)
    5e50:	884fe0ef          	jal	3ed4 <checkers_has_tile>
    5e54:	00050793          	mv	a5,a0
    5e58:	0c078663          	beqz	a5,5f24 <render_tile+0x1b4>
    5e5c:	fb442603          	lw	a2,-76(s0)
    5e60:	fb842583          	lw	a1,-72(s0)
    5e64:	fbc42503          	lw	a0,-68(s0)
    5e68:	9c0fe0ef          	jal	4028 <checkers_get_tile>
    5e6c:	fca42823          	sw	a0,-48(s0)
    5e70:	fd042503          	lw	a0,-48(s0)
    5e74:	ea9fd0ef          	jal	3d1c <checkers_player_from_piece>
    5e78:	fca42623          	sw	a0,-52(s0)
    5e7c:	fcc42783          	lw	a5,-52(s0)
    5e80:	00079663          	bnez	a5,5e8c <render_tile+0x11c>
    5e84:	0c400793          	li	a5,196
    5e88:	0080006f          	j	5e90 <render_tile+0x120>
    5e8c:	04900793          	li	a5,73
    5e90:	fcf42423          	sw	a5,-56(s0)
    5e94:	fcc42783          	lw	a5,-52(s0)
    5e98:	00079663          	bnez	a5,5ea4 <render_tile+0x134>
    5e9c:	08000793          	li	a5,128
    5ea0:	0080006f          	j	5ea8 <render_tile+0x138>
    5ea4:	00000793          	li	a5,0
    5ea8:	fcf42223          	sw	a5,-60(s0)
    5eac:	fd842783          	lw	a5,-40(s0)
    5eb0:	00278713          	add	a4,a5,2
    5eb4:	fd442783          	lw	a5,-44(s0)
    5eb8:	00278793          	add	a5,a5,2
    5ebc:	fc442683          	lw	a3,-60(s0)
    5ec0:	0ff6f693          	zext.b	a3,a3
    5ec4:	00068613          	mv	a2,a3
    5ec8:	00078593          	mv	a1,a5
    5ecc:	00070513          	mv	a0,a4
    5ed0:	edcfb0ef          	jal	15ac <render_20x20_circle>
    5ed4:	fd842783          	lw	a5,-40(s0)
    5ed8:	00678713          	add	a4,a5,6
    5edc:	fd442783          	lw	a5,-44(s0)
    5ee0:	00678793          	add	a5,a5,6
    5ee4:	fc842683          	lw	a3,-56(s0)
    5ee8:	0ff6f693          	zext.b	a3,a3
    5eec:	00068613          	mv	a2,a3
    5ef0:	00078593          	mv	a1,a5
    5ef4:	00070513          	mv	a0,a4
    5ef8:	fc8fb0ef          	jal	16c0 <render_12x12_circle>
    5efc:	fd042703          	lw	a4,-48(s0)
    5f00:	00200793          	li	a5,2
    5f04:	00f70863          	beq	a4,a5,5f14 <render_tile+0x1a4>
    5f08:	fd042703          	lw	a4,-48(s0)
    5f0c:	00300793          	li	a5,3
    5f10:	00f71a63          	bne	a4,a5,5f24 <render_tile+0x1b4>
    5f14:	fcc42603          	lw	a2,-52(s0)
    5f18:	fb442583          	lw	a1,-76(s0)
    5f1c:	fb842503          	lw	a0,-72(s0)
    5f20:	dadff0ef          	jal	5ccc <render_star>
    5f24:	fbc42783          	lw	a5,-68(s0)
    5f28:	0287a703          	lw	a4,40(a5)
    5f2c:	02c7a783          	lw	a5,44(a5)
    5f30:	fb442683          	lw	a3,-76(s0)
    5f34:	00369693          	sll	a3,a3,0x3
    5f38:	00068613          	mv	a2,a3
    5f3c:	fb842683          	lw	a3,-72(s0)
    5f40:	00d606b3          	add	a3,a2,a3
    5f44:	fe068613          	add	a2,a3,-32
    5f48:	00064863          	bltz	a2,5f58 <render_tile+0x1e8>
    5f4c:	00c7d933          	srl	s2,a5,a2
    5f50:	00000993          	li	s3,0
    5f54:	0200006f          	j	5f74 <render_tile+0x204>
    5f58:	00179593          	sll	a1,a5,0x1
    5f5c:	01f00613          	li	a2,31
    5f60:	40d60633          	sub	a2,a2,a3
    5f64:	00c59633          	sll	a2,a1,a2
    5f68:	00d75933          	srl	s2,a4,a3
    5f6c:	01266933          	or	s2,a2,s2
    5f70:	00d7d9b3          	srl	s3,a5,a3
    5f74:	00197a13          	and	s4,s2,1
    5f78:	0009fa93          	and	s5,s3,0
    5f7c:	000a0793          	mv	a5,s4
    5f80:	0157e7b3          	or	a5,a5,s5
    5f84:	04078063          	beqz	a5,5fc4 <render_tile+0x254>
    5f88:	fd842783          	lw	a5,-40(s0)
    5f8c:	00878693          	add	a3,a5,8
    5f90:	fd442783          	lw	a5,-44(s0)
    5f94:	00878593          	add	a1,a5,8
    5f98:	fb842703          	lw	a4,-72(s0)
    5f9c:	fb442783          	lw	a5,-76(s0)
    5fa0:	00f707b3          	add	a5,a4,a5
    5fa4:	0017f793          	and	a5,a5,1
    5fa8:	00078663          	beqz	a5,5fb4 <render_tile+0x244>
    5fac:	04900793          	li	a5,73
    5fb0:	0080006f          	j	5fb8 <render_tile+0x248>
    5fb4:	09200793          	li	a5,146
    5fb8:	00078613          	mv	a2,a5
    5fbc:	00068513          	mv	a0,a3
    5fc0:	89dfb0ef          	jal	185c <render_8x8_circle>
    5fc4:	fbc42783          	lw	a5,-68(s0)
    5fc8:	0347a703          	lw	a4,52(a5)
    5fcc:	fb442783          	lw	a5,-76(s0)
    5fd0:	00379693          	sll	a3,a5,0x3
    5fd4:	fb842783          	lw	a5,-72(s0)
    5fd8:	00f687b3          	add	a5,a3,a5
    5fdc:	12f71663          	bne	a4,a5,6108 <render_tile+0x398>
    5fe0:	00600793          	li	a5,6
    5fe4:	fcf42023          	sw	a5,-64(s0)
    5fe8:	01800793          	li	a5,24
    5fec:	01800693          	li	a3,24
    5ff0:	0c400713          	li	a4,196
    5ff4:	00078613          	mv	a2,a5
    5ff8:	fd442583          	lw	a1,-44(s0)
    5ffc:	fd842503          	lw	a0,-40(s0)
    6000:	be0fb0ef          	jal	13e0 <render_rect_border>
    6004:	fd842783          	lw	a5,-40(s0)
    6008:	00178513          	add	a0,a5,1
    600c:	fd442783          	lw	a5,-44(s0)
    6010:	00178593          	add	a1,a5,1
    6014:	01800793          	li	a5,24
    6018:	ffe78613          	add	a2,a5,-2
    601c:	01800793          	li	a5,24
    6020:	ffe78793          	add	a5,a5,-2
    6024:	0c400713          	li	a4,196
    6028:	00078693          	mv	a3,a5
    602c:	bb4fb0ef          	jal	13e0 <render_rect_border>
    6030:	fd442703          	lw	a4,-44(s0)
    6034:	fc042783          	lw	a5,-64(s0)
    6038:	00f705b3          	add	a1,a4,a5
    603c:	01800713          	li	a4,24
    6040:	fc042783          	lw	a5,-64(s0)
    6044:	00179793          	sll	a5,a5,0x1
    6048:	40f707b3          	sub	a5,a4,a5
    604c:	fdf44703          	lbu	a4,-33(s0)
    6050:	00078693          	mv	a3,a5
    6054:	00200613          	li	a2,2
    6058:	fd842503          	lw	a0,-40(s0)
    605c:	ca4fb0ef          	jal	1500 <render_rect_fill>
    6060:	fd842703          	lw	a4,-40(s0)
    6064:	fc042783          	lw	a5,-64(s0)
    6068:	00f70533          	add	a0,a4,a5
    606c:	01800713          	li	a4,24
    6070:	fc042783          	lw	a5,-64(s0)
    6074:	00179793          	sll	a5,a5,0x1
    6078:	40f707b3          	sub	a5,a4,a5
    607c:	fdf44703          	lbu	a4,-33(s0)
    6080:	00200693          	li	a3,2
    6084:	00078613          	mv	a2,a5
    6088:	fd442583          	lw	a1,-44(s0)
    608c:	c74fb0ef          	jal	1500 <render_rect_fill>
    6090:	01800713          	li	a4,24
    6094:	fd842783          	lw	a5,-40(s0)
    6098:	00f707b3          	add	a5,a4,a5
    609c:	ffe78513          	add	a0,a5,-2
    60a0:	fd442703          	lw	a4,-44(s0)
    60a4:	fc042783          	lw	a5,-64(s0)
    60a8:	00f705b3          	add	a1,a4,a5
    60ac:	01800713          	li	a4,24
    60b0:	fc042783          	lw	a5,-64(s0)
    60b4:	00179793          	sll	a5,a5,0x1
    60b8:	40f707b3          	sub	a5,a4,a5
    60bc:	fdf44703          	lbu	a4,-33(s0)
    60c0:	00078693          	mv	a3,a5
    60c4:	00200613          	li	a2,2
    60c8:	c38fb0ef          	jal	1500 <render_rect_fill>
    60cc:	fd842703          	lw	a4,-40(s0)
    60d0:	fc042783          	lw	a5,-64(s0)
    60d4:	00f70533          	add	a0,a4,a5
    60d8:	01800713          	li	a4,24
    60dc:	fd442783          	lw	a5,-44(s0)
    60e0:	00f707b3          	add	a5,a4,a5
    60e4:	ffe78593          	add	a1,a5,-2
    60e8:	01800713          	li	a4,24
    60ec:	fc042783          	lw	a5,-64(s0)
    60f0:	00179793          	sll	a5,a5,0x1
    60f4:	40f707b3          	sub	a5,a4,a5
    60f8:	fdf44703          	lbu	a4,-33(s0)
    60fc:	00200693          	li	a3,2
    6100:	00078613          	mv	a2,a5
    6104:	bfcfb0ef          	jal	1500 <render_rect_fill>
    6108:	00000013          	nop
    610c:	04c12083          	lw	ra,76(sp)
    6110:	04812403          	lw	s0,72(sp)
    6114:	04412903          	lw	s2,68(sp)
    6118:	04012983          	lw	s3,64(sp)
    611c:	03c12a03          	lw	s4,60(sp)
    6120:	03812a83          	lw	s5,56(sp)
    6124:	05010113          	add	sp,sp,80
    6128:	00008067          	ret

0000612c <render_tiles>:
    612c:	fc010113          	add	sp,sp,-64
    6130:	02112e23          	sw	ra,60(sp)
    6134:	02812c23          	sw	s0,56(sp)
    6138:	03212a23          	sw	s2,52(sp)
    613c:	03312823          	sw	s3,48(sp)
    6140:	03412623          	sw	s4,44(sp)
    6144:	03512423          	sw	s5,40(sp)
    6148:	04010413          	add	s0,sp,64
    614c:	fca42623          	sw	a0,-52(s0)
    6150:	fcb42023          	sw	a1,-64(s0)
    6154:	fcc42223          	sw	a2,-60(s0)
    6158:	fc042e23          	sw	zero,-36(s0)
    615c:	0b00006f          	j	620c <render_tiles+0xe0>
    6160:	fc042c23          	sw	zero,-40(s0)
    6164:	0900006f          	j	61f4 <render_tiles+0xc8>
    6168:	fd842783          	lw	a5,-40(s0)
    616c:	00379793          	sll	a5,a5,0x3
    6170:	00078713          	mv	a4,a5
    6174:	fdc42783          	lw	a5,-36(s0)
    6178:	00f707b3          	add	a5,a4,a5
    617c:	fe078713          	add	a4,a5,-32
    6180:	00074a63          	bltz	a4,6194 <render_tiles+0x68>
    6184:	fc442783          	lw	a5,-60(s0)
    6188:	00e7d933          	srl	s2,a5,a4
    618c:	00000993          	li	s3,0
    6190:	02c0006f          	j	61bc <render_tiles+0x90>
    6194:	fc442703          	lw	a4,-60(s0)
    6198:	00171693          	sll	a3,a4,0x1
    619c:	01f00713          	li	a4,31
    61a0:	40f70733          	sub	a4,a4,a5
    61a4:	00e69733          	sll	a4,a3,a4
    61a8:	fc042683          	lw	a3,-64(s0)
    61ac:	00f6d933          	srl	s2,a3,a5
    61b0:	01276933          	or	s2,a4,s2
    61b4:	fc442703          	lw	a4,-60(s0)
    61b8:	00f759b3          	srl	s3,a4,a5
    61bc:	00197a13          	and	s4,s2,1
    61c0:	0009fa93          	and	s5,s3,0
    61c4:	000a0793          	mv	a5,s4
    61c8:	0157e7b3          	or	a5,a5,s5
    61cc:	00078c63          	beqz	a5,61e4 <render_tiles+0xb8>
    61d0:	fd842603          	lw	a2,-40(s0)
    61d4:	fdc42583          	lw	a1,-36(s0)
    61d8:	fcc42503          	lw	a0,-52(s0)
    61dc:	b95ff0ef          	jal	5d70 <render_tile>
    61e0:	0080006f          	j	61e8 <render_tiles+0xbc>
    61e4:	00000013          	nop
    61e8:	fd842783          	lw	a5,-40(s0)
    61ec:	00178793          	add	a5,a5,1
    61f0:	fcf42c23          	sw	a5,-40(s0)
    61f4:	fd842703          	lw	a4,-40(s0)
    61f8:	00700793          	li	a5,7
    61fc:	f6e7d6e3          	bge	a5,a4,6168 <render_tiles+0x3c>
    6200:	fdc42783          	lw	a5,-36(s0)
    6204:	00178793          	add	a5,a5,1
    6208:	fcf42e23          	sw	a5,-36(s0)
    620c:	fdc42703          	lw	a4,-36(s0)
    6210:	00700793          	li	a5,7
    6214:	f4e7d6e3          	bge	a5,a4,6160 <render_tiles+0x34>
    6218:	00000013          	nop
    621c:	00000013          	nop
    6220:	03c12083          	lw	ra,60(sp)
    6224:	03812403          	lw	s0,56(sp)
    6228:	03412903          	lw	s2,52(sp)
    622c:	03012983          	lw	s3,48(sp)
    6230:	02c12a03          	lw	s4,44(sp)
    6234:	02812a83          	lw	s5,40(sp)
    6238:	04010113          	add	sp,sp,64
    623c:	00008067          	ret

00006240 <draw_victory_text>:
    6240:	fd010113          	add	sp,sp,-48
    6244:	02112623          	sw	ra,44(sp)
    6248:	02812423          	sw	s0,40(sp)
    624c:	03010413          	add	s0,sp,48
    6250:	fca42e23          	sw	a0,-36(s0)
    6254:	0000f7b7          	lui	a5,0xf
    6258:	9587a783          	lw	a5,-1704(a5) # e958 <has_last_board>
    625c:	00078e63          	beqz	a5,6278 <draw_victory_text+0x38>
    6260:	0000f7b7          	lui	a5,0xf
    6264:	96078793          	add	a5,a5,-1696 # e960 <last_board>
    6268:	0407a703          	lw	a4,64(a5)
    626c:	fdc42783          	lw	a5,-36(s0)
    6270:	0407a783          	lw	a5,64(a5)
    6274:	10f70463          	beq	a4,a5,637c <draw_victory_text+0x13c>
    6278:	0000f7b7          	lui	a5,0xf
    627c:	9587a783          	lw	a5,-1704(a5) # e958 <has_last_board>
    6280:	08078063          	beqz	a5,6300 <draw_victory_text+0xc0>
    6284:	0000f7b7          	lui	a5,0xf
    6288:	96078793          	add	a5,a5,-1696 # e960 <last_board>
    628c:	0407a703          	lw	a4,64(a5)
    6290:	fff00793          	li	a5,-1
    6294:	06f70663          	beq	a4,a5,6300 <draw_victory_text+0xc0>
    6298:	0000f7b7          	lui	a5,0xf
    629c:	96078793          	add	a5,a5,-1696 # e960 <last_board>
    62a0:	0407a703          	lw	a4,64(a5)
    62a4:	00100793          	li	a5,1
    62a8:	00f71863          	bne	a4,a5,62b8 <draw_victory_text+0x78>
    62ac:	000117b7          	lui	a5,0x11
    62b0:	9e878793          	add	a5,a5,-1560 # 109e8 <glyphs_width+0x5a0>
    62b4:	00c0006f          	j	62c0 <draw_victory_text+0x80>
    62b8:	000117b7          	lui	a5,0x11
    62bc:	9fc78793          	add	a5,a5,-1540 # 109fc <glyphs_width+0x5b4>
    62c0:	fef42623          	sw	a5,-20(s0)
    62c4:	fec42503          	lw	a0,-20(s0)
    62c8:	fbdfb0ef          	jal	2284 <render_text_width>
    62cc:	fea42423          	sw	a0,-24(s0)
    62d0:	09100593          	li	a1,145
    62d4:	14000713          	li	a4,320
    62d8:	fe842783          	lw	a5,-24(s0)
    62dc:	40f707b3          	sub	a5,a4,a5
    62e0:	01f7d713          	srl	a4,a5,0x1f
    62e4:	00f707b3          	add	a5,a4,a5
    62e8:	4017d793          	sra	a5,a5,0x1
    62ec:	00000713          	li	a4,0
    62f0:	0e100693          	li	a3,225
    62f4:	00078613          	mv	a2,a5
    62f8:	fec42503          	lw	a0,-20(s0)
    62fc:	ed1fb0ef          	jal	21cc <render_text_clear>
    6300:	fdc42783          	lw	a5,-36(s0)
    6304:	0407a703          	lw	a4,64(a5)
    6308:	fff00793          	li	a5,-1
    630c:	06f70a63          	beq	a4,a5,6380 <draw_victory_text+0x140>
    6310:	fdc42783          	lw	a5,-36(s0)
    6314:	0407a703          	lw	a4,64(a5)
    6318:	00100793          	li	a5,1
    631c:	00f71863          	bne	a4,a5,632c <draw_victory_text+0xec>
    6320:	000117b7          	lui	a5,0x11
    6324:	9e878793          	add	a5,a5,-1560 # 109e8 <glyphs_width+0x5a0>
    6328:	00c0006f          	j	6334 <draw_victory_text+0xf4>
    632c:	000117b7          	lui	a5,0x11
    6330:	9fc78793          	add	a5,a5,-1540 # 109fc <glyphs_width+0x5b4>
    6334:	fef42223          	sw	a5,-28(s0)
    6338:	fe442503          	lw	a0,-28(s0)
    633c:	f49fb0ef          	jal	2284 <render_text_width>
    6340:	fea42023          	sw	a0,-32(s0)
    6344:	00000593          	li	a1,0
    6348:	09100613          	li	a2,145
    634c:	14000713          	li	a4,320
    6350:	fe042783          	lw	a5,-32(s0)
    6354:	40f707b3          	sub	a5,a4,a5
    6358:	01f7d713          	srl	a4,a5,0x1f
    635c:	00f707b3          	add	a5,a4,a5
    6360:	4017d793          	sra	a5,a5,0x1
    6364:	00078693          	mv	a3,a5
    6368:	00000793          	li	a5,0
    636c:	0e100713          	li	a4,225
    6370:	fe442503          	lw	a0,-28(s0)
    6374:	ba9fb0ef          	jal	1f1c <render_text>
    6378:	0080006f          	j	6380 <draw_victory_text+0x140>
    637c:	00000013          	nop
    6380:	02c12083          	lw	ra,44(sp)
    6384:	02812403          	lw	s0,40(sp)
    6388:	03010113          	add	sp,sp,48
    638c:	00008067          	ret

00006390 <draw_turn_text>:
    6390:	fd010113          	add	sp,sp,-48
    6394:	02112623          	sw	ra,44(sp)
    6398:	02812423          	sw	s0,40(sp)
    639c:	03010413          	add	s0,sp,48
    63a0:	fca42e23          	sw	a0,-36(s0)
    63a4:	fdc42783          	lw	a5,-36(s0)
    63a8:	0407a703          	lw	a4,64(a5)
    63ac:	fff00793          	li	a5,-1
    63b0:	02f70463          	beq	a4,a5,63d8 <draw_turn_text+0x48>
    63b4:	09100793          	li	a5,145
    63b8:	00000713          	li	a4,0
    63bc:	00400693          	li	a3,4
    63c0:	00400613          	li	a2,4
    63c4:	00078593          	mv	a1,a5
    63c8:	000117b7          	lui	a5,0x11
    63cc:	a1478513          	add	a0,a5,-1516 # 10a14 <glyphs_width+0x5cc>
    63d0:	dfdfb0ef          	jal	21cc <render_text_clear>
    63d4:	0700006f          	j	6444 <draw_turn_text+0xb4>
    63d8:	0000f7b7          	lui	a5,0xf
    63dc:	9587a783          	lw	a5,-1704(a5) # e958 <has_last_board>
    63e0:	00078e63          	beqz	a5,63fc <draw_turn_text+0x6c>
    63e4:	0000f7b7          	lui	a5,0xf
    63e8:	96078793          	add	a5,a5,-1696 # e960 <last_board>
    63ec:	0047a703          	lw	a4,4(a5)
    63f0:	fdc42783          	lw	a5,-36(s0)
    63f4:	0047a783          	lw	a5,4(a5)
    63f8:	04f70463          	beq	a4,a5,6440 <draw_turn_text+0xb0>
    63fc:	fdc42783          	lw	a5,-36(s0)
    6400:	0047a783          	lw	a5,4(a5)
    6404:	00079863          	bnez	a5,6414 <draw_turn_text+0x84>
    6408:	000117b7          	lui	a5,0x11
    640c:	a2878793          	add	a5,a5,-1496 # 10a28 <glyphs_width+0x5e0>
    6410:	00c0006f          	j	641c <draw_turn_text+0x8c>
    6414:	000117b7          	lui	a5,0x11
    6418:	a3878793          	add	a5,a5,-1480 # 10a38 <glyphs_width+0x5f0>
    641c:	fef42623          	sw	a5,-20(s0)
    6420:	00000593          	li	a1,0
    6424:	09100613          	li	a2,145
    6428:	00000793          	li	a5,0
    642c:	00400713          	li	a4,4
    6430:	00400693          	li	a3,4
    6434:	fec42503          	lw	a0,-20(s0)
    6438:	ae5fb0ef          	jal	1f1c <render_text>
    643c:	0080006f          	j	6444 <draw_turn_text+0xb4>
    6440:	00000013          	nop
    6444:	02c12083          	lw	ra,44(sp)
    6448:	02812403          	lw	s0,40(sp)
    644c:	03010113          	add	sp,sp,48
    6450:	00008067          	ret

00006454 <checkers_render_reset>:
    6454:	ff010113          	add	sp,sp,-16
    6458:	00812623          	sw	s0,12(sp)
    645c:	01010413          	add	s0,sp,16
    6460:	0000f7b7          	lui	a5,0xf
    6464:	9407ac23          	sw	zero,-1704(a5) # e958 <has_last_board>
    6468:	00000013          	nop
    646c:	00c12403          	lw	s0,12(sp)
    6470:	01010113          	add	sp,sp,16
    6474:	00008067          	ret

00006478 <checkers_render>:
    6478:	fd010113          	add	sp,sp,-48
    647c:	02112623          	sw	ra,44(sp)
    6480:	02812423          	sw	s0,40(sp)
    6484:	03010413          	add	s0,sp,48
    6488:	fca42e23          	sw	a0,-36(s0)
    648c:	fff00713          	li	a4,-1
    6490:	fff00793          	li	a5,-1
    6494:	fee42423          	sw	a4,-24(s0)
    6498:	fef42623          	sw	a5,-20(s0)
    649c:	0000f7b7          	lui	a5,0xf
    64a0:	9587a783          	lw	a5,-1704(a5) # e958 <has_last_board>
    64a4:	06079663          	bnez	a5,6510 <checkers_render+0x98>
    64a8:	000067b7          	lui	a5,0x6
    64ac:	c1078513          	add	a0,a5,-1008 # 5c10 <get_background_color>
    64b0:	e5dfb0ef          	jal	230c <render_background>
    64b4:	04000793          	li	a5,64
    64b8:	fff78513          	add	a0,a5,-1
    64bc:	01800793          	li	a5,24
    64c0:	fff78593          	add	a1,a5,-1
    64c4:	0c000793          	li	a5,192
    64c8:	00278613          	add	a2,a5,2
    64cc:	0c000793          	li	a5,192
    64d0:	00278793          	add	a5,a5,2
    64d4:	00000713          	li	a4,0
    64d8:	00078693          	mv	a3,a5
    64dc:	f05fa0ef          	jal	13e0 <render_rect_border>
    64e0:	04000793          	li	a5,64
    64e4:	ffe78513          	add	a0,a5,-2
    64e8:	01800793          	li	a5,24
    64ec:	ffe78593          	add	a1,a5,-2
    64f0:	0c000793          	li	a5,192
    64f4:	00478613          	add	a2,a5,4
    64f8:	0c000793          	li	a5,192
    64fc:	00478793          	add	a5,a5,4
    6500:	00000713          	li	a4,0
    6504:	00078693          	mv	a3,a5
    6508:	ed9fa0ef          	jal	13e0 <render_rect_border>
    650c:	01c0006f          	j	6528 <checkers_render+0xb0>
    6510:	fdc42583          	lw	a1,-36(s0)
    6514:	0000f7b7          	lui	a5,0xf
    6518:	96078513          	add	a0,a5,-1696 # e960 <last_board>
    651c:	b50ff0ef          	jal	586c <get_rendering_mask>
    6520:	fea42423          	sw	a0,-24(s0)
    6524:	feb42623          	sw	a1,-20(s0)
    6528:	fe842583          	lw	a1,-24(s0)
    652c:	fec42603          	lw	a2,-20(s0)
    6530:	fdc42503          	lw	a0,-36(s0)
    6534:	bf9ff0ef          	jal	612c <render_tiles>
    6538:	fdc42503          	lw	a0,-36(s0)
    653c:	d05ff0ef          	jal	6240 <draw_victory_text>
    6540:	fdc42503          	lw	a0,-36(s0)
    6544:	e4dff0ef          	jal	6390 <draw_turn_text>
    6548:	0000f7b7          	lui	a5,0xf
    654c:	96078713          	add	a4,a5,-1696 # e960 <last_board>
    6550:	fdc42783          	lw	a5,-36(s0)
    6554:	00078693          	mv	a3,a5
    6558:	04800793          	li	a5,72
    655c:	00078613          	mv	a2,a5
    6560:	00068593          	mv	a1,a3
    6564:	00070513          	mv	a0,a4
    6568:	ca9f90ef          	jal	210 <memcpy>
    656c:	0000f7b7          	lui	a5,0xf
    6570:	00100713          	li	a4,1
    6574:	94e7ac23          	sw	a4,-1704(a5) # e958 <has_last_board>
    6578:	d88fa0ef          	jal	b00 <io_vga_flush_pixels>
    657c:	00000013          	nop
    6580:	02c12083          	lw	ra,44(sp)
    6584:	02812403          	lw	s0,40(sp)
    6588:	03010113          	add	sp,sp,48
    658c:	00008067          	ret

00006590 <idx>:
    6590:	fe010113          	add	sp,sp,-32
    6594:	00812e23          	sw	s0,28(sp)
    6598:	02010413          	add	s0,sp,32
    659c:	fea42623          	sw	a0,-20(s0)
    65a0:	feb42423          	sw	a1,-24(s0)
    65a4:	fec42783          	lw	a5,-20(s0)
    65a8:	00078613          	mv	a2,a5
    65ac:	41f7d793          	sra	a5,a5,0x1f
    65b0:	00078693          	mv	a3,a5
    65b4:	fe842703          	lw	a4,-24(s0)
    65b8:	00070793          	mv	a5,a4
    65bc:	00379793          	sll	a5,a5,0x3
    65c0:	40e787b3          	sub	a5,a5,a4
    65c4:	00078813          	mv	a6,a5
    65c8:	41f7d793          	sra	a5,a5,0x1f
    65cc:	00078893          	mv	a7,a5
    65d0:	01060733          	add	a4,a2,a6
    65d4:	00070593          	mv	a1,a4
    65d8:	00c5b5b3          	sltu	a1,a1,a2
    65dc:	011687b3          	add	a5,a3,a7
    65e0:	00f586b3          	add	a3,a1,a5
    65e4:	00068793          	mv	a5,a3
    65e8:	00070513          	mv	a0,a4
    65ec:	00078593          	mv	a1,a5
    65f0:	01c12403          	lw	s0,28(sp)
    65f4:	02010113          	add	sp,sp,32
    65f8:	00008067          	ret

000065fc <fiar_valid_tile>:
    65fc:	fe010113          	add	sp,sp,-32
    6600:	00812e23          	sw	s0,28(sp)
    6604:	02010413          	add	s0,sp,32
    6608:	fea42623          	sw	a0,-20(s0)
    660c:	feb42423          	sw	a1,-24(s0)
    6610:	fec42783          	lw	a5,-20(s0)
    6614:	0207c663          	bltz	a5,6640 <fiar_valid_tile+0x44>
    6618:	fec42703          	lw	a4,-20(s0)
    661c:	00600793          	li	a5,6
    6620:	02e7c063          	blt	a5,a4,6640 <fiar_valid_tile+0x44>
    6624:	fe842783          	lw	a5,-24(s0)
    6628:	0007cc63          	bltz	a5,6640 <fiar_valid_tile+0x44>
    662c:	fe842703          	lw	a4,-24(s0)
    6630:	00500793          	li	a5,5
    6634:	00e7c663          	blt	a5,a4,6640 <fiar_valid_tile+0x44>
    6638:	00100793          	li	a5,1
    663c:	0080006f          	j	6644 <fiar_valid_tile+0x48>
    6640:	00000793          	li	a5,0
    6644:	00078513          	mv	a0,a5
    6648:	01c12403          	lw	s0,28(sp)
    664c:	02010113          	add	sp,sp,32
    6650:	00008067          	ret

00006654 <fiar_has_tile>:
    6654:	fd010113          	add	sp,sp,-48
    6658:	02112623          	sw	ra,44(sp)
    665c:	02812423          	sw	s0,40(sp)
    6660:	03212223          	sw	s2,36(sp)
    6664:	03312023          	sw	s3,32(sp)
    6668:	01412e23          	sw	s4,28(sp)
    666c:	01512c23          	sw	s5,24(sp)
    6670:	01612a23          	sw	s6,20(sp)
    6674:	01712823          	sw	s7,16(sp)
    6678:	03010413          	add	s0,sp,48
    667c:	fca42e23          	sw	a0,-36(s0)
    6680:	fcb42c23          	sw	a1,-40(s0)
    6684:	fcc42a23          	sw	a2,-44(s0)
    6688:	fd442583          	lw	a1,-44(s0)
    668c:	fd842503          	lw	a0,-40(s0)
    6690:	f6dff0ef          	jal	65fc <fiar_valid_tile>
    6694:	00050793          	mv	a5,a0
    6698:	00079863          	bnez	a5,66a8 <fiar_has_tile+0x54>
    669c:	000117b7          	lui	a5,0x11
    66a0:	a4478513          	add	a0,a5,-1468 # 10a44 <glyphs_width+0x5fc>
    66a4:	d41fb0ef          	jal	23e4 <panic>
    66a8:	fdc42783          	lw	a5,-36(s0)
    66ac:	0007a603          	lw	a2,0(a5)
    66b0:	0047a683          	lw	a3,4(a5)
    66b4:	fdc42783          	lw	a5,-36(s0)
    66b8:	0087a703          	lw	a4,8(a5)
    66bc:	00c7a783          	lw	a5,12(a5)
    66c0:	00e66a33          	or	s4,a2,a4
    66c4:	00f6eab3          	or	s5,a3,a5
    66c8:	fd442583          	lw	a1,-44(s0)
    66cc:	fd842503          	lw	a0,-40(s0)
    66d0:	ec1ff0ef          	jal	6590 <idx>
    66d4:	00050713          	mv	a4,a0
    66d8:	00058793          	mv	a5,a1
    66dc:	00070793          	mv	a5,a4
    66e0:	fe078713          	add	a4,a5,-32
    66e4:	00074863          	bltz	a4,66f4 <fiar_has_tile+0xa0>
    66e8:	00ead933          	srl	s2,s5,a4
    66ec:	00000993          	li	s3,0
    66f0:	0200006f          	j	6710 <fiar_has_tile+0xbc>
    66f4:	001a9693          	sll	a3,s5,0x1
    66f8:	01f00713          	li	a4,31
    66fc:	40f70733          	sub	a4,a4,a5
    6700:	00e69733          	sll	a4,a3,a4
    6704:	00fa5933          	srl	s2,s4,a5
    6708:	01276933          	or	s2,a4,s2
    670c:	00fad9b3          	srl	s3,s5,a5
    6710:	00197b13          	and	s6,s2,1
    6714:	0009fb93          	and	s7,s3,0
    6718:	017b67b3          	or	a5,s6,s7
    671c:	00f037b3          	snez	a5,a5
    6720:	0ff7f793          	zext.b	a5,a5
    6724:	00078513          	mv	a0,a5
    6728:	02c12083          	lw	ra,44(sp)
    672c:	02812403          	lw	s0,40(sp)
    6730:	02412903          	lw	s2,36(sp)
    6734:	02012983          	lw	s3,32(sp)
    6738:	01c12a03          	lw	s4,28(sp)
    673c:	01812a83          	lw	s5,24(sp)
    6740:	01412b03          	lw	s6,20(sp)
    6744:	01012b83          	lw	s7,16(sp)
    6748:	03010113          	add	sp,sp,48
    674c:	00008067          	ret

00006750 <fiar_get_tile>:
    6750:	fc010113          	add	sp,sp,-64
    6754:	02112e23          	sw	ra,60(sp)
    6758:	02812c23          	sw	s0,56(sp)
    675c:	03212a23          	sw	s2,52(sp)
    6760:	03312823          	sw	s3,48(sp)
    6764:	03412623          	sw	s4,44(sp)
    6768:	03512423          	sw	s5,40(sp)
    676c:	03612223          	sw	s6,36(sp)
    6770:	03712023          	sw	s7,32(sp)
    6774:	04010413          	add	s0,sp,64
    6778:	fca42623          	sw	a0,-52(s0)
    677c:	fcb42423          	sw	a1,-56(s0)
    6780:	fcc42223          	sw	a2,-60(s0)
    6784:	fc442603          	lw	a2,-60(s0)
    6788:	fc842583          	lw	a1,-56(s0)
    678c:	fcc42503          	lw	a0,-52(s0)
    6790:	ec5ff0ef          	jal	6654 <fiar_has_tile>
    6794:	00050793          	mv	a5,a0
    6798:	00079863          	bnez	a5,67a8 <fiar_get_tile+0x58>
    679c:	000117b7          	lui	a5,0x11
    67a0:	a6c78513          	add	a0,a5,-1428 # 10a6c <glyphs_width+0x624>
    67a4:	c41fb0ef          	jal	23e4 <panic>
    67a8:	fcc42783          	lw	a5,-52(s0)
    67ac:	0007ab03          	lw	s6,0(a5)
    67b0:	0047ab83          	lw	s7,4(a5)
    67b4:	fc442583          	lw	a1,-60(s0)
    67b8:	fc842503          	lw	a0,-56(s0)
    67bc:	dd5ff0ef          	jal	6590 <idx>
    67c0:	00050713          	mv	a4,a0
    67c4:	00058793          	mv	a5,a1
    67c8:	00070793          	mv	a5,a4
    67cc:	fe078713          	add	a4,a5,-32
    67d0:	00074a63          	bltz	a4,67e4 <fiar_get_tile+0x94>
    67d4:	00100793          	li	a5,1
    67d8:	00e79ab3          	sll	s5,a5,a4
    67dc:	00000a13          	li	s4,0
    67e0:	02c0006f          	j	680c <fiar_get_tile+0xbc>
    67e4:	00100713          	li	a4,1
    67e8:	00175693          	srl	a3,a4,0x1
    67ec:	01f00713          	li	a4,31
    67f0:	40f70733          	sub	a4,a4,a5
    67f4:	00e6d733          	srl	a4,a3,a4
    67f8:	00000693          	li	a3,0
    67fc:	00f69ab3          	sll	s5,a3,a5
    6800:	01576ab3          	or	s5,a4,s5
    6804:	00100713          	li	a4,1
    6808:	00f71a33          	sll	s4,a4,a5
    680c:	014b77b3          	and	a5,s6,s4
    6810:	fcf42c23          	sw	a5,-40(s0)
    6814:	015bf7b3          	and	a5,s7,s5
    6818:	fcf42e23          	sw	a5,-36(s0)
    681c:	fcc42783          	lw	a5,-52(s0)
    6820:	0087aa03          	lw	s4,8(a5)
    6824:	00c7aa83          	lw	s5,12(a5)
    6828:	fc442583          	lw	a1,-60(s0)
    682c:	fc842503          	lw	a0,-56(s0)
    6830:	d61ff0ef          	jal	6590 <idx>
    6834:	00050713          	mv	a4,a0
    6838:	00058793          	mv	a5,a1
    683c:	00070793          	mv	a5,a4
    6840:	fe078713          	add	a4,a5,-32
    6844:	00074a63          	bltz	a4,6858 <fiar_get_tile+0x108>
    6848:	00100793          	li	a5,1
    684c:	00e799b3          	sll	s3,a5,a4
    6850:	00000913          	li	s2,0
    6854:	02c0006f          	j	6880 <fiar_get_tile+0x130>
    6858:	00100713          	li	a4,1
    685c:	00175693          	srl	a3,a4,0x1
    6860:	01f00713          	li	a4,31
    6864:	40f70733          	sub	a4,a4,a5
    6868:	00e6d733          	srl	a4,a3,a4
    686c:	00000693          	li	a3,0
    6870:	00f699b3          	sll	s3,a3,a5
    6874:	013769b3          	or	s3,a4,s3
    6878:	00100713          	li	a4,1
    687c:	00f71933          	sll	s2,a4,a5
    6880:	012a77b3          	and	a5,s4,s2
    6884:	fcf42823          	sw	a5,-48(s0)
    6888:	013af7b3          	and	a5,s5,s3
    688c:	fcf42a23          	sw	a5,-44(s0)
    6890:	fd842783          	lw	a5,-40(s0)
    6894:	fdc42703          	lw	a4,-36(s0)
    6898:	00e7e7b3          	or	a5,a5,a4
    689c:	02078063          	beqz	a5,68bc <fiar_get_tile+0x16c>
    68a0:	fd042783          	lw	a5,-48(s0)
    68a4:	fd442703          	lw	a4,-44(s0)
    68a8:	00e7e7b3          	or	a5,a5,a4
    68ac:	00078863          	beqz	a5,68bc <fiar_get_tile+0x16c>
    68b0:	000117b7          	lui	a5,0x11
    68b4:	a8478513          	add	a0,a5,-1404 # 10a84 <glyphs_width+0x63c>
    68b8:	b2dfb0ef          	jal	23e4 <panic>
    68bc:	fd842783          	lw	a5,-40(s0)
    68c0:	fdc42703          	lw	a4,-36(s0)
    68c4:	00e7e7b3          	or	a5,a5,a4
    68c8:	00078663          	beqz	a5,68d4 <fiar_get_tile+0x184>
    68cc:	00000793          	li	a5,0
    68d0:	0080006f          	j	68d8 <fiar_get_tile+0x188>
    68d4:	00100793          	li	a5,1
    68d8:	00078513          	mv	a0,a5
    68dc:	03c12083          	lw	ra,60(sp)
    68e0:	03812403          	lw	s0,56(sp)
    68e4:	03412903          	lw	s2,52(sp)
    68e8:	03012983          	lw	s3,48(sp)
    68ec:	02c12a03          	lw	s4,44(sp)
    68f0:	02812a83          	lw	s5,40(sp)
    68f4:	02412b03          	lw	s6,36(sp)
    68f8:	02012b83          	lw	s7,32(sp)
    68fc:	04010113          	add	sp,sp,64
    6900:	00008067          	ret

00006904 <fiar_set_tile>:
    6904:	fa010113          	add	sp,sp,-96
    6908:	04112e23          	sw	ra,92(sp)
    690c:	04812c23          	sw	s0,88(sp)
    6910:	05212a23          	sw	s2,84(sp)
    6914:	05312823          	sw	s3,80(sp)
    6918:	05412623          	sw	s4,76(sp)
    691c:	05512423          	sw	s5,72(sp)
    6920:	05612223          	sw	s6,68(sp)
    6924:	05712023          	sw	s7,64(sp)
    6928:	03812e23          	sw	s8,60(sp)
    692c:	03912c23          	sw	s9,56(sp)
    6930:	03a12a23          	sw	s10,52(sp)
    6934:	03b12823          	sw	s11,48(sp)
    6938:	06010413          	add	s0,sp,96
    693c:	faa42e23          	sw	a0,-68(s0)
    6940:	fab42c23          	sw	a1,-72(s0)
    6944:	fac42a23          	sw	a2,-76(s0)
    6948:	fad42823          	sw	a3,-80(s0)
    694c:	fb442583          	lw	a1,-76(s0)
    6950:	fb842503          	lw	a0,-72(s0)
    6954:	ca9ff0ef          	jal	65fc <fiar_valid_tile>
    6958:	00050793          	mv	a5,a0
    695c:	00079863          	bnez	a5,696c <fiar_set_tile+0x68>
    6960:	000117b7          	lui	a5,0x11
    6964:	aa878513          	add	a0,a5,-1368 # 10aa8 <glyphs_width+0x660>
    6968:	a7dfb0ef          	jal	23e4 <panic>
    696c:	fb442583          	lw	a1,-76(s0)
    6970:	fb842503          	lw	a0,-72(s0)
    6974:	c1dff0ef          	jal	6590 <idx>
    6978:	00050713          	mv	a4,a0
    697c:	00058793          	mv	a5,a1
    6980:	00070793          	mv	a5,a4
    6984:	fe078713          	add	a4,a5,-32
    6988:	00074c63          	bltz	a4,69a0 <fiar_set_tile+0x9c>
    698c:	00100793          	li	a5,1
    6990:	00e797b3          	sll	a5,a5,a4
    6994:	fcf42623          	sw	a5,-52(s0)
    6998:	fc042423          	sw	zero,-56(s0)
    699c:	0340006f          	j	69d0 <fiar_set_tile+0xcc>
    69a0:	00100713          	li	a4,1
    69a4:	00175693          	srl	a3,a4,0x1
    69a8:	01f00713          	li	a4,31
    69ac:	40f70733          	sub	a4,a4,a5
    69b0:	00e6d733          	srl	a4,a3,a4
    69b4:	00000693          	li	a3,0
    69b8:	00f696b3          	sll	a3,a3,a5
    69bc:	00e6e733          	or	a4,a3,a4
    69c0:	fce42623          	sw	a4,-52(s0)
    69c4:	00100713          	li	a4,1
    69c8:	00f717b3          	sll	a5,a4,a5
    69cc:	fcf42423          	sw	a5,-56(s0)
    69d0:	fb042783          	lw	a5,-80(s0)
    69d4:	06079863          	bnez	a5,6a44 <fiar_set_tile+0x140>
    69d8:	fbc42783          	lw	a5,-68(s0)
    69dc:	0007a703          	lw	a4,0(a5)
    69e0:	0047a783          	lw	a5,4(a5)
    69e4:	fc842683          	lw	a3,-56(s0)
    69e8:	00e6e6b3          	or	a3,a3,a4
    69ec:	fad42423          	sw	a3,-88(s0)
    69f0:	fcc42683          	lw	a3,-52(s0)
    69f4:	00f6e7b3          	or	a5,a3,a5
    69f8:	faf42623          	sw	a5,-84(s0)
    69fc:	fbc42783          	lw	a5,-68(s0)
    6a00:	fa842683          	lw	a3,-88(s0)
    6a04:	fac42703          	lw	a4,-84(s0)
    6a08:	00d7a023          	sw	a3,0(a5)
    6a0c:	00e7a223          	sw	a4,4(a5)
    6a10:	fbc42783          	lw	a5,-68(s0)
    6a14:	0087a703          	lw	a4,8(a5)
    6a18:	00c7a783          	lw	a5,12(a5)
    6a1c:	fc842683          	lw	a3,-56(s0)
    6a20:	fff6ca13          	not	s4,a3
    6a24:	fcc42683          	lw	a3,-52(s0)
    6a28:	fff6ca93          	not	s5,a3
    6a2c:	01477d33          	and	s10,a4,s4
    6a30:	0157fdb3          	and	s11,a5,s5
    6a34:	fbc42783          	lw	a5,-68(s0)
    6a38:	01a7a423          	sw	s10,8(a5)
    6a3c:	01b7a623          	sw	s11,12(a5)
    6a40:	05c0006f          	j	6a9c <fiar_set_tile+0x198>
    6a44:	fbc42783          	lw	a5,-68(s0)
    6a48:	0087a703          	lw	a4,8(a5)
    6a4c:	00c7a783          	lw	a5,12(a5)
    6a50:	fc842683          	lw	a3,-56(s0)
    6a54:	00e6ec33          	or	s8,a3,a4
    6a58:	fcc42683          	lw	a3,-52(s0)
    6a5c:	00f6ecb3          	or	s9,a3,a5
    6a60:	fbc42783          	lw	a5,-68(s0)
    6a64:	0187a423          	sw	s8,8(a5)
    6a68:	0197a623          	sw	s9,12(a5)
    6a6c:	fbc42783          	lw	a5,-68(s0)
    6a70:	0007a703          	lw	a4,0(a5)
    6a74:	0047a783          	lw	a5,4(a5)
    6a78:	fc842683          	lw	a3,-56(s0)
    6a7c:	fff6c913          	not	s2,a3
    6a80:	fcc42683          	lw	a3,-52(s0)
    6a84:	fff6c993          	not	s3,a3
    6a88:	01277b33          	and	s6,a4,s2
    6a8c:	0137fbb3          	and	s7,a5,s3
    6a90:	fbc42783          	lw	a5,-68(s0)
    6a94:	0167a023          	sw	s6,0(a5)
    6a98:	0177a223          	sw	s7,4(a5)
    6a9c:	00000013          	nop
    6aa0:	05c12083          	lw	ra,92(sp)
    6aa4:	05812403          	lw	s0,88(sp)
    6aa8:	05412903          	lw	s2,84(sp)
    6aac:	05012983          	lw	s3,80(sp)
    6ab0:	04c12a03          	lw	s4,76(sp)
    6ab4:	04812a83          	lw	s5,72(sp)
    6ab8:	04412b03          	lw	s6,68(sp)
    6abc:	04012b83          	lw	s7,64(sp)
    6ac0:	03c12c03          	lw	s8,60(sp)
    6ac4:	03812c83          	lw	s9,56(sp)
    6ac8:	03412d03          	lw	s10,52(sp)
    6acc:	03012d83          	lw	s11,48(sp)
    6ad0:	06010113          	add	sp,sp,96
    6ad4:	00008067          	ret

00006ad8 <fiar_clear_tile>:
    6ad8:	fb010113          	add	sp,sp,-80
    6adc:	04112623          	sw	ra,76(sp)
    6ae0:	04812423          	sw	s0,72(sp)
    6ae4:	05212223          	sw	s2,68(sp)
    6ae8:	05312023          	sw	s3,64(sp)
    6aec:	03412e23          	sw	s4,60(sp)
    6af0:	03512c23          	sw	s5,56(sp)
    6af4:	03612a23          	sw	s6,52(sp)
    6af8:	03712823          	sw	s7,48(sp)
    6afc:	03812623          	sw	s8,44(sp)
    6b00:	03912423          	sw	s9,40(sp)
    6b04:	05010413          	add	s0,sp,80
    6b08:	faa42e23          	sw	a0,-68(s0)
    6b0c:	fab42c23          	sw	a1,-72(s0)
    6b10:	fac42a23          	sw	a2,-76(s0)
    6b14:	fb442583          	lw	a1,-76(s0)
    6b18:	fb842503          	lw	a0,-72(s0)
    6b1c:	ae1ff0ef          	jal	65fc <fiar_valid_tile>
    6b20:	00050793          	mv	a5,a0
    6b24:	00079863          	bnez	a5,6b34 <fiar_clear_tile+0x5c>
    6b28:	000117b7          	lui	a5,0x11
    6b2c:	ad078513          	add	a0,a5,-1328 # 10ad0 <glyphs_width+0x688>
    6b30:	8b5fb0ef          	jal	23e4 <panic>
    6b34:	fb442603          	lw	a2,-76(s0)
    6b38:	fb842583          	lw	a1,-72(s0)
    6b3c:	fbc42503          	lw	a0,-68(s0)
    6b40:	b15ff0ef          	jal	6654 <fiar_has_tile>
    6b44:	00050793          	mv	a5,a0
    6b48:	00079863          	bnez	a5,6b58 <fiar_clear_tile+0x80>
    6b4c:	000117b7          	lui	a5,0x11
    6b50:	af878513          	add	a0,a5,-1288 # 10af8 <glyphs_width+0x6b0>
    6b54:	891fb0ef          	jal	23e4 <panic>
    6b58:	fb442583          	lw	a1,-76(s0)
    6b5c:	fb842503          	lw	a0,-72(s0)
    6b60:	a31ff0ef          	jal	6590 <idx>
    6b64:	00050713          	mv	a4,a0
    6b68:	00058793          	mv	a5,a1
    6b6c:	00070793          	mv	a5,a4
    6b70:	fe078713          	add	a4,a5,-32
    6b74:	00074c63          	bltz	a4,6b8c <fiar_clear_tile+0xb4>
    6b78:	00100793          	li	a5,1
    6b7c:	00e797b3          	sll	a5,a5,a4
    6b80:	fcf42623          	sw	a5,-52(s0)
    6b84:	fc042423          	sw	zero,-56(s0)
    6b88:	0340006f          	j	6bbc <fiar_clear_tile+0xe4>
    6b8c:	00100713          	li	a4,1
    6b90:	00175693          	srl	a3,a4,0x1
    6b94:	01f00713          	li	a4,31
    6b98:	40f70733          	sub	a4,a4,a5
    6b9c:	00e6d733          	srl	a4,a3,a4
    6ba0:	00000693          	li	a3,0
    6ba4:	00f696b3          	sll	a3,a3,a5
    6ba8:	00e6e733          	or	a4,a3,a4
    6bac:	fce42623          	sw	a4,-52(s0)
    6bb0:	00100713          	li	a4,1
    6bb4:	00f717b3          	sll	a5,a4,a5
    6bb8:	fcf42423          	sw	a5,-56(s0)
    6bbc:	fbc42783          	lw	a5,-68(s0)
    6bc0:	0007a703          	lw	a4,0(a5)
    6bc4:	0047a783          	lw	a5,4(a5)
    6bc8:	fc842683          	lw	a3,-56(s0)
    6bcc:	fff6ca13          	not	s4,a3
    6bd0:	fcc42683          	lw	a3,-52(s0)
    6bd4:	fff6ca93          	not	s5,a3
    6bd8:	01477c33          	and	s8,a4,s4
    6bdc:	0157fcb3          	and	s9,a5,s5
    6be0:	fbc42783          	lw	a5,-68(s0)
    6be4:	0187a023          	sw	s8,0(a5)
    6be8:	0197a223          	sw	s9,4(a5)
    6bec:	fbc42783          	lw	a5,-68(s0)
    6bf0:	0087a703          	lw	a4,8(a5)
    6bf4:	00c7a783          	lw	a5,12(a5)
    6bf8:	fc842683          	lw	a3,-56(s0)
    6bfc:	fff6c913          	not	s2,a3
    6c00:	fcc42683          	lw	a3,-52(s0)
    6c04:	fff6c993          	not	s3,a3
    6c08:	01277b33          	and	s6,a4,s2
    6c0c:	0137fbb3          	and	s7,a5,s3
    6c10:	fbc42783          	lw	a5,-68(s0)
    6c14:	0167a423          	sw	s6,8(a5)
    6c18:	0177a623          	sw	s7,12(a5)
    6c1c:	00000013          	nop
    6c20:	04c12083          	lw	ra,76(sp)
    6c24:	04812403          	lw	s0,72(sp)
    6c28:	04412903          	lw	s2,68(sp)
    6c2c:	04012983          	lw	s3,64(sp)
    6c30:	03c12a03          	lw	s4,60(sp)
    6c34:	03812a83          	lw	s5,56(sp)
    6c38:	03412b03          	lw	s6,52(sp)
    6c3c:	03012b83          	lw	s7,48(sp)
    6c40:	02c12c03          	lw	s8,44(sp)
    6c44:	02812c83          	lw	s9,40(sp)
    6c48:	05010113          	add	sp,sp,80
    6c4c:	00008067          	ret

00006c50 <fiar_can_drop>:
    6c50:	fe010113          	add	sp,sp,-32
    6c54:	00112e23          	sw	ra,28(sp)
    6c58:	00812c23          	sw	s0,24(sp)
    6c5c:	02010413          	add	s0,sp,32
    6c60:	fea42623          	sw	a0,-20(s0)
    6c64:	fec42783          	lw	a5,-20(s0)
    6c68:	0147a783          	lw	a5,20(a5)
    6c6c:	0007ca63          	bltz	a5,6c80 <fiar_can_drop+0x30>
    6c70:	fec42783          	lw	a5,-20(s0)
    6c74:	0147a703          	lw	a4,20(a5)
    6c78:	00600793          	li	a5,6
    6c7c:	00e7d863          	bge	a5,a4,6c8c <fiar_can_drop+0x3c>
    6c80:	000117b7          	lui	a5,0x11
    6c84:	b1478513          	add	a0,a5,-1260 # 10b14 <glyphs_width+0x6cc>
    6c88:	f5cfb0ef          	jal	23e4 <panic>
    6c8c:	fec42783          	lw	a5,-20(s0)
    6c90:	0147a783          	lw	a5,20(a5)
    6c94:	00000613          	li	a2,0
    6c98:	00078593          	mv	a1,a5
    6c9c:	fec42503          	lw	a0,-20(s0)
    6ca0:	9b5ff0ef          	jal	6654 <fiar_has_tile>
    6ca4:	00050793          	mv	a5,a0
    6ca8:	0017b793          	seqz	a5,a5
    6cac:	0ff7f793          	zext.b	a5,a5
    6cb0:	00078513          	mv	a0,a5
    6cb4:	01c12083          	lw	ra,28(sp)
    6cb8:	01812403          	lw	s0,24(sp)
    6cbc:	02010113          	add	sp,sp,32
    6cc0:	00008067          	ret

00006cc4 <fiar_opposite_player>:
    6cc4:	fe010113          	add	sp,sp,-32
    6cc8:	00812e23          	sw	s0,28(sp)
    6ccc:	02010413          	add	s0,sp,32
    6cd0:	fea42623          	sw	a0,-20(s0)
    6cd4:	fec42783          	lw	a5,-20(s0)
    6cd8:	0007a783          	lw	a5,0(a5)
    6cdc:	0017b793          	seqz	a5,a5
    6ce0:	0ff7f793          	zext.b	a5,a5
    6ce4:	00078713          	mv	a4,a5
    6ce8:	fec42783          	lw	a5,-20(s0)
    6cec:	00e7a023          	sw	a4,0(a5)
    6cf0:	00000013          	nop
    6cf4:	01c12403          	lw	s0,28(sp)
    6cf8:	02010113          	add	sp,sp,32
    6cfc:	00008067          	ret

00006d00 <calculate_win_lines_dir>:
    6d00:	fc010113          	add	sp,sp,-64
    6d04:	02112e23          	sw	ra,60(sp)
    6d08:	02812c23          	sw	s0,56(sp)
    6d0c:	04010413          	add	s0,sp,64
    6d10:	fca42e23          	sw	a0,-36(s0)
    6d14:	fcb42c23          	sw	a1,-40(s0)
    6d18:	fcc42a23          	sw	a2,-44(s0)
    6d1c:	fcd42823          	sw	a3,-48(s0)
    6d20:	fce42623          	sw	a4,-52(s0)
    6d24:	fd842783          	lw	a5,-40(s0)
    6d28:	fef42623          	sw	a5,-20(s0)
    6d2c:	fd442783          	lw	a5,-44(s0)
    6d30:	fef42423          	sw	a5,-24(s0)
    6d34:	0240006f          	j	6d58 <calculate_win_lines_dir+0x58>
    6d38:	fec42703          	lw	a4,-20(s0)
    6d3c:	fd042783          	lw	a5,-48(s0)
    6d40:	40f707b3          	sub	a5,a4,a5
    6d44:	fef42623          	sw	a5,-20(s0)
    6d48:	fe842703          	lw	a4,-24(s0)
    6d4c:	fcc42783          	lw	a5,-52(s0)
    6d50:	40f707b3          	sub	a5,a4,a5
    6d54:	fef42423          	sw	a5,-24(s0)
    6d58:	fe842583          	lw	a1,-24(s0)
    6d5c:	fec42503          	lw	a0,-20(s0)
    6d60:	89dff0ef          	jal	65fc <fiar_valid_tile>
    6d64:	00050793          	mv	a5,a0
    6d68:	02078e63          	beqz	a5,6da4 <calculate_win_lines_dir+0xa4>
    6d6c:	fe842603          	lw	a2,-24(s0)
    6d70:	fec42583          	lw	a1,-20(s0)
    6d74:	fdc42503          	lw	a0,-36(s0)
    6d78:	8ddff0ef          	jal	6654 <fiar_has_tile>
    6d7c:	00050793          	mv	a5,a0
    6d80:	02078263          	beqz	a5,6da4 <calculate_win_lines_dir+0xa4>
    6d84:	fe842603          	lw	a2,-24(s0)
    6d88:	fec42583          	lw	a1,-20(s0)
    6d8c:	fdc42503          	lw	a0,-36(s0)
    6d90:	9c1ff0ef          	jal	6750 <fiar_get_tile>
    6d94:	00050713          	mv	a4,a0
    6d98:	fdc42783          	lw	a5,-36(s0)
    6d9c:	0107a783          	lw	a5,16(a5)
    6da0:	f8f70ce3          	beq	a4,a5,6d38 <calculate_win_lines_dir+0x38>
    6da4:	fec42703          	lw	a4,-20(s0)
    6da8:	fd042783          	lw	a5,-48(s0)
    6dac:	00f707b3          	add	a5,a4,a5
    6db0:	fef42623          	sw	a5,-20(s0)
    6db4:	fe842703          	lw	a4,-24(s0)
    6db8:	fcc42783          	lw	a5,-52(s0)
    6dbc:	00f707b3          	add	a5,a4,a5
    6dc0:	fef42423          	sw	a5,-24(s0)
    6dc4:	fe042223          	sw	zero,-28(s0)
    6dc8:	1040006f          	j	6ecc <calculate_win_lines_dir+0x1cc>
    6dcc:	fe842603          	lw	a2,-24(s0)
    6dd0:	fec42583          	lw	a1,-20(s0)
    6dd4:	fdc42503          	lw	a0,-36(s0)
    6dd8:	87dff0ef          	jal	6654 <fiar_has_tile>
    6ddc:	00050793          	mv	a5,a0
    6de0:	02078a63          	beqz	a5,6e14 <calculate_win_lines_dir+0x114>
    6de4:	fe842603          	lw	a2,-24(s0)
    6de8:	fec42583          	lw	a1,-20(s0)
    6dec:	fdc42503          	lw	a0,-36(s0)
    6df0:	961ff0ef          	jal	6750 <fiar_get_tile>
    6df4:	00050713          	mv	a4,a0
    6df8:	fdc42783          	lw	a5,-36(s0)
    6dfc:	0107a783          	lw	a5,16(a5)
    6e00:	00f71a63          	bne	a4,a5,6e14 <calculate_win_lines_dir+0x114>
    6e04:	fe442783          	lw	a5,-28(s0)
    6e08:	00178793          	add	a5,a5,1
    6e0c:	fef42223          	sw	a5,-28(s0)
    6e10:	0080006f          	j	6e18 <calculate_win_lines_dir+0x118>
    6e14:	fe042223          	sw	zero,-28(s0)
    6e18:	fe442703          	lw	a4,-28(s0)
    6e1c:	00400793          	li	a5,4
    6e20:	08f71663          	bne	a4,a5,6eac <calculate_win_lines_dir+0x1ac>
    6e24:	fdc42783          	lw	a5,-36(s0)
    6e28:	05c7a703          	lw	a4,92(a5)
    6e2c:	00300793          	li	a5,3
    6e30:	00e7f863          	bgeu	a5,a4,6e40 <calculate_win_lines_dir+0x140>
    6e34:	000117b7          	lui	a5,0x11
    6e38:	b3878513          	add	a0,a5,-1224 # 10b38 <glyphs_width+0x6f0>
    6e3c:	da8fb0ef          	jal	23e4 <panic>
    6e40:	fdc42783          	lw	a5,-36(s0)
    6e44:	05c7a783          	lw	a5,92(a5)
    6e48:	00178793          	add	a5,a5,1
    6e4c:	00479793          	sll	a5,a5,0x4
    6e50:	fdc42703          	lw	a4,-36(s0)
    6e54:	00f707b3          	add	a5,a4,a5
    6e58:	00c78793          	add	a5,a5,12
    6e5c:	fef42023          	sw	a5,-32(s0)
    6e60:	fe042783          	lw	a5,-32(s0)
    6e64:	fec42703          	lw	a4,-20(s0)
    6e68:	00e7a023          	sw	a4,0(a5)
    6e6c:	fe042783          	lw	a5,-32(s0)
    6e70:	fe842703          	lw	a4,-24(s0)
    6e74:	00e7a223          	sw	a4,4(a5)
    6e78:	fe042783          	lw	a5,-32(s0)
    6e7c:	fd042703          	lw	a4,-48(s0)
    6e80:	00e7a423          	sw	a4,8(a5)
    6e84:	fe042783          	lw	a5,-32(s0)
    6e88:	fcc42703          	lw	a4,-52(s0)
    6e8c:	00e7a623          	sw	a4,12(a5)
    6e90:	fdc42783          	lw	a5,-36(s0)
    6e94:	05c7a783          	lw	a5,92(a5)
    6e98:	00178713          	add	a4,a5,1
    6e9c:	fdc42783          	lw	a5,-36(s0)
    6ea0:	04e7ae23          	sw	a4,92(a5)
    6ea4:	00100793          	li	a5,1
    6ea8:	03c0006f          	j	6ee4 <calculate_win_lines_dir+0x1e4>
    6eac:	fec42703          	lw	a4,-20(s0)
    6eb0:	fd042783          	lw	a5,-48(s0)
    6eb4:	00f707b3          	add	a5,a4,a5
    6eb8:	fef42623          	sw	a5,-20(s0)
    6ebc:	fe842703          	lw	a4,-24(s0)
    6ec0:	fcc42783          	lw	a5,-52(s0)
    6ec4:	00f707b3          	add	a5,a4,a5
    6ec8:	fef42423          	sw	a5,-24(s0)
    6ecc:	fe842583          	lw	a1,-24(s0)
    6ed0:	fec42503          	lw	a0,-20(s0)
    6ed4:	f28ff0ef          	jal	65fc <fiar_valid_tile>
    6ed8:	00050793          	mv	a5,a0
    6edc:	ee0798e3          	bnez	a5,6dcc <calculate_win_lines_dir+0xcc>
    6ee0:	00000793          	li	a5,0
    6ee4:	00078513          	mv	a0,a5
    6ee8:	03c12083          	lw	ra,60(sp)
    6eec:	03812403          	lw	s0,56(sp)
    6ef0:	04010113          	add	sp,sp,64
    6ef4:	00008067          	ret

00006ef8 <calculate_win_lines>:
    6ef8:	fc010113          	add	sp,sp,-64
    6efc:	02112e23          	sw	ra,60(sp)
    6f00:	02812c23          	sw	s0,56(sp)
    6f04:	04010413          	add	s0,sp,64
    6f08:	fca42623          	sw	a0,-52(s0)
    6f0c:	fcb42423          	sw	a1,-56(s0)
    6f10:	fcc42223          	sw	a2,-60(s0)
    6f14:	00000713          	li	a4,0
    6f18:	00100693          	li	a3,1
    6f1c:	fc442603          	lw	a2,-60(s0)
    6f20:	fc842583          	lw	a1,-56(s0)
    6f24:	fcc42503          	lw	a0,-52(s0)
    6f28:	dd9ff0ef          	jal	6d00 <calculate_win_lines_dir>
    6f2c:	fea42623          	sw	a0,-20(s0)
    6f30:	00100713          	li	a4,1
    6f34:	00100693          	li	a3,1
    6f38:	fc442603          	lw	a2,-60(s0)
    6f3c:	fc842583          	lw	a1,-56(s0)
    6f40:	fcc42503          	lw	a0,-52(s0)
    6f44:	dbdff0ef          	jal	6d00 <calculate_win_lines_dir>
    6f48:	fea42423          	sw	a0,-24(s0)
    6f4c:	fff00713          	li	a4,-1
    6f50:	00100693          	li	a3,1
    6f54:	fc442603          	lw	a2,-60(s0)
    6f58:	fc842583          	lw	a1,-56(s0)
    6f5c:	fcc42503          	lw	a0,-52(s0)
    6f60:	da1ff0ef          	jal	6d00 <calculate_win_lines_dir>
    6f64:	fea42223          	sw	a0,-28(s0)
    6f68:	00100713          	li	a4,1
    6f6c:	00000693          	li	a3,0
    6f70:	fc442603          	lw	a2,-60(s0)
    6f74:	fc842583          	lw	a1,-56(s0)
    6f78:	fcc42503          	lw	a0,-52(s0)
    6f7c:	d85ff0ef          	jal	6d00 <calculate_win_lines_dir>
    6f80:	fea42023          	sw	a0,-32(s0)
    6f84:	fec42783          	lw	a5,-20(s0)
    6f88:	00079e63          	bnez	a5,6fa4 <calculate_win_lines+0xac>
    6f8c:	fe842783          	lw	a5,-24(s0)
    6f90:	00079a63          	bnez	a5,6fa4 <calculate_win_lines+0xac>
    6f94:	fe442783          	lw	a5,-28(s0)
    6f98:	00079663          	bnez	a5,6fa4 <calculate_win_lines+0xac>
    6f9c:	fe042783          	lw	a5,-32(s0)
    6fa0:	00078663          	beqz	a5,6fac <calculate_win_lines+0xb4>
    6fa4:	00100793          	li	a5,1
    6fa8:	0080006f          	j	6fb0 <calculate_win_lines+0xb8>
    6fac:	00000793          	li	a5,0
    6fb0:	fcf42e23          	sw	a5,-36(s0)
    6fb4:	fdc42783          	lw	a5,-36(s0)
    6fb8:	02078263          	beqz	a5,6fdc <calculate_win_lines+0xe4>
    6fbc:	fcc42783          	lw	a5,-52(s0)
    6fc0:	0107a783          	lw	a5,16(a5)
    6fc4:	00079663          	bnez	a5,6fd0 <calculate_win_lines+0xd8>
    6fc8:	00100793          	li	a5,1
    6fcc:	0080006f          	j	6fd4 <calculate_win_lines+0xdc>
    6fd0:	00200793          	li	a5,2
    6fd4:	fcc42703          	lw	a4,-52(s0)
    6fd8:	00f72c23          	sw	a5,24(a4)
    6fdc:	00000013          	nop
    6fe0:	03c12083          	lw	ra,60(sp)
    6fe4:	03812403          	lw	s0,56(sp)
    6fe8:	04010113          	add	sp,sp,64
    6fec:	00008067          	ret

00006ff0 <fiar_drop_tile>:
    6ff0:	fd010113          	add	sp,sp,-48
    6ff4:	02112623          	sw	ra,44(sp)
    6ff8:	02812423          	sw	s0,40(sp)
    6ffc:	03010413          	add	s0,sp,48
    7000:	fca42e23          	sw	a0,-36(s0)
    7004:	fdc42503          	lw	a0,-36(s0)
    7008:	c49ff0ef          	jal	6c50 <fiar_can_drop>
    700c:	00050793          	mv	a5,a0
    7010:	00079863          	bnez	a5,7020 <fiar_drop_tile+0x30>
    7014:	000117b7          	lui	a5,0x11
    7018:	b6878513          	add	a0,a5,-1176 # 10b68 <glyphs_width+0x720>
    701c:	bc8fb0ef          	jal	23e4 <panic>
    7020:	00500793          	li	a5,5
    7024:	fef42623          	sw	a5,-20(s0)
    7028:	0800006f          	j	70a8 <fiar_drop_tile+0xb8>
    702c:	fdc42783          	lw	a5,-36(s0)
    7030:	0147a783          	lw	a5,20(a5)
    7034:	fec42603          	lw	a2,-20(s0)
    7038:	00078593          	mv	a1,a5
    703c:	fdc42503          	lw	a0,-36(s0)
    7040:	e14ff0ef          	jal	6654 <fiar_has_tile>
    7044:	00050793          	mv	a5,a0
    7048:	04079a63          	bnez	a5,709c <fiar_drop_tile+0xac>
    704c:	fdc42783          	lw	a5,-36(s0)
    7050:	0147a703          	lw	a4,20(a5)
    7054:	fdc42783          	lw	a5,-36(s0)
    7058:	0107a783          	lw	a5,16(a5)
    705c:	00078693          	mv	a3,a5
    7060:	fec42603          	lw	a2,-20(s0)
    7064:	00070593          	mv	a1,a4
    7068:	fdc42503          	lw	a0,-36(s0)
    706c:	899ff0ef          	jal	6904 <fiar_set_tile>
    7070:	fdc42783          	lw	a5,-36(s0)
    7074:	0147a783          	lw	a5,20(a5)
    7078:	fec42603          	lw	a2,-20(s0)
    707c:	00078593          	mv	a1,a5
    7080:	fdc42503          	lw	a0,-36(s0)
    7084:	e75ff0ef          	jal	6ef8 <calculate_win_lines>
    7088:	fdc42783          	lw	a5,-36(s0)
    708c:	01078793          	add	a5,a5,16
    7090:	00078513          	mv	a0,a5
    7094:	c31ff0ef          	jal	6cc4 <fiar_opposite_player>
    7098:	0240006f          	j	70bc <fiar_drop_tile+0xcc>
    709c:	fec42783          	lw	a5,-20(s0)
    70a0:	fff78793          	add	a5,a5,-1
    70a4:	fef42623          	sw	a5,-20(s0)
    70a8:	fec42783          	lw	a5,-20(s0)
    70ac:	f807d0e3          	bgez	a5,702c <fiar_drop_tile+0x3c>
    70b0:	000117b7          	lui	a5,0x11
    70b4:	b8c78513          	add	a0,a5,-1140 # 10b8c <glyphs_width+0x744>
    70b8:	b2cfb0ef          	jal	23e4 <panic>
    70bc:	02c12083          	lw	ra,44(sp)
    70c0:	02812403          	lw	s0,40(sp)
    70c4:	03010113          	add	sp,sp,48
    70c8:	00008067          	ret

000070cc <fiar_handle_interrupt>:
    70cc:	fd010113          	add	sp,sp,-48
    70d0:	02112623          	sw	ra,44(sp)
    70d4:	02812423          	sw	s0,40(sp)
    70d8:	03010413          	add	s0,sp,48
    70dc:	fca42e23          	sw	a0,-36(s0)
    70e0:	000027b7          	lui	a5,0x2
    70e4:	71078513          	add	a0,a5,1808 # 2710 <shuffle+0xe8>
    70e8:	b14fb0ef          	jal	23fc <delay>
    70ec:	fdc42703          	lw	a4,-36(s0)
    70f0:	01100793          	li	a5,17
    70f4:	00f70a63          	beq	a4,a5,7108 <fiar_handle_interrupt+0x3c>
    70f8:	fdc42703          	lw	a4,-36(s0)
    70fc:	01200793          	li	a5,18
    7100:	04f70e63          	beq	a4,a5,715c <fiar_handle_interrupt+0x90>
    7104:	0a40006f          	j	71a8 <fiar_handle_interrupt+0xdc>
    7108:	8f5f90ef          	jal	9fc <io_switch>
    710c:	fea42623          	sw	a0,-20(s0)
    7110:	fec42783          	lw	a5,-20(s0)
    7114:	0077f793          	and	a5,a5,7
    7118:	00600613          	li	a2,6
    711c:	00000593          	li	a1,0
    7120:	00078513          	mv	a0,a5
    7124:	bd0fb0ef          	jal	24f4 <clamp>
    7128:	00050713          	mv	a4,a0
    712c:	0000f7b7          	lui	a5,0xf
    7130:	9a878793          	add	a5,a5,-1624 # e9a8 <board>
    7134:	00e7aa23          	sw	a4,20(a5)
    7138:	fec42783          	lw	a5,-20(s0)
    713c:	2007f793          	and	a5,a5,512
    7140:	00078663          	beqz	a5,714c <fiar_handle_interrupt+0x80>
    7144:	00100793          	li	a5,1
    7148:	0640006f          	j	71ac <fiar_handle_interrupt+0xe0>
    714c:	0000f7b7          	lui	a5,0xf
    7150:	9a878513          	add	a0,a5,-1624 # e9a8 <board>
    7154:	1b5000ef          	jal	7b08 <fiar_render>
    7158:	0500006f          	j	71a8 <fiar_handle_interrupt+0xdc>
    715c:	0000f7b7          	lui	a5,0xf
    7160:	9a878793          	add	a5,a5,-1624 # e9a8 <board>
    7164:	0187a783          	lw	a5,24(a5)
    7168:	02079e63          	bnez	a5,71a4 <fiar_handle_interrupt+0xd8>
    716c:	809f90ef          	jal	974 <io_button>
    7170:	00050793          	mv	a5,a0
    7174:	02078863          	beqz	a5,71a4 <fiar_handle_interrupt+0xd8>
    7178:	0000f7b7          	lui	a5,0xf
    717c:	9a878513          	add	a0,a5,-1624 # e9a8 <board>
    7180:	ad1ff0ef          	jal	6c50 <fiar_can_drop>
    7184:	00050793          	mv	a5,a0
    7188:	00078e63          	beqz	a5,71a4 <fiar_handle_interrupt+0xd8>
    718c:	0000f7b7          	lui	a5,0xf
    7190:	9a878513          	add	a0,a5,-1624 # e9a8 <board>
    7194:	e5dff0ef          	jal	6ff0 <fiar_drop_tile>
    7198:	0000f7b7          	lui	a5,0xf
    719c:	9a878513          	add	a0,a5,-1624 # e9a8 <board>
    71a0:	169000ef          	jal	7b08 <fiar_render>
    71a4:	00000013          	nop
    71a8:	00000793          	li	a5,0
    71ac:	00078513          	mv	a0,a5
    71b0:	02c12083          	lw	ra,44(sp)
    71b4:	02812403          	lw	s0,40(sp)
    71b8:	03010113          	add	sp,sp,48
    71bc:	00008067          	ret

000071c0 <fiar_handler_reset>:
    71c0:	ff010113          	add	sp,sp,-16
    71c4:	00112623          	sw	ra,12(sp)
    71c8:	00812423          	sw	s0,8(sp)
    71cc:	01010413          	add	s0,sp,16
    71d0:	0000f7b7          	lui	a5,0xf
    71d4:	9a878793          	add	a5,a5,-1624 # e9a8 <board>
    71d8:	00000693          	li	a3,0
    71dc:	00000713          	li	a4,0
    71e0:	00d7a023          	sw	a3,0(a5)
    71e4:	00e7a223          	sw	a4,4(a5)
    71e8:	0000f7b7          	lui	a5,0xf
    71ec:	9a878793          	add	a5,a5,-1624 # e9a8 <board>
    71f0:	00d7a423          	sw	a3,8(a5)
    71f4:	00e7a623          	sw	a4,12(a5)
    71f8:	0000f7b7          	lui	a5,0xf
    71fc:	9a878793          	add	a5,a5,-1624 # e9a8 <board>
    7200:	00100713          	li	a4,1
    7204:	00e7a823          	sw	a4,16(a5)
    7208:	ff4f90ef          	jal	9fc <io_switch>
    720c:	00050793          	mv	a5,a0
    7210:	0077f713          	and	a4,a5,7
    7214:	0000f7b7          	lui	a5,0xf
    7218:	9a878793          	add	a5,a5,-1624 # e9a8 <board>
    721c:	00e7aa23          	sw	a4,20(a5)
    7220:	0000f7b7          	lui	a5,0xf
    7224:	9a878793          	add	a5,a5,-1624 # e9a8 <board>
    7228:	0007ac23          	sw	zero,24(a5)
    722c:	0000f7b7          	lui	a5,0xf
    7230:	a007a423          	sw	zero,-1528(a5) # ea08 <has_rendered>
    7234:	0a9000ef          	jal	7adc <fiar_reset_render>
    7238:	00000013          	nop
    723c:	00c12083          	lw	ra,12(sp)
    7240:	00812403          	lw	s0,8(sp)
    7244:	01010113          	add	sp,sp,16
    7248:	00008067          	ret

0000724c <fiar_handler_render>:
    724c:	ff010113          	add	sp,sp,-16
    7250:	00112623          	sw	ra,12(sp)
    7254:	00812423          	sw	s0,8(sp)
    7258:	01010413          	add	s0,sp,16
    725c:	0000f7b7          	lui	a5,0xf
    7260:	a087a783          	lw	a5,-1528(a5) # ea08 <has_rendered>
    7264:	00079e63          	bnez	a5,7280 <fiar_handler_render+0x34>
    7268:	0000f7b7          	lui	a5,0xf
    726c:	9a878513          	add	a0,a5,-1624 # e9a8 <board>
    7270:	099000ef          	jal	7b08 <fiar_render>
    7274:	0000f7b7          	lui	a5,0xf
    7278:	00100713          	li	a4,1
    727c:	a0e7a423          	sw	a4,-1528(a5) # ea08 <has_rendered>
    7280:	00000013          	nop
    7284:	00c12083          	lw	ra,12(sp)
    7288:	00812403          	lw	s0,8(sp)
    728c:	01010113          	add	sp,sp,16
    7290:	00008067          	ret

00007294 <get_background_color>:
    7294:	fe010113          	add	sp,sp,-32
    7298:	00812e23          	sw	s0,28(sp)
    729c:	02010413          	add	s0,sp,32
    72a0:	fea42623          	sw	a0,-20(s0)
    72a4:	feb42423          	sw	a1,-24(s0)
    72a8:	04f00793          	li	a5,79
    72ac:	fec42703          	lw	a4,-20(s0)
    72b0:	04f74063          	blt	a4,a5,72f0 <get_background_color+0x5c>
    72b4:	04f00713          	li	a4,79
    72b8:	0a200793          	li	a5,162
    72bc:	00f707b3          	add	a5,a4,a5
    72c0:	fec42703          	lw	a4,-20(s0)
    72c4:	02f75663          	bge	a4,a5,72f0 <get_background_color+0x5c>
    72c8:	03200793          	li	a5,50
    72cc:	fe842703          	lw	a4,-24(s0)
    72d0:	02f74063          	blt	a4,a5,72f0 <get_background_color+0x5c>
    72d4:	03200713          	li	a4,50
    72d8:	08b00793          	li	a5,139
    72dc:	00f707b3          	add	a5,a4,a5
    72e0:	fe842703          	lw	a4,-24(s0)
    72e4:	00f75663          	bge	a4,a5,72f0 <get_background_color+0x5c>
    72e8:	01300793          	li	a5,19
    72ec:	0080006f          	j	72f4 <get_background_color+0x60>
    72f0:	00e00793          	li	a5,14
    72f4:	00078513          	mv	a0,a5
    72f8:	01c12403          	lw	s0,28(sp)
    72fc:	02010113          	add	sp,sp,32
    7300:	00008067          	ret

00007304 <render_grid_tiles>:
    7304:	fe010113          	add	sp,sp,-32
    7308:	00112e23          	sw	ra,28(sp)
    730c:	00812c23          	sw	s0,24(sp)
    7310:	02010413          	add	s0,sp,32
    7314:	fe042623          	sw	zero,-20(s0)
    7318:	08c0006f          	j	73a4 <render_grid_tiles+0xa0>
    731c:	fe042423          	sw	zero,-24(s0)
    7320:	06c0006f          	j	738c <render_grid_tiles+0x88>
    7324:	01800713          	li	a4,24
    7328:	fec42783          	lw	a5,-20(s0)
    732c:	02f70733          	mul	a4,a4,a5
    7330:	04f00793          	li	a5,79
    7334:	00f70733          	add	a4,a4,a5
    7338:	fec42783          	lw	a5,-20(s0)
    733c:	40f707b3          	sub	a5,a4,a5
    7340:	fef42223          	sw	a5,-28(s0)
    7344:	01800713          	li	a4,24
    7348:	fe842783          	lw	a5,-24(s0)
    734c:	02f70733          	mul	a4,a4,a5
    7350:	03200793          	li	a5,50
    7354:	00f70733          	add	a4,a4,a5
    7358:	fe842783          	lw	a5,-24(s0)
    735c:	40f707b3          	sub	a5,a4,a5
    7360:	fef42023          	sw	a5,-32(s0)
    7364:	01800793          	li	a5,24
    7368:	01800693          	li	a3,24
    736c:	00000713          	li	a4,0
    7370:	00078613          	mv	a2,a5
    7374:	fe042583          	lw	a1,-32(s0)
    7378:	fe442503          	lw	a0,-28(s0)
    737c:	864fa0ef          	jal	13e0 <render_rect_border>
    7380:	fe842783          	lw	a5,-24(s0)
    7384:	00178793          	add	a5,a5,1
    7388:	fef42423          	sw	a5,-24(s0)
    738c:	00600793          	li	a5,6
    7390:	fe842703          	lw	a4,-24(s0)
    7394:	f8f748e3          	blt	a4,a5,7324 <render_grid_tiles+0x20>
    7398:	fec42783          	lw	a5,-20(s0)
    739c:	00178793          	add	a5,a5,1
    73a0:	fef42623          	sw	a5,-20(s0)
    73a4:	00700793          	li	a5,7
    73a8:	fec42703          	lw	a4,-20(s0)
    73ac:	f6f748e3          	blt	a4,a5,731c <render_grid_tiles+0x18>
    73b0:	00000013          	nop
    73b4:	00000013          	nop
    73b8:	01c12083          	lw	ra,28(sp)
    73bc:	01812403          	lw	s0,24(sp)
    73c0:	02010113          	add	sp,sp,32
    73c4:	00008067          	ret

000073c8 <clear_ghost_tile>:
    73c8:	fd010113          	add	sp,sp,-48
    73cc:	02112623          	sw	ra,44(sp)
    73d0:	02812423          	sw	s0,40(sp)
    73d4:	03010413          	add	s0,sp,48
    73d8:	fca42e23          	sw	a0,-36(s0)
    73dc:	0000f7b7          	lui	a5,0xf
    73e0:	a707a783          	lw	a5,-1424(a5) # ea70 <has_last_board>
    73e4:	00079863          	bnez	a5,73f4 <clear_ghost_tile+0x2c>
    73e8:	000117b7          	lui	a5,0x11
    73ec:	b9878513          	add	a0,a5,-1128 # 10b98 <glyphs_width+0x750>
    73f0:	ff5fa0ef          	jal	23e4 <panic>
    73f4:	0000f7b7          	lui	a5,0xf
    73f8:	a1078793          	add	a5,a5,-1520 # ea10 <last_board>
    73fc:	0147a783          	lw	a5,20(a5)
    7400:	fef42623          	sw	a5,-20(s0)
    7404:	01800713          	li	a4,24
    7408:	fec42783          	lw	a5,-20(s0)
    740c:	02f70733          	mul	a4,a4,a5
    7410:	04f00793          	li	a5,79
    7414:	00f70733          	add	a4,a4,a5
    7418:	fec42783          	lw	a5,-20(s0)
    741c:	40f707b3          	sub	a5,a4,a5
    7420:	00278793          	add	a5,a5,2
    7424:	fef42423          	sw	a5,-24(s0)
    7428:	03200793          	li	a5,50
    742c:	fea78793          	add	a5,a5,-22
    7430:	fef42223          	sw	a5,-28(s0)
    7434:	00e00793          	li	a5,14
    7438:	00078613          	mv	a2,a5
    743c:	fe442583          	lw	a1,-28(s0)
    7440:	fe842503          	lw	a0,-24(s0)
    7444:	968fa0ef          	jal	15ac <render_20x20_circle>
    7448:	00000013          	nop
    744c:	02c12083          	lw	ra,44(sp)
    7450:	02812403          	lw	s0,40(sp)
    7454:	03010113          	add	sp,sp,48
    7458:	00008067          	ret

0000745c <render_ghost_tile>:
    745c:	fd010113          	add	sp,sp,-48
    7460:	02112623          	sw	ra,44(sp)
    7464:	02812423          	sw	s0,40(sp)
    7468:	03010413          	add	s0,sp,48
    746c:	fca42e23          	sw	a0,-36(s0)
    7470:	0000f7b7          	lui	a5,0xf
    7474:	a707a783          	lw	a5,-1424(a5) # ea70 <has_last_board>
    7478:	00078863          	beqz	a5,7488 <render_ghost_tile+0x2c>
    747c:	0000f7b7          	lui	a5,0xf
    7480:	a1078513          	add	a0,a5,-1520 # ea10 <last_board>
    7484:	f45ff0ef          	jal	73c8 <clear_ghost_tile>
    7488:	fdc42783          	lw	a5,-36(s0)
    748c:	0187a783          	lw	a5,24(a5)
    7490:	06079663          	bnez	a5,74fc <render_ghost_tile+0xa0>
    7494:	fdc42783          	lw	a5,-36(s0)
    7498:	0147a783          	lw	a5,20(a5)
    749c:	fef42623          	sw	a5,-20(s0)
    74a0:	01800713          	li	a4,24
    74a4:	fec42783          	lw	a5,-20(s0)
    74a8:	02f70733          	mul	a4,a4,a5
    74ac:	04f00793          	li	a5,79
    74b0:	00f70733          	add	a4,a4,a5
    74b4:	fec42783          	lw	a5,-20(s0)
    74b8:	40f707b3          	sub	a5,a4,a5
    74bc:	00278793          	add	a5,a5,2
    74c0:	fef42423          	sw	a5,-24(s0)
    74c4:	03200793          	li	a5,50
    74c8:	fea78793          	add	a5,a5,-22
    74cc:	fef42223          	sw	a5,-28(s0)
    74d0:	fdc42783          	lw	a5,-36(s0)
    74d4:	0107a783          	lw	a5,16(a5)
    74d8:	00079663          	bnez	a5,74e4 <render_ghost_tile+0x88>
    74dc:	0fc00793          	li	a5,252
    74e0:	0080006f          	j	74e8 <render_ghost_tile+0x8c>
    74e4:	0e000793          	li	a5,224
    74e8:	00078613          	mv	a2,a5
    74ec:	fe442583          	lw	a1,-28(s0)
    74f0:	fe842503          	lw	a0,-24(s0)
    74f4:	8b8fa0ef          	jal	15ac <render_20x20_circle>
    74f8:	0080006f          	j	7500 <render_ghost_tile+0xa4>
    74fc:	00000013          	nop
    7500:	02c12083          	lw	ra,44(sp)
    7504:	02812403          	lw	s0,40(sp)
    7508:	03010113          	add	sp,sp,48
    750c:	00008067          	ret

00007510 <render_tile>:
    7510:	fd010113          	add	sp,sp,-48
    7514:	02112623          	sw	ra,44(sp)
    7518:	02812423          	sw	s0,40(sp)
    751c:	02912223          	sw	s1,36(sp)
    7520:	03010413          	add	s0,sp,48
    7524:	fca42e23          	sw	a0,-36(s0)
    7528:	fcb42c23          	sw	a1,-40(s0)
    752c:	fcc42a23          	sw	a2,-44(s0)
    7530:	0000f7b7          	lui	a5,0xf
    7534:	a707a783          	lw	a5,-1424(a5) # ea70 <has_last_board>
    7538:	08078e63          	beqz	a5,75d4 <render_tile+0xc4>
    753c:	fd442603          	lw	a2,-44(s0)
    7540:	fd842583          	lw	a1,-40(s0)
    7544:	fdc42503          	lw	a0,-36(s0)
    7548:	90cff0ef          	jal	6654 <fiar_has_tile>
    754c:	00050793          	mv	a5,a0
    7550:	04078863          	beqz	a5,75a0 <render_tile+0x90>
    7554:	fd442603          	lw	a2,-44(s0)
    7558:	fd842583          	lw	a1,-40(s0)
    755c:	0000f7b7          	lui	a5,0xf
    7560:	a1078513          	add	a0,a5,-1520 # ea10 <last_board>
    7564:	8f0ff0ef          	jal	6654 <fiar_has_tile>
    7568:	00050793          	mv	a5,a0
    756c:	02078a63          	beqz	a5,75a0 <render_tile+0x90>
    7570:	fd442603          	lw	a2,-44(s0)
    7574:	fd842583          	lw	a1,-40(s0)
    7578:	fdc42503          	lw	a0,-36(s0)
    757c:	9d4ff0ef          	jal	6750 <fiar_get_tile>
    7580:	00050493          	mv	s1,a0
    7584:	fd442603          	lw	a2,-44(s0)
    7588:	fd842583          	lw	a1,-40(s0)
    758c:	0000f7b7          	lui	a5,0xf
    7590:	a1078513          	add	a0,a5,-1520 # ea10 <last_board>
    7594:	9bcff0ef          	jal	6750 <fiar_get_tile>
    7598:	00050793          	mv	a5,a0
    759c:	0ef48863          	beq	s1,a5,768c <render_tile+0x17c>
    75a0:	fd442603          	lw	a2,-44(s0)
    75a4:	fd842583          	lw	a1,-40(s0)
    75a8:	fdc42503          	lw	a0,-36(s0)
    75ac:	8a8ff0ef          	jal	6654 <fiar_has_tile>
    75b0:	00050793          	mv	a5,a0
    75b4:	02079063          	bnez	a5,75d4 <render_tile+0xc4>
    75b8:	fd442603          	lw	a2,-44(s0)
    75bc:	fd842583          	lw	a1,-40(s0)
    75c0:	0000f7b7          	lui	a5,0xf
    75c4:	a1078513          	add	a0,a5,-1520 # ea10 <last_board>
    75c8:	88cff0ef          	jal	6654 <fiar_has_tile>
    75cc:	00050793          	mv	a5,a0
    75d0:	0c078263          	beqz	a5,7694 <render_tile+0x184>
    75d4:	01800713          	li	a4,24
    75d8:	fd842783          	lw	a5,-40(s0)
    75dc:	02f70733          	mul	a4,a4,a5
    75e0:	04f00793          	li	a5,79
    75e4:	00f70733          	add	a4,a4,a5
    75e8:	fd842783          	lw	a5,-40(s0)
    75ec:	40f707b3          	sub	a5,a4,a5
    75f0:	00278793          	add	a5,a5,2
    75f4:	fef42423          	sw	a5,-24(s0)
    75f8:	01800713          	li	a4,24
    75fc:	fd442783          	lw	a5,-44(s0)
    7600:	02f70733          	mul	a4,a4,a5
    7604:	03200793          	li	a5,50
    7608:	00f70733          	add	a4,a4,a5
    760c:	fd442783          	lw	a5,-44(s0)
    7610:	40f707b3          	sub	a5,a4,a5
    7614:	00278793          	add	a5,a5,2
    7618:	fef42223          	sw	a5,-28(s0)
    761c:	01300793          	li	a5,19
    7620:	fef407a3          	sb	a5,-17(s0)
    7624:	fd442603          	lw	a2,-44(s0)
    7628:	fd842583          	lw	a1,-40(s0)
    762c:	fdc42503          	lw	a0,-36(s0)
    7630:	824ff0ef          	jal	6654 <fiar_has_tile>
    7634:	00050793          	mv	a5,a0
    7638:	02078a63          	beqz	a5,766c <render_tile+0x15c>
    763c:	fd442603          	lw	a2,-44(s0)
    7640:	fd842583          	lw	a1,-40(s0)
    7644:	fdc42503          	lw	a0,-36(s0)
    7648:	908ff0ef          	jal	6750 <fiar_get_tile>
    764c:	fea42023          	sw	a0,-32(s0)
    7650:	fe042783          	lw	a5,-32(s0)
    7654:	00079663          	bnez	a5,7660 <render_tile+0x150>
    7658:	0fc00793          	li	a5,252
    765c:	0080006f          	j	7664 <render_tile+0x154>
    7660:	0e000793          	li	a5,224
    7664:	fef407a3          	sb	a5,-17(s0)
    7668:	00c0006f          	j	7674 <render_tile+0x164>
    766c:	01300793          	li	a5,19
    7670:	fef407a3          	sb	a5,-17(s0)
    7674:	fef44783          	lbu	a5,-17(s0)
    7678:	00078613          	mv	a2,a5
    767c:	fe442583          	lw	a1,-28(s0)
    7680:	fe842503          	lw	a0,-24(s0)
    7684:	f29f90ef          	jal	15ac <render_20x20_circle>
    7688:	0100006f          	j	7698 <render_tile+0x188>
    768c:	00000013          	nop
    7690:	0080006f          	j	7698 <render_tile+0x188>
    7694:	00000013          	nop
    7698:	02c12083          	lw	ra,44(sp)
    769c:	02812403          	lw	s0,40(sp)
    76a0:	02412483          	lw	s1,36(sp)
    76a4:	03010113          	add	sp,sp,48
    76a8:	00008067          	ret

000076ac <get_win_message>:
    76ac:	fe010113          	add	sp,sp,-32
    76b0:	00112e23          	sw	ra,28(sp)
    76b4:	00812c23          	sw	s0,24(sp)
    76b8:	02010413          	add	s0,sp,32
    76bc:	fea42623          	sw	a0,-20(s0)
    76c0:	fec42783          	lw	a5,-20(s0)
    76c4:	0187a783          	lw	a5,24(a5)
    76c8:	00079863          	bnez	a5,76d8 <get_win_message+0x2c>
    76cc:	000117b7          	lui	a5,0x11
    76d0:	bb478513          	add	a0,a5,-1100 # 10bb4 <glyphs_width+0x76c>
    76d4:	d11fa0ef          	jal	23e4 <panic>
    76d8:	fec42783          	lw	a5,-20(s0)
    76dc:	0187a783          	lw	a5,24(a5)
    76e0:	00300713          	li	a4,3
    76e4:	02e78063          	beq	a5,a4,7704 <get_win_message+0x58>
    76e8:	00300713          	li	a4,3
    76ec:	02f76e63          	bltu	a4,a5,7728 <get_win_message+0x7c>
    76f0:	00100713          	li	a4,1
    76f4:	02e78463          	beq	a5,a4,771c <get_win_message+0x70>
    76f8:	00200713          	li	a4,2
    76fc:	00e78a63          	beq	a5,a4,7710 <get_win_message+0x64>
    7700:	0280006f          	j	7728 <get_win_message+0x7c>
    7704:	000117b7          	lui	a5,0x11
    7708:	bdc78793          	add	a5,a5,-1060 # 10bdc <glyphs_width+0x794>
    770c:	0200006f          	j	772c <get_win_message+0x80>
    7710:	000117b7          	lui	a5,0x11
    7714:	bec78793          	add	a5,a5,-1044 # 10bec <glyphs_width+0x7a4>
    7718:	0140006f          	j	772c <get_win_message+0x80>
    771c:	000117b7          	lui	a5,0x11
    7720:	c0078793          	add	a5,a5,-1024 # 10c00 <glyphs_width+0x7b8>
    7724:	0080006f          	j	772c <get_win_message+0x80>
    7728:	00000793          	li	a5,0
    772c:	00078513          	mv	a0,a5
    7730:	01c12083          	lw	ra,28(sp)
    7734:	01812403          	lw	s0,24(sp)
    7738:	02010113          	add	sp,sp,32
    773c:	00008067          	ret

00007740 <render_victory_text>:
    7740:	fd010113          	add	sp,sp,-48
    7744:	02112623          	sw	ra,44(sp)
    7748:	02812423          	sw	s0,40(sp)
    774c:	03010413          	add	s0,sp,48
    7750:	fca42e23          	sw	a0,-36(s0)
    7754:	0000f7b7          	lui	a5,0xf
    7758:	a707a783          	lw	a5,-1424(a5) # ea70 <has_last_board>
    775c:	00078e63          	beqz	a5,7778 <render_victory_text+0x38>
    7760:	fdc42783          	lw	a5,-36(s0)
    7764:	0187a703          	lw	a4,24(a5)
    7768:	0000f7b7          	lui	a5,0xf
    776c:	a1078793          	add	a5,a5,-1520 # ea10 <last_board>
    7770:	0187a783          	lw	a5,24(a5)
    7774:	0ef70863          	beq	a4,a5,7864 <render_victory_text+0x124>
    7778:	0000f7b7          	lui	a5,0xf
    777c:	a707a783          	lw	a5,-1424(a5) # ea70 <has_last_board>
    7780:	06078a63          	beqz	a5,77f4 <render_victory_text+0xb4>
    7784:	0000f7b7          	lui	a5,0xf
    7788:	a1078793          	add	a5,a5,-1520 # ea10 <last_board>
    778c:	0187a783          	lw	a5,24(a5)
    7790:	06078263          	beqz	a5,77f4 <render_victory_text+0xb4>
    7794:	0000f7b7          	lui	a5,0xf
    7798:	a1078513          	add	a0,a5,-1520 # ea10 <last_board>
    779c:	f11ff0ef          	jal	76ac <get_win_message>
    77a0:	fea42623          	sw	a0,-20(s0)
    77a4:	fec42783          	lw	a5,-20(s0)
    77a8:	00079863          	bnez	a5,77b8 <render_victory_text+0x78>
    77ac:	000117b7          	lui	a5,0x11
    77b0:	c1878513          	add	a0,a5,-1000 # 10c18 <glyphs_width+0x7d0>
    77b4:	c31fa0ef          	jal	23e4 <panic>
    77b8:	fec42503          	lw	a0,-20(s0)
    77bc:	ac9fa0ef          	jal	2284 <render_text_width>
    77c0:	fea42423          	sw	a0,-24(s0)
    77c4:	00e00593          	li	a1,14
    77c8:	14000713          	li	a4,320
    77cc:	fe842783          	lw	a5,-24(s0)
    77d0:	40f707b3          	sub	a5,a4,a5
    77d4:	01f7d713          	srl	a4,a5,0x1f
    77d8:	00f707b3          	add	a5,a4,a5
    77dc:	4017d793          	sra	a5,a5,0x1
    77e0:	00000713          	li	a4,0
    77e4:	01e00693          	li	a3,30
    77e8:	00078613          	mv	a2,a5
    77ec:	fec42503          	lw	a0,-20(s0)
    77f0:	9ddfa0ef          	jal	21cc <render_text_clear>
    77f4:	fdc42783          	lw	a5,-36(s0)
    77f8:	0187a783          	lw	a5,24(a5)
    77fc:	06078663          	beqz	a5,7868 <render_victory_text+0x128>
    7800:	fdc42503          	lw	a0,-36(s0)
    7804:	ea9ff0ef          	jal	76ac <get_win_message>
    7808:	fea42223          	sw	a0,-28(s0)
    780c:	fe442783          	lw	a5,-28(s0)
    7810:	00079863          	bnez	a5,7820 <render_victory_text+0xe0>
    7814:	000117b7          	lui	a5,0x11
    7818:	c1878513          	add	a0,a5,-1000 # 10c18 <glyphs_width+0x7d0>
    781c:	bc9fa0ef          	jal	23e4 <panic>
    7820:	fe442503          	lw	a0,-28(s0)
    7824:	a61fa0ef          	jal	2284 <render_text_width>
    7828:	fea42023          	sw	a0,-32(s0)
    782c:	00000593          	li	a1,0
    7830:	00e00613          	li	a2,14
    7834:	14000713          	li	a4,320
    7838:	fe042783          	lw	a5,-32(s0)
    783c:	40f707b3          	sub	a5,a4,a5
    7840:	01f7d713          	srl	a4,a5,0x1f
    7844:	00f707b3          	add	a5,a4,a5
    7848:	4017d793          	sra	a5,a5,0x1
    784c:	00078693          	mv	a3,a5
    7850:	00000793          	li	a5,0
    7854:	01e00713          	li	a4,30
    7858:	fe442503          	lw	a0,-28(s0)
    785c:	ec0fa0ef          	jal	1f1c <render_text>
    7860:	0080006f          	j	7868 <render_victory_text+0x128>
    7864:	00000013          	nop
    7868:	02c12083          	lw	ra,44(sp)
    786c:	02812403          	lw	s0,40(sp)
    7870:	03010113          	add	sp,sp,48
    7874:	00008067          	ret

00007878 <render_victory_lines>:
    7878:	fc010113          	add	sp,sp,-64
    787c:	02112e23          	sw	ra,60(sp)
    7880:	02812c23          	sw	s0,56(sp)
    7884:	04010413          	add	s0,sp,64
    7888:	fca42623          	sw	a0,-52(s0)
    788c:	0000f7b7          	lui	a5,0xf
    7890:	a707a783          	lw	a5,-1424(a5) # ea70 <has_last_board>
    7894:	00078e63          	beqz	a5,78b0 <render_victory_lines+0x38>
    7898:	fcc42783          	lw	a5,-52(s0)
    789c:	0187a703          	lw	a4,24(a5)
    78a0:	0000f7b7          	lui	a5,0xf
    78a4:	a1078793          	add	a5,a5,-1520 # ea10 <last_board>
    78a8:	0187a783          	lw	a5,24(a5)
    78ac:	20f70e63          	beq	a4,a5,7ac8 <render_victory_lines+0x250>
    78b0:	fcc42783          	lw	a5,-52(s0)
    78b4:	0187a783          	lw	a5,24(a5)
    78b8:	20078a63          	beqz	a5,7acc <render_victory_lines+0x254>
    78bc:	fe042623          	sw	zero,-20(s0)
    78c0:	1f40006f          	j	7ab4 <render_victory_lines+0x23c>
    78c4:	fec42783          	lw	a5,-20(s0)
    78c8:	00178793          	add	a5,a5,1
    78cc:	00479793          	sll	a5,a5,0x4
    78d0:	fcc42703          	lw	a4,-52(s0)
    78d4:	00f707b3          	add	a5,a4,a5
    78d8:	00c78793          	add	a5,a5,12
    78dc:	fef42423          	sw	a5,-24(s0)
    78e0:	fe842783          	lw	a5,-24(s0)
    78e4:	0047a703          	lw	a4,4(a5)
    78e8:	fe842783          	lw	a5,-24(s0)
    78ec:	00c7a783          	lw	a5,12(a5)
    78f0:	00078693          	mv	a3,a5
    78f4:	00279793          	sll	a5,a5,0x2
    78f8:	40f687b3          	sub	a5,a3,a5
    78fc:	00f707b3          	add	a5,a4,a5
    7900:	fef42223          	sw	a5,-28(s0)
    7904:	fe842783          	lw	a5,-24(s0)
    7908:	0007a703          	lw	a4,0(a5)
    790c:	fe842783          	lw	a5,-24(s0)
    7910:	0087a783          	lw	a5,8(a5)
    7914:	00078693          	mv	a3,a5
    7918:	00279793          	sll	a5,a5,0x2
    791c:	40f687b3          	sub	a5,a3,a5
    7920:	00f707b3          	add	a5,a4,a5
    7924:	fef42023          	sw	a5,-32(s0)
    7928:	fe842783          	lw	a5,-24(s0)
    792c:	0007a703          	lw	a4,0(a5)
    7930:	01800793          	li	a5,24
    7934:	02f70733          	mul	a4,a4,a5
    7938:	04f00793          	li	a5,79
    793c:	00f70733          	add	a4,a4,a5
    7940:	01800793          	li	a5,24
    7944:	01f7d693          	srl	a3,a5,0x1f
    7948:	00f687b3          	add	a5,a3,a5
    794c:	4017d793          	sra	a5,a5,0x1
    7950:	00f707b3          	add	a5,a4,a5
    7954:	fff78713          	add	a4,a5,-1
    7958:	fe842783          	lw	a5,-24(s0)
    795c:	0007a783          	lw	a5,0(a5)
    7960:	40f707b3          	sub	a5,a4,a5
    7964:	fcf42e23          	sw	a5,-36(s0)
    7968:	fe842783          	lw	a5,-24(s0)
    796c:	0047a703          	lw	a4,4(a5)
    7970:	01800793          	li	a5,24
    7974:	02f70733          	mul	a4,a4,a5
    7978:	03200793          	li	a5,50
    797c:	00f70733          	add	a4,a4,a5
    7980:	01800793          	li	a5,24
    7984:	01f7d693          	srl	a3,a5,0x1f
    7988:	00f687b3          	add	a5,a3,a5
    798c:	4017d793          	sra	a5,a5,0x1
    7990:	00f707b3          	add	a5,a4,a5
    7994:	fff78713          	add	a4,a5,-1
    7998:	fe842783          	lw	a5,-24(s0)
    799c:	0047a783          	lw	a5,4(a5)
    79a0:	40f707b3          	sub	a5,a4,a5
    79a4:	fcf42c23          	sw	a5,-40(s0)
    79a8:	01800713          	li	a4,24
    79ac:	fe042783          	lw	a5,-32(s0)
    79b0:	02f70733          	mul	a4,a4,a5
    79b4:	04f00793          	li	a5,79
    79b8:	00f70733          	add	a4,a4,a5
    79bc:	01800793          	li	a5,24
    79c0:	01f7d693          	srl	a3,a5,0x1f
    79c4:	00f687b3          	add	a5,a3,a5
    79c8:	4017d793          	sra	a5,a5,0x1
    79cc:	00f707b3          	add	a5,a4,a5
    79d0:	fff78713          	add	a4,a5,-1
    79d4:	fe042783          	lw	a5,-32(s0)
    79d8:	40f707b3          	sub	a5,a4,a5
    79dc:	fcf42a23          	sw	a5,-44(s0)
    79e0:	01800713          	li	a4,24
    79e4:	fe442783          	lw	a5,-28(s0)
    79e8:	02f70733          	mul	a4,a4,a5
    79ec:	03200793          	li	a5,50
    79f0:	00f70733          	add	a4,a4,a5
    79f4:	01800793          	li	a5,24
    79f8:	01f7d693          	srl	a3,a5,0x1f
    79fc:	00f687b3          	add	a5,a3,a5
    7a00:	4017d793          	sra	a5,a5,0x1
    7a04:	00f707b3          	add	a5,a4,a5
    7a08:	fff78713          	add	a4,a5,-1
    7a0c:	fe442783          	lw	a5,-28(s0)
    7a10:	40f707b3          	sub	a5,a4,a5
    7a14:	fcf42823          	sw	a5,-48(s0)
    7a18:	00000793          	li	a5,0
    7a1c:	00078713          	mv	a4,a5
    7a20:	fd042683          	lw	a3,-48(s0)
    7a24:	fd442603          	lw	a2,-44(s0)
    7a28:	fd842583          	lw	a1,-40(s0)
    7a2c:	fdc42503          	lw	a0,-36(s0)
    7a30:	8adf90ef          	jal	12dc <render_line>
    7a34:	fdc42783          	lw	a5,-36(s0)
    7a38:	00178513          	add	a0,a5,1
    7a3c:	fd442783          	lw	a5,-44(s0)
    7a40:	00178793          	add	a5,a5,1
    7a44:	00000713          	li	a4,0
    7a48:	fd042683          	lw	a3,-48(s0)
    7a4c:	00078613          	mv	a2,a5
    7a50:	fd842583          	lw	a1,-40(s0)
    7a54:	889f90ef          	jal	12dc <render_line>
    7a58:	fdc42783          	lw	a5,-36(s0)
    7a5c:	00178513          	add	a0,a5,1
    7a60:	fd842783          	lw	a5,-40(s0)
    7a64:	00178593          	add	a1,a5,1
    7a68:	fd442783          	lw	a5,-44(s0)
    7a6c:	00178613          	add	a2,a5,1
    7a70:	fd042783          	lw	a5,-48(s0)
    7a74:	00178793          	add	a5,a5,1
    7a78:	00000713          	li	a4,0
    7a7c:	00078693          	mv	a3,a5
    7a80:	85df90ef          	jal	12dc <render_line>
    7a84:	fd842783          	lw	a5,-40(s0)
    7a88:	00178593          	add	a1,a5,1
    7a8c:	fd042783          	lw	a5,-48(s0)
    7a90:	00178793          	add	a5,a5,1
    7a94:	00000713          	li	a4,0
    7a98:	00078693          	mv	a3,a5
    7a9c:	fd442603          	lw	a2,-44(s0)
    7aa0:	fdc42503          	lw	a0,-36(s0)
    7aa4:	839f90ef          	jal	12dc <render_line>
    7aa8:	fec42783          	lw	a5,-20(s0)
    7aac:	00178793          	add	a5,a5,1
    7ab0:	fef42623          	sw	a5,-20(s0)
    7ab4:	fcc42783          	lw	a5,-52(s0)
    7ab8:	05c7a703          	lw	a4,92(a5)
    7abc:	fec42783          	lw	a5,-20(s0)
    7ac0:	e0e7e2e3          	bltu	a5,a4,78c4 <render_victory_lines+0x4c>
    7ac4:	0080006f          	j	7acc <render_victory_lines+0x254>
    7ac8:	00000013          	nop
    7acc:	03c12083          	lw	ra,60(sp)
    7ad0:	03812403          	lw	s0,56(sp)
    7ad4:	04010113          	add	sp,sp,64
    7ad8:	00008067          	ret

00007adc <fiar_reset_render>:
    7adc:	ff010113          	add	sp,sp,-16
    7ae0:	00812623          	sw	s0,12(sp)
    7ae4:	01010413          	add	s0,sp,16
    7ae8:	0000f7b7          	lui	a5,0xf
    7aec:	a607a823          	sw	zero,-1424(a5) # ea70 <has_last_board>
    7af0:	0000f7b7          	lui	a5,0xf
    7af4:	a607aa23          	sw	zero,-1420(a5) # ea74 <has_rendered>
    7af8:	00000013          	nop
    7afc:	00c12403          	lw	s0,12(sp)
    7b00:	01010113          	add	sp,sp,16
    7b04:	00008067          	ret

00007b08 <fiar_render>:
    7b08:	fd010113          	add	sp,sp,-48
    7b0c:	02112623          	sw	ra,44(sp)
    7b10:	02812423          	sw	s0,40(sp)
    7b14:	03010413          	add	s0,sp,48
    7b18:	fca42e23          	sw	a0,-36(s0)
    7b1c:	0000f7b7          	lui	a5,0xf
    7b20:	a747a783          	lw	a5,-1420(a5) # ea74 <has_rendered>
    7b24:	02079063          	bnez	a5,7b44 <fiar_render+0x3c>
    7b28:	0000f7b7          	lui	a5,0xf
    7b2c:	00100713          	li	a4,1
    7b30:	a6e7aa23          	sw	a4,-1420(a5) # ea74 <has_rendered>
    7b34:	000077b7          	lui	a5,0x7
    7b38:	29478513          	add	a0,a5,660 # 7294 <get_background_color>
    7b3c:	fd0fa0ef          	jal	230c <render_background>
    7b40:	fc4ff0ef          	jal	7304 <render_grid_tiles>
    7b44:	fdc42503          	lw	a0,-36(s0)
    7b48:	915ff0ef          	jal	745c <render_ghost_tile>
    7b4c:	fe042623          	sw	zero,-20(s0)
    7b50:	0400006f          	j	7b90 <fiar_render+0x88>
    7b54:	fe042423          	sw	zero,-24(s0)
    7b58:	0200006f          	j	7b78 <fiar_render+0x70>
    7b5c:	fe842603          	lw	a2,-24(s0)
    7b60:	fec42583          	lw	a1,-20(s0)
    7b64:	fdc42503          	lw	a0,-36(s0)
    7b68:	9a9ff0ef          	jal	7510 <render_tile>
    7b6c:	fe842783          	lw	a5,-24(s0)
    7b70:	00178793          	add	a5,a5,1
    7b74:	fef42423          	sw	a5,-24(s0)
    7b78:	fe842703          	lw	a4,-24(s0)
    7b7c:	00500793          	li	a5,5
    7b80:	fce7dee3          	bge	a5,a4,7b5c <fiar_render+0x54>
    7b84:	fec42783          	lw	a5,-20(s0)
    7b88:	00178793          	add	a5,a5,1
    7b8c:	fef42623          	sw	a5,-20(s0)
    7b90:	fec42703          	lw	a4,-20(s0)
    7b94:	00600793          	li	a5,6
    7b98:	fae7dee3          	bge	a5,a4,7b54 <fiar_render+0x4c>
    7b9c:	fdc42503          	lw	a0,-36(s0)
    7ba0:	ba1ff0ef          	jal	7740 <render_victory_text>
    7ba4:	fdc42503          	lw	a0,-36(s0)
    7ba8:	cd1ff0ef          	jal	7878 <render_victory_lines>
    7bac:	0000f7b7          	lui	a5,0xf
    7bb0:	00100713          	li	a4,1
    7bb4:	a6e7a823          	sw	a4,-1424(a5) # ea70 <has_last_board>
    7bb8:	0000f7b7          	lui	a5,0xf
    7bbc:	a1078713          	add	a4,a5,-1520 # ea10 <last_board>
    7bc0:	fdc42783          	lw	a5,-36(s0)
    7bc4:	00078693          	mv	a3,a5
    7bc8:	06000793          	li	a5,96
    7bcc:	00078613          	mv	a2,a5
    7bd0:	00068593          	mv	a1,a3
    7bd4:	00070513          	mv	a0,a4
    7bd8:	e38f80ef          	jal	210 <memcpy>
    7bdc:	f25f80ef          	jal	b00 <io_vga_flush_pixels>
    7be0:	00000013          	nop
    7be4:	02c12083          	lw	ra,44(sp)
    7be8:	02812403          	lw	s0,40(sp)
    7bec:	03010113          	add	sp,sp,48
    7bf0:	00008067          	ret

00007bf4 <tetris_handle_interrupt>:
    7bf4:	fd010113          	add	sp,sp,-48
    7bf8:	02112623          	sw	ra,44(sp)
    7bfc:	02812423          	sw	s0,40(sp)
    7c00:	03010413          	add	s0,sp,48
    7c04:	fca42e23          	sw	a0,-36(s0)
    7c08:	fdc42703          	lw	a4,-36(s0)
    7c0c:	01100793          	li	a5,17
    7c10:	02f71663          	bne	a4,a5,7c3c <tetris_handle_interrupt+0x48>
    7c14:	000027b7          	lui	a5,0x2
    7c18:	71078513          	add	a0,a5,1808 # 2710 <shuffle+0xe8>
    7c1c:	fe0fa0ef          	jal	23fc <delay>
    7c20:	dddf80ef          	jal	9fc <io_switch>
    7c24:	fea42623          	sw	a0,-20(s0)
    7c28:	fec42783          	lw	a5,-20(s0)
    7c2c:	2007f793          	and	a5,a5,512
    7c30:	00078a63          	beqz	a5,7c44 <tetris_handle_interrupt+0x50>
    7c34:	00100793          	li	a5,1
    7c38:	0140006f          	j	7c4c <tetris_handle_interrupt+0x58>
    7c3c:	00000013          	nop
    7c40:	0080006f          	j	7c48 <tetris_handle_interrupt+0x54>
    7c44:	00000013          	nop
    7c48:	00000793          	li	a5,0
    7c4c:	00078513          	mv	a0,a5
    7c50:	02c12083          	lw	ra,44(sp)
    7c54:	02812403          	lw	s0,40(sp)
    7c58:	03010113          	add	sp,sp,48
    7c5c:	00008067          	ret

00007c60 <tetris_handler_reset>:
    7c60:	ff010113          	add	sp,sp,-16
    7c64:	00812623          	sw	s0,12(sp)
    7c68:	01010413          	add	s0,sp,16
    7c6c:	0000f7b7          	lui	a5,0xf
    7c70:	a607ac23          	sw	zero,-1416(a5) # ea78 <has_rendered>
    7c74:	00000013          	nop
    7c78:	00c12403          	lw	s0,12(sp)
    7c7c:	01010113          	add	sp,sp,16
    7c80:	00008067          	ret

00007c84 <tetris_handler_render>:
    7c84:	ff010113          	add	sp,sp,-16
    7c88:	00112623          	sw	ra,12(sp)
    7c8c:	00812423          	sw	s0,8(sp)
    7c90:	01010413          	add	s0,sp,16
    7c94:	0000f7b7          	lui	a5,0xf
    7c98:	a787a783          	lw	a5,-1416(a5) # ea78 <has_rendered>
    7c9c:	00079a63          	bnez	a5,7cb0 <tetris_handler_render+0x2c>
    7ca0:	024000ef          	jal	7cc4 <tetris_render>
    7ca4:	0000f7b7          	lui	a5,0xf
    7ca8:	00100713          	li	a4,1
    7cac:	a6e7ac23          	sw	a4,-1416(a5) # ea78 <has_rendered>
    7cb0:	00000013          	nop
    7cb4:	00c12083          	lw	ra,12(sp)
    7cb8:	00812403          	lw	s0,8(sp)
    7cbc:	01010113          	add	sp,sp,16
    7cc0:	00008067          	ret

00007cc4 <tetris_render>:
    7cc4:	ff010113          	add	sp,sp,-16
    7cc8:	00112623          	sw	ra,12(sp)
    7ccc:	00812423          	sw	s0,8(sp)
    7cd0:	01010413          	add	s0,sp,16
    7cd4:	e2df80ef          	jal	b00 <io_vga_flush_pixels>
    7cd8:	00000013          	nop
    7cdc:	00c12083          	lw	ra,12(sp)
    7ce0:	00812403          	lw	s0,8(sp)
    7ce4:	01010113          	add	sp,sp,16
    7ce8:	00008067          	ret

00007cec <valid_tile>:
    7cec:	fe010113          	add	sp,sp,-32
    7cf0:	00812e23          	sw	s0,28(sp)
    7cf4:	02010413          	add	s0,sp,32
    7cf8:	fea42623          	sw	a0,-20(s0)
    7cfc:	fec42783          	lw	a5,-20(s0)
    7d00:	0007cc63          	bltz	a5,7d18 <valid_tile+0x2c>
    7d04:	fec42703          	lw	a4,-20(s0)
    7d08:	03f00793          	li	a5,63
    7d0c:	00e7c663          	blt	a5,a4,7d18 <valid_tile+0x2c>
    7d10:	00100793          	li	a5,1
    7d14:	0080006f          	j	7d1c <valid_tile+0x30>
    7d18:	00000793          	li	a5,0
    7d1c:	00078513          	mv	a0,a5
    7d20:	01c12403          	lw	s0,28(sp)
    7d24:	02010113          	add	sp,sp,32
    7d28:	00008067          	ret

00007d2c <wrap_around>:
    7d2c:	fe010113          	add	sp,sp,-32
    7d30:	00812e23          	sw	s0,28(sp)
    7d34:	02010413          	add	s0,sp,32
    7d38:	fea42623          	sw	a0,-20(s0)
    7d3c:	feb42423          	sw	a1,-24(s0)
    7d40:	fec42783          	lw	a5,-20(s0)
    7d44:	41f7d713          	sra	a4,a5,0x1f
    7d48:	00777713          	and	a4,a4,7
    7d4c:	00f707b3          	add	a5,a4,a5
    7d50:	4037d793          	sra	a5,a5,0x3
    7d54:	00078693          	mv	a3,a5
    7d58:	fe842783          	lw	a5,-24(s0)
    7d5c:	41f7d713          	sra	a4,a5,0x1f
    7d60:	00777713          	and	a4,a4,7
    7d64:	00f707b3          	add	a5,a4,a5
    7d68:	4037d793          	sra	a5,a5,0x3
    7d6c:	40f007b3          	neg	a5,a5
    7d70:	00f68733          	add	a4,a3,a5
    7d74:	41f75793          	sra	a5,a4,0x1f
    7d78:	00e7c733          	xor	a4,a5,a4
    7d7c:	40f70733          	sub	a4,a4,a5
    7d80:	fec42683          	lw	a3,-20(s0)
    7d84:	41f6d793          	sra	a5,a3,0x1f
    7d88:	01d7d793          	srl	a5,a5,0x1d
    7d8c:	00f686b3          	add	a3,a3,a5
    7d90:	0076f693          	and	a3,a3,7
    7d94:	40f687b3          	sub	a5,a3,a5
    7d98:	00078613          	mv	a2,a5
    7d9c:	fe842683          	lw	a3,-24(s0)
    7da0:	41f6d793          	sra	a5,a3,0x1f
    7da4:	01d7d793          	srl	a5,a5,0x1d
    7da8:	00f686b3          	add	a3,a3,a5
    7dac:	0076f693          	and	a3,a3,7
    7db0:	40f687b3          	sub	a5,a3,a5
    7db4:	40f607b3          	sub	a5,a2,a5
    7db8:	41f7d693          	sra	a3,a5,0x1f
    7dbc:	00f6c7b3          	xor	a5,a3,a5
    7dc0:	40d787b3          	sub	a5,a5,a3
    7dc4:	00f707b3          	add	a5,a4,a5
    7dc8:	0037a793          	slti	a5,a5,3
    7dcc:	0017b793          	seqz	a5,a5
    7dd0:	0ff7f793          	zext.b	a5,a5
    7dd4:	00078513          	mv	a0,a5
    7dd8:	01c12403          	lw	s0,28(sp)
    7ddc:	02010113          	add	sp,sp,32
    7de0:	00008067          	ret

00007de4 <flip_tile>:
    7de4:	fe010113          	add	sp,sp,-32
    7de8:	00812e23          	sw	s0,28(sp)
    7dec:	02010413          	add	s0,sp,32
    7df0:	fea42623          	sw	a0,-20(s0)
    7df4:	feb42423          	sw	a1,-24(s0)
    7df8:	fec42223          	sw	a2,-28(s0)
    7dfc:	fec42683          	lw	a3,-20(s0)
    7e00:	0006a603          	lw	a2,0(a3)
    7e04:	0046a683          	lw	a3,4(a3)
    7e08:	00060513          	mv	a0,a2
    7e0c:	00068593          	mv	a1,a3
    7e10:	fe442683          	lw	a3,-28(s0)
    7e14:	fe068613          	add	a2,a3,-32
    7e18:	00064a63          	bltz	a2,7e2c <flip_tile+0x48>
    7e1c:	00100693          	li	a3,1
    7e20:	00c698b3          	sll	a7,a3,a2
    7e24:	00000813          	li	a6,0
    7e28:	02c0006f          	j	7e54 <flip_tile+0x70>
    7e2c:	00100613          	li	a2,1
    7e30:	00165293          	srl	t0,a2,0x1
    7e34:	01f00613          	li	a2,31
    7e38:	40d60633          	sub	a2,a2,a3
    7e3c:	00c2d633          	srl	a2,t0,a2
    7e40:	00000293          	li	t0,0
    7e44:	00d298b3          	sll	a7,t0,a3
    7e48:	011668b3          	or	a7,a2,a7
    7e4c:	00100613          	li	a2,1
    7e50:	00d61833          	sll	a6,a2,a3
    7e54:	01056f33          	or	t5,a0,a6
    7e58:	0115efb3          	or	t6,a1,a7
    7e5c:	000f0613          	mv	a2,t5
    7e60:	000f8693          	mv	a3,t6
    7e64:	fec42583          	lw	a1,-20(s0)
    7e68:	00c5a023          	sw	a2,0(a1)
    7e6c:	00d5a223          	sw	a3,4(a1)
    7e70:	fe842683          	lw	a3,-24(s0)
    7e74:	0006a603          	lw	a2,0(a3)
    7e78:	0046a683          	lw	a3,4(a3)
    7e7c:	00060513          	mv	a0,a2
    7e80:	00068593          	mv	a1,a3
    7e84:	fe442683          	lw	a3,-28(s0)
    7e88:	fe068613          	add	a2,a3,-32
    7e8c:	00064a63          	bltz	a2,7ea0 <flip_tile+0xbc>
    7e90:	00100693          	li	a3,1
    7e94:	00c697b3          	sll	a5,a3,a2
    7e98:	00000713          	li	a4,0
    7e9c:	02c0006f          	j	7ec8 <flip_tile+0xe4>
    7ea0:	00100613          	li	a2,1
    7ea4:	00165813          	srl	a6,a2,0x1
    7ea8:	01f00613          	li	a2,31
    7eac:	40d60633          	sub	a2,a2,a3
    7eb0:	00c85633          	srl	a2,a6,a2
    7eb4:	00000813          	li	a6,0
    7eb8:	00d817b3          	sll	a5,a6,a3
    7ebc:	00f667b3          	or	a5,a2,a5
    7ec0:	00100613          	li	a2,1
    7ec4:	00d61733          	sll	a4,a2,a3
    7ec8:	fff74313          	not	t1,a4
    7ecc:	fff7c393          	not	t2,a5
    7ed0:	00657e33          	and	t3,a0,t1
    7ed4:	0075feb3          	and	t4,a1,t2
    7ed8:	000e0713          	mv	a4,t3
    7edc:	000e8793          	mv	a5,t4
    7ee0:	fe842683          	lw	a3,-24(s0)
    7ee4:	00e6a023          	sw	a4,0(a3)
    7ee8:	00f6a223          	sw	a5,4(a3)
    7eec:	00000013          	nop
    7ef0:	01c12403          	lw	s0,28(sp)
    7ef4:	02010113          	add	sp,sp,32
    7ef8:	00008067          	ret

00007efc <count_pieces_diff>:
    7efc:	fd010113          	add	sp,sp,-48
    7f00:	02812623          	sw	s0,44(sp)
    7f04:	03010413          	add	s0,sp,48
    7f08:	fca42e23          	sw	a0,-36(s0)
    7f0c:	fe042623          	sw	zero,-20(s0)
    7f10:	fe042423          	sw	zero,-24(s0)
    7f14:	fe042223          	sw	zero,-28(s0)
    7f18:	0740006f          	j	7f8c <count_pieces_diff+0x90>
    7f1c:	fdc42583          	lw	a1,-36(s0)
    7f20:	0085a503          	lw	a0,8(a1)
    7f24:	00c5a583          	lw	a1,12(a1)
    7f28:	fe442e03          	lw	t3,-28(s0)
    7f2c:	fe0e0e93          	add	t4,t3,-32
    7f30:	000ec863          	bltz	t4,7f40 <count_pieces_diff+0x44>
    7f34:	01d5d633          	srl	a2,a1,t4
    7f38:	00000693          	li	a3,0
    7f3c:	0200006f          	j	7f5c <count_pieces_diff+0x60>
    7f40:	00159f13          	sll	t5,a1,0x1
    7f44:	01f00e93          	li	t4,31
    7f48:	41ce8eb3          	sub	t4,t4,t3
    7f4c:	01df1eb3          	sll	t4,t5,t4
    7f50:	01c55633          	srl	a2,a0,t3
    7f54:	00cee633          	or	a2,t4,a2
    7f58:	01c5d6b3          	srl	a3,a1,t3
    7f5c:	00167313          	and	t1,a2,1
    7f60:	0006f393          	and	t2,a3,0
    7f64:	007365b3          	or	a1,t1,t2
    7f68:	00b035b3          	snez	a1,a1
    7f6c:	0ff5f593          	zext.b	a1,a1
    7f70:	00058513          	mv	a0,a1
    7f74:	fec42583          	lw	a1,-20(s0)
    7f78:	00a585b3          	add	a1,a1,a0
    7f7c:	feb42623          	sw	a1,-20(s0)
    7f80:	fe442583          	lw	a1,-28(s0)
    7f84:	00158593          	add	a1,a1,1
    7f88:	feb42223          	sw	a1,-28(s0)
    7f8c:	fe442503          	lw	a0,-28(s0)
    7f90:	03f00593          	li	a1,63
    7f94:	f8a5d4e3          	bge	a1,a0,7f1c <count_pieces_diff+0x20>
    7f98:	fe042023          	sw	zero,-32(s0)
    7f9c:	0740006f          	j	8010 <count_pieces_diff+0x114>
    7fa0:	fdc42683          	lw	a3,-36(s0)
    7fa4:	0006a603          	lw	a2,0(a3)
    7fa8:	0046a683          	lw	a3,4(a3)
    7fac:	fe042583          	lw	a1,-32(s0)
    7fb0:	fe058513          	add	a0,a1,-32
    7fb4:	00054863          	bltz	a0,7fc4 <count_pieces_diff+0xc8>
    7fb8:	00a6d733          	srl	a4,a3,a0
    7fbc:	00000793          	li	a5,0
    7fc0:	0200006f          	j	7fe0 <count_pieces_diff+0xe4>
    7fc4:	00169313          	sll	t1,a3,0x1
    7fc8:	01f00513          	li	a0,31
    7fcc:	40b50533          	sub	a0,a0,a1
    7fd0:	00a31533          	sll	a0,t1,a0
    7fd4:	00b65733          	srl	a4,a2,a1
    7fd8:	00e56733          	or	a4,a0,a4
    7fdc:	00b6d7b3          	srl	a5,a3,a1
    7fe0:	00177813          	and	a6,a4,1
    7fe4:	0007f893          	and	a7,a5,0
    7fe8:	011866b3          	or	a3,a6,a7
    7fec:	00d036b3          	snez	a3,a3
    7ff0:	0ff6f693          	zext.b	a3,a3
    7ff4:	00068613          	mv	a2,a3
    7ff8:	fe842683          	lw	a3,-24(s0)
    7ffc:	00c686b3          	add	a3,a3,a2
    8000:	fed42423          	sw	a3,-24(s0)
    8004:	fe042683          	lw	a3,-32(s0)
    8008:	00168693          	add	a3,a3,1
    800c:	fed42023          	sw	a3,-32(s0)
    8010:	fe042603          	lw	a2,-32(s0)
    8014:	03f00693          	li	a3,63
    8018:	f8c6d4e3          	bge	a3,a2,7fa0 <count_pieces_diff+0xa4>
    801c:	fec42703          	lw	a4,-20(s0)
    8020:	fe842783          	lw	a5,-24(s0)
    8024:	40f707b3          	sub	a5,a4,a5
    8028:	00078513          	mv	a0,a5
    802c:	02c12403          	lw	s0,44(sp)
    8030:	03010113          	add	sp,sp,48
    8034:	00008067          	ret

00008038 <othello_generate_available_moves>:
    8038:	f8010113          	add	sp,sp,-128
    803c:	06112e23          	sw	ra,124(sp)
    8040:	06812c23          	sw	s0,120(sp)
    8044:	07212a23          	sw	s2,116(sp)
    8048:	07312823          	sw	s3,112(sp)
    804c:	07412623          	sw	s4,108(sp)
    8050:	07512423          	sw	s5,104(sp)
    8054:	07612223          	sw	s6,100(sp)
    8058:	07712023          	sw	s7,96(sp)
    805c:	05812e23          	sw	s8,92(sp)
    8060:	05912c23          	sw	s9,88(sp)
    8064:	05a12a23          	sw	s10,84(sp)
    8068:	05b12823          	sw	s11,80(sp)
    806c:	08010413          	add	s0,sp,128
    8070:	faa42623          	sw	a0,-84(s0)
    8074:	fac42783          	lw	a5,-84(s0)
    8078:	00000693          	li	a3,0
    807c:	00000713          	li	a4,0
    8080:	00d7a823          	sw	a3,16(a5)
    8084:	00e7aa23          	sw	a4,20(a5)
    8088:	fac42783          	lw	a5,-84(s0)
    808c:	0207a783          	lw	a5,32(a5)
    8090:	00078663          	beqz	a5,809c <othello_generate_available_moves+0x64>
    8094:	fac42783          	lw	a5,-84(s0)
    8098:	00c0006f          	j	80a4 <othello_generate_available_moves+0x6c>
    809c:	fac42783          	lw	a5,-84(s0)
    80a0:	00878793          	add	a5,a5,8
    80a4:	fcf42023          	sw	a5,-64(s0)
    80a8:	fac42783          	lw	a5,-84(s0)
    80ac:	0207a783          	lw	a5,32(a5)
    80b0:	00078863          	beqz	a5,80c0 <othello_generate_available_moves+0x88>
    80b4:	fac42783          	lw	a5,-84(s0)
    80b8:	00878793          	add	a5,a5,8
    80bc:	0080006f          	j	80c4 <othello_generate_available_moves+0x8c>
    80c0:	fac42783          	lw	a5,-84(s0)
    80c4:	faf42e23          	sw	a5,-68(s0)
    80c8:	fc042623          	sw	zero,-52(s0)
    80cc:	3040006f          	j	83d0 <othello_generate_available_moves+0x398>
    80d0:	fbc42783          	lw	a5,-68(s0)
    80d4:	0007a703          	lw	a4,0(a5)
    80d8:	0047a783          	lw	a5,4(a5)
    80dc:	fcc42683          	lw	a3,-52(s0)
    80e0:	fe068613          	add	a2,a3,-32
    80e4:	00064863          	bltz	a2,80f4 <othello_generate_available_moves+0xbc>
    80e8:	00c7d933          	srl	s2,a5,a2
    80ec:	00000993          	li	s3,0
    80f0:	0200006f          	j	8110 <othello_generate_available_moves+0xd8>
    80f4:	00179593          	sll	a1,a5,0x1
    80f8:	01f00613          	li	a2,31
    80fc:	40d60633          	sub	a2,a2,a3
    8100:	00c59633          	sll	a2,a1,a2
    8104:	00d75933          	srl	s2,a4,a3
    8108:	01266933          	or	s2,a2,s2
    810c:	00d7d9b3          	srl	s3,a5,a3
    8110:	00197793          	and	a5,s2,1
    8114:	faf42023          	sw	a5,-96(s0)
    8118:	0009f793          	and	a5,s3,0
    811c:	faf42223          	sw	a5,-92(s0)
    8120:	fa042683          	lw	a3,-96(s0)
    8124:	fa442703          	lw	a4,-92(s0)
    8128:	00068793          	mv	a5,a3
    812c:	00e7e7b3          	or	a5,a5,a4
    8130:	28078a63          	beqz	a5,83c4 <othello_generate_available_moves+0x38c>
    8134:	fc042423          	sw	zero,-56(s0)
    8138:	2800006f          	j	83b8 <othello_generate_available_moves+0x380>
    813c:	000117b7          	lui	a5,0x11
    8140:	c4078713          	add	a4,a5,-960 # 10c40 <offsets>
    8144:	fc842783          	lw	a5,-56(s0)
    8148:	00279793          	sll	a5,a5,0x2
    814c:	00f707b3          	add	a5,a4,a5
    8150:	0007a783          	lw	a5,0(a5)
    8154:	fcc42703          	lw	a4,-52(s0)
    8158:	00f707b3          	add	a5,a4,a5
    815c:	fcf42223          	sw	a5,-60(s0)
    8160:	fc442503          	lw	a0,-60(s0)
    8164:	b89ff0ef          	jal	7cec <valid_tile>
    8168:	00050793          	mv	a5,a0
    816c:	22078a63          	beqz	a5,83a0 <othello_generate_available_moves+0x368>
    8170:	fc442583          	lw	a1,-60(s0)
    8174:	fcc42503          	lw	a0,-52(s0)
    8178:	bb5ff0ef          	jal	7d2c <wrap_around>
    817c:	00050793          	mv	a5,a0
    8180:	22079063          	bnez	a5,83a0 <othello_generate_available_moves+0x368>
    8184:	fc042783          	lw	a5,-64(s0)
    8188:	0007a703          	lw	a4,0(a5)
    818c:	0047a783          	lw	a5,4(a5)
    8190:	fc442683          	lw	a3,-60(s0)
    8194:	fe068613          	add	a2,a3,-32
    8198:	00064863          	bltz	a2,81a8 <othello_generate_available_moves+0x170>
    819c:	00c7da33          	srl	s4,a5,a2
    81a0:	00000a93          	li	s5,0
    81a4:	0200006f          	j	81c4 <othello_generate_available_moves+0x18c>
    81a8:	00179593          	sll	a1,a5,0x1
    81ac:	01f00613          	li	a2,31
    81b0:	40d60633          	sub	a2,a2,a3
    81b4:	00c59633          	sll	a2,a1,a2
    81b8:	00d75a33          	srl	s4,a4,a3
    81bc:	01466a33          	or	s4,a2,s4
    81c0:	00d7dab3          	srl	s5,a5,a3
    81c4:	001a7793          	and	a5,s4,1
    81c8:	f8f42c23          	sw	a5,-104(s0)
    81cc:	000af793          	and	a5,s5,0
    81d0:	f8f42e23          	sw	a5,-100(s0)
    81d4:	f9842683          	lw	a3,-104(s0)
    81d8:	f9c42703          	lw	a4,-100(s0)
    81dc:	00068793          	mv	a5,a3
    81e0:	00e7e7b3          	or	a5,a5,a4
    81e4:	1a078e63          	beqz	a5,83a0 <othello_generate_available_moves+0x368>
    81e8:	000117b7          	lui	a5,0x11
    81ec:	c4078713          	add	a4,a5,-960 # 10c40 <offsets>
    81f0:	fc842783          	lw	a5,-56(s0)
    81f4:	00279793          	sll	a5,a5,0x2
    81f8:	00f707b3          	add	a5,a4,a5
    81fc:	0007a783          	lw	a5,0(a5)
    8200:	fc442703          	lw	a4,-60(s0)
    8204:	00f707b3          	add	a5,a4,a5
    8208:	fcf42223          	sw	a5,-60(s0)
    820c:	fc442503          	lw	a0,-60(s0)
    8210:	addff0ef          	jal	7cec <valid_tile>
    8214:	00050793          	mv	a5,a0
    8218:	18078a63          	beqz	a5,83ac <othello_generate_available_moves+0x374>
    821c:	000117b7          	lui	a5,0x11
    8220:	c4078713          	add	a4,a5,-960 # 10c40 <offsets>
    8224:	fc842783          	lw	a5,-56(s0)
    8228:	00279793          	sll	a5,a5,0x2
    822c:	00f707b3          	add	a5,a4,a5
    8230:	0007a783          	lw	a5,0(a5)
    8234:	fc442703          	lw	a4,-60(s0)
    8238:	40f707b3          	sub	a5,a4,a5
    823c:	fc442583          	lw	a1,-60(s0)
    8240:	00078513          	mv	a0,a5
    8244:	ae9ff0ef          	jal	7d2c <wrap_around>
    8248:	00050793          	mv	a5,a0
    824c:	16079063          	bnez	a5,83ac <othello_generate_available_moves+0x374>
    8250:	fbc42783          	lw	a5,-68(s0)
    8254:	0007a703          	lw	a4,0(a5)
    8258:	0047a783          	lw	a5,4(a5)
    825c:	fc442683          	lw	a3,-60(s0)
    8260:	fe068613          	add	a2,a3,-32
    8264:	00064863          	bltz	a2,8274 <othello_generate_available_moves+0x23c>
    8268:	00c7db33          	srl	s6,a5,a2
    826c:	00000b93          	li	s7,0
    8270:	0200006f          	j	8290 <othello_generate_available_moves+0x258>
    8274:	00179593          	sll	a1,a5,0x1
    8278:	01f00613          	li	a2,31
    827c:	40d60633          	sub	a2,a2,a3
    8280:	00c59633          	sll	a2,a1,a2
    8284:	00d75b33          	srl	s6,a4,a3
    8288:	01666b33          	or	s6,a2,s6
    828c:	00d7dbb3          	srl	s7,a5,a3
    8290:	001b7793          	and	a5,s6,1
    8294:	f8f42823          	sw	a5,-112(s0)
    8298:	000bf793          	and	a5,s7,0
    829c:	f8f42a23          	sw	a5,-108(s0)
    82a0:	f9042683          	lw	a3,-112(s0)
    82a4:	f9442703          	lw	a4,-108(s0)
    82a8:	00068793          	mv	a5,a3
    82ac:	00e7e7b3          	or	a5,a5,a4
    82b0:	0e079c63          	bnez	a5,83a8 <othello_generate_available_moves+0x370>
    82b4:	fc042783          	lw	a5,-64(s0)
    82b8:	0007a703          	lw	a4,0(a5)
    82bc:	0047a783          	lw	a5,4(a5)
    82c0:	fc442683          	lw	a3,-60(s0)
    82c4:	fe068613          	add	a2,a3,-32
    82c8:	00064863          	bltz	a2,82d8 <othello_generate_available_moves+0x2a0>
    82cc:	00c7dc33          	srl	s8,a5,a2
    82d0:	00000c93          	li	s9,0
    82d4:	0200006f          	j	82f4 <othello_generate_available_moves+0x2bc>
    82d8:	00179593          	sll	a1,a5,0x1
    82dc:	01f00613          	li	a2,31
    82e0:	40d60633          	sub	a2,a2,a3
    82e4:	00c59633          	sll	a2,a1,a2
    82e8:	00d75c33          	srl	s8,a4,a3
    82ec:	01866c33          	or	s8,a2,s8
    82f0:	00d7dcb3          	srl	s9,a5,a3
    82f4:	001c7793          	and	a5,s8,1
    82f8:	f8f42423          	sw	a5,-120(s0)
    82fc:	000cf793          	and	a5,s9,0
    8300:	f8f42623          	sw	a5,-116(s0)
    8304:	f8842683          	lw	a3,-120(s0)
    8308:	f8c42703          	lw	a4,-116(s0)
    830c:	00068793          	mv	a5,a3
    8310:	00e7e7b3          	or	a5,a5,a4
    8314:	08079263          	bnez	a5,8398 <othello_generate_available_moves+0x360>
    8318:	fac42783          	lw	a5,-84(s0)
    831c:	0107a703          	lw	a4,16(a5)
    8320:	0147a783          	lw	a5,20(a5)
    8324:	00070613          	mv	a2,a4
    8328:	00078693          	mv	a3,a5
    832c:	fc442783          	lw	a5,-60(s0)
    8330:	fe078713          	add	a4,a5,-32
    8334:	00074a63          	bltz	a4,8348 <othello_generate_available_moves+0x310>
    8338:	00100793          	li	a5,1
    833c:	00e79db3          	sll	s11,a5,a4
    8340:	00000d13          	li	s10,0
    8344:	02c0006f          	j	8370 <othello_generate_available_moves+0x338>
    8348:	00100713          	li	a4,1
    834c:	00175593          	srl	a1,a4,0x1
    8350:	01f00713          	li	a4,31
    8354:	40f70733          	sub	a4,a4,a5
    8358:	00e5d733          	srl	a4,a1,a4
    835c:	00000593          	li	a1,0
    8360:	00f59db3          	sll	s11,a1,a5
    8364:	01b76db3          	or	s11,a4,s11
    8368:	00100713          	li	a4,1
    836c:	00f71d33          	sll	s10,a4,a5
    8370:	01a667b3          	or	a5,a2,s10
    8374:	f8f42023          	sw	a5,-128(s0)
    8378:	01b6e7b3          	or	a5,a3,s11
    837c:	f8f42223          	sw	a5,-124(s0)
    8380:	f8042703          	lw	a4,-128(s0)
    8384:	f8442783          	lw	a5,-124(s0)
    8388:	fac42683          	lw	a3,-84(s0)
    838c:	00e6a823          	sw	a4,16(a3)
    8390:	00f6aa23          	sw	a5,20(a3)
    8394:	0180006f          	j	83ac <othello_generate_available_moves+0x374>
    8398:	00000013          	nop
    839c:	e4dff06f          	j	81e8 <othello_generate_available_moves+0x1b0>
    83a0:	00000013          	nop
    83a4:	0080006f          	j	83ac <othello_generate_available_moves+0x374>
    83a8:	00000013          	nop
    83ac:	fc842783          	lw	a5,-56(s0)
    83b0:	00178793          	add	a5,a5,1
    83b4:	fcf42423          	sw	a5,-56(s0)
    83b8:	fc842703          	lw	a4,-56(s0)
    83bc:	00700793          	li	a5,7
    83c0:	d6e7dee3          	bge	a5,a4,813c <othello_generate_available_moves+0x104>
    83c4:	fcc42783          	lw	a5,-52(s0)
    83c8:	00178793          	add	a5,a5,1
    83cc:	fcf42623          	sw	a5,-52(s0)
    83d0:	fcc42703          	lw	a4,-52(s0)
    83d4:	03f00793          	li	a5,63
    83d8:	cee7dce3          	bge	a5,a4,80d0 <othello_generate_available_moves+0x98>
    83dc:	00000013          	nop
    83e0:	00000013          	nop
    83e4:	07c12083          	lw	ra,124(sp)
    83e8:	07812403          	lw	s0,120(sp)
    83ec:	07412903          	lw	s2,116(sp)
    83f0:	07012983          	lw	s3,112(sp)
    83f4:	06c12a03          	lw	s4,108(sp)
    83f8:	06812a83          	lw	s5,104(sp)
    83fc:	06412b03          	lw	s6,100(sp)
    8400:	06012b83          	lw	s7,96(sp)
    8404:	05c12c03          	lw	s8,92(sp)
    8408:	05812c83          	lw	s9,88(sp)
    840c:	05412d03          	lw	s10,84(sp)
    8410:	05012d83          	lw	s11,80(sp)
    8414:	08010113          	add	sp,sp,128
    8418:	00008067          	ret

0000841c <othello_make_move>:
    841c:	f9010113          	add	sp,sp,-112
    8420:	06112623          	sw	ra,108(sp)
    8424:	06812423          	sw	s0,104(sp)
    8428:	07212223          	sw	s2,100(sp)
    842c:	07312023          	sw	s3,96(sp)
    8430:	05412e23          	sw	s4,92(sp)
    8434:	05512c23          	sw	s5,88(sp)
    8438:	05612a23          	sw	s6,84(sp)
    843c:	05712823          	sw	s7,80(sp)
    8440:	05812623          	sw	s8,76(sp)
    8444:	05912423          	sw	s9,72(sp)
    8448:	05a12223          	sw	s10,68(sp)
    844c:	05b12023          	sw	s11,64(sp)
    8450:	07010413          	add	s0,sp,112
    8454:	faa42623          	sw	a0,-84(s0)
    8458:	fab42423          	sw	a1,-88(s0)
    845c:	fa842683          	lw	a3,-88(s0)
    8460:	3806ca63          	bltz	a3,87f4 <othello_make_move+0x3d8>
    8464:	fa842603          	lw	a2,-88(s0)
    8468:	03f00693          	li	a3,63
    846c:	38c6c463          	blt	a3,a2,87f4 <othello_make_move+0x3d8>
    8470:	fac42683          	lw	a3,-84(s0)
    8474:	01c6a603          	lw	a2,28(a3)
    8478:	fff00693          	li	a3,-1
    847c:	36d61c63          	bne	a2,a3,87f4 <othello_make_move+0x3d8>
    8480:	fac42683          	lw	a3,-84(s0)
    8484:	0106a603          	lw	a2,16(a3)
    8488:	0146a683          	lw	a3,20(a3)
    848c:	fa842583          	lw	a1,-88(s0)
    8490:	fe058513          	add	a0,a1,-32
    8494:	00054863          	bltz	a0,84a4 <othello_make_move+0x88>
    8498:	00a6d733          	srl	a4,a3,a0
    849c:	00000793          	li	a5,0
    84a0:	0200006f          	j	84c0 <othello_make_move+0xa4>
    84a4:	00169313          	sll	t1,a3,0x1
    84a8:	01f00513          	li	a0,31
    84ac:	40b50533          	sub	a0,a0,a1
    84b0:	00a31533          	sll	a0,t1,a0
    84b4:	00b65733          	srl	a4,a2,a1
    84b8:	00e56733          	or	a4,a0,a4
    84bc:	00b6d7b3          	srl	a5,a3,a1
    84c0:	00177813          	and	a6,a4,1
    84c4:	0007f893          	and	a7,a5,0
    84c8:	00080793          	mv	a5,a6
    84cc:	0117e7b3          	or	a5,a5,a7
    84d0:	32078663          	beqz	a5,87fc <othello_make_move+0x3e0>
    84d4:	fac42783          	lw	a5,-84(s0)
    84d8:	0207a703          	lw	a4,32(a5)
    84dc:	00100793          	li	a5,1
    84e0:	00f71663          	bne	a4,a5,84ec <othello_make_move+0xd0>
    84e4:	fac42783          	lw	a5,-84(s0)
    84e8:	00c0006f          	j	84f4 <othello_make_move+0xd8>
    84ec:	fac42783          	lw	a5,-84(s0)
    84f0:	00878793          	add	a5,a5,8
    84f4:	fcf42223          	sw	a5,-60(s0)
    84f8:	fac42783          	lw	a5,-84(s0)
    84fc:	0207a703          	lw	a4,32(a5)
    8500:	00100793          	li	a5,1
    8504:	00f71863          	bne	a4,a5,8514 <othello_make_move+0xf8>
    8508:	fac42783          	lw	a5,-84(s0)
    850c:	00878793          	add	a5,a5,8
    8510:	0080006f          	j	8518 <othello_make_move+0xfc>
    8514:	fac42783          	lw	a5,-84(s0)
    8518:	fcf42023          	sw	a5,-64(s0)
    851c:	fa842603          	lw	a2,-88(s0)
    8520:	fc442583          	lw	a1,-60(s0)
    8524:	fc042503          	lw	a0,-64(s0)
    8528:	8bdff0ef          	jal	7de4 <flip_tile>
    852c:	fc042623          	sw	zero,-52(s0)
    8530:	2440006f          	j	8774 <othello_make_move+0x358>
    8534:	000117b7          	lui	a5,0x11
    8538:	c4078713          	add	a4,a5,-960 # 10c40 <offsets>
    853c:	fcc42783          	lw	a5,-52(s0)
    8540:	00279793          	sll	a5,a5,0x2
    8544:	00f707b3          	add	a5,a4,a5
    8548:	0007a783          	lw	a5,0(a5)
    854c:	fa842703          	lw	a4,-88(s0)
    8550:	00f707b3          	add	a5,a4,a5
    8554:	fcf42423          	sw	a5,-56(s0)
    8558:	fc842503          	lw	a0,-56(s0)
    855c:	f90ff0ef          	jal	7cec <valid_tile>
    8560:	00050793          	mv	a5,a0
    8564:	1e078c63          	beqz	a5,875c <othello_make_move+0x340>
    8568:	fc842583          	lw	a1,-56(s0)
    856c:	fa842503          	lw	a0,-88(s0)
    8570:	fbcff0ef          	jal	7d2c <wrap_around>
    8574:	00050793          	mv	a5,a0
    8578:	1e079263          	bnez	a5,875c <othello_make_move+0x340>
    857c:	fc442783          	lw	a5,-60(s0)
    8580:	0007a703          	lw	a4,0(a5)
    8584:	0047a783          	lw	a5,4(a5)
    8588:	fc842683          	lw	a3,-56(s0)
    858c:	fe068613          	add	a2,a3,-32
    8590:	00064863          	bltz	a2,85a0 <othello_make_move+0x184>
    8594:	00c7d933          	srl	s2,a5,a2
    8598:	00000993          	li	s3,0
    859c:	0200006f          	j	85bc <othello_make_move+0x1a0>
    85a0:	00179593          	sll	a1,a5,0x1
    85a4:	01f00613          	li	a2,31
    85a8:	40d60633          	sub	a2,a2,a3
    85ac:	00c59633          	sll	a2,a1,a2
    85b0:	00d75933          	srl	s2,a4,a3
    85b4:	01266933          	or	s2,a2,s2
    85b8:	00d7d9b3          	srl	s3,a5,a3
    85bc:	00197c13          	and	s8,s2,1
    85c0:	0009fc93          	and	s9,s3,0
    85c4:	000c0793          	mv	a5,s8
    85c8:	0197e7b3          	or	a5,a5,s9
    85cc:	18078863          	beqz	a5,875c <othello_make_move+0x340>
    85d0:	000117b7          	lui	a5,0x11
    85d4:	c4078713          	add	a4,a5,-960 # 10c40 <offsets>
    85d8:	fcc42783          	lw	a5,-52(s0)
    85dc:	00279793          	sll	a5,a5,0x2
    85e0:	00f707b3          	add	a5,a4,a5
    85e4:	0007a783          	lw	a5,0(a5)
    85e8:	fc842703          	lw	a4,-56(s0)
    85ec:	00f707b3          	add	a5,a4,a5
    85f0:	fcf42423          	sw	a5,-56(s0)
    85f4:	fc842503          	lw	a0,-56(s0)
    85f8:	ef4ff0ef          	jal	7cec <valid_tile>
    85fc:	00050793          	mv	a5,a0
    8600:	16078463          	beqz	a5,8768 <othello_make_move+0x34c>
    8604:	000117b7          	lui	a5,0x11
    8608:	c4078713          	add	a4,a5,-960 # 10c40 <offsets>
    860c:	fcc42783          	lw	a5,-52(s0)
    8610:	00279793          	sll	a5,a5,0x2
    8614:	00f707b3          	add	a5,a4,a5
    8618:	0007a783          	lw	a5,0(a5)
    861c:	fc842703          	lw	a4,-56(s0)
    8620:	40f707b3          	sub	a5,a4,a5
    8624:	fc842583          	lw	a1,-56(s0)
    8628:	00078513          	mv	a0,a5
    862c:	f00ff0ef          	jal	7d2c <wrap_around>
    8630:	00050793          	mv	a5,a0
    8634:	12079a63          	bnez	a5,8768 <othello_make_move+0x34c>
    8638:	fc042783          	lw	a5,-64(s0)
    863c:	0007a603          	lw	a2,0(a5)
    8640:	0047a683          	lw	a3,4(a5)
    8644:	fc442783          	lw	a5,-60(s0)
    8648:	0007a703          	lw	a4,0(a5)
    864c:	0047a783          	lw	a5,4(a5)
    8650:	00e665b3          	or	a1,a2,a4
    8654:	fab42023          	sw	a1,-96(s0)
    8658:	00f6e7b3          	or	a5,a3,a5
    865c:	faf42223          	sw	a5,-92(s0)
    8660:	fa042703          	lw	a4,-96(s0)
    8664:	fa442783          	lw	a5,-92(s0)
    8668:	fc842683          	lw	a3,-56(s0)
    866c:	fe068613          	add	a2,a3,-32
    8670:	00064863          	bltz	a2,8680 <othello_make_move+0x264>
    8674:	00c7da33          	srl	s4,a5,a2
    8678:	00000a93          	li	s5,0
    867c:	0200006f          	j	869c <othello_make_move+0x280>
    8680:	00179593          	sll	a1,a5,0x1
    8684:	01f00613          	li	a2,31
    8688:	40d60633          	sub	a2,a2,a3
    868c:	00c59633          	sll	a2,a1,a2
    8690:	00d75a33          	srl	s4,a4,a3
    8694:	01466a33          	or	s4,a2,s4
    8698:	00d7dab3          	srl	s5,a5,a3
    869c:	001a7d13          	and	s10,s4,1
    86a0:	000afd93          	and	s11,s5,0
    86a4:	000d0793          	mv	a5,s10
    86a8:	01b7e7b3          	or	a5,a5,s11
    86ac:	0a078c63          	beqz	a5,8764 <othello_make_move+0x348>
    86b0:	fc042783          	lw	a5,-64(s0)
    86b4:	0007a703          	lw	a4,0(a5)
    86b8:	0047a783          	lw	a5,4(a5)
    86bc:	fc842683          	lw	a3,-56(s0)
    86c0:	fe068613          	add	a2,a3,-32
    86c4:	00064863          	bltz	a2,86d4 <othello_make_move+0x2b8>
    86c8:	00c7db33          	srl	s6,a5,a2
    86cc:	00000b93          	li	s7,0
    86d0:	0200006f          	j	86f0 <othello_make_move+0x2d4>
    86d4:	00179593          	sll	a1,a5,0x1
    86d8:	01f00613          	li	a2,31
    86dc:	40d60633          	sub	a2,a2,a3
    86e0:	00c59633          	sll	a2,a1,a2
    86e4:	00d75b33          	srl	s6,a4,a3
    86e8:	01666b33          	or	s6,a2,s6
    86ec:	00d7dbb3          	srl	s7,a5,a3
    86f0:	001b7793          	and	a5,s6,1
    86f4:	f8f42c23          	sw	a5,-104(s0)
    86f8:	000bf793          	and	a5,s7,0
    86fc:	f8f42e23          	sw	a5,-100(s0)
    8700:	f9842683          	lw	a3,-104(s0)
    8704:	f9c42703          	lw	a4,-100(s0)
    8708:	00068793          	mv	a5,a3
    870c:	00e7e7b3          	or	a5,a5,a4
    8710:	ec0780e3          	beqz	a5,85d0 <othello_make_move+0x1b4>
    8714:	0380006f          	j	874c <othello_make_move+0x330>
    8718:	fc842603          	lw	a2,-56(s0)
    871c:	fc442583          	lw	a1,-60(s0)
    8720:	fc042503          	lw	a0,-64(s0)
    8724:	ec0ff0ef          	jal	7de4 <flip_tile>
    8728:	000117b7          	lui	a5,0x11
    872c:	c4078713          	add	a4,a5,-960 # 10c40 <offsets>
    8730:	fcc42783          	lw	a5,-52(s0)
    8734:	00279793          	sll	a5,a5,0x2
    8738:	00f707b3          	add	a5,a4,a5
    873c:	0007a783          	lw	a5,0(a5)
    8740:	fc842703          	lw	a4,-56(s0)
    8744:	40f707b3          	sub	a5,a4,a5
    8748:	fcf42423          	sw	a5,-56(s0)
    874c:	fc842703          	lw	a4,-56(s0)
    8750:	fa842783          	lw	a5,-88(s0)
    8754:	fcf712e3          	bne	a4,a5,8718 <othello_make_move+0x2fc>
    8758:	0100006f          	j	8768 <othello_make_move+0x34c>
    875c:	00000013          	nop
    8760:	0080006f          	j	8768 <othello_make_move+0x34c>
    8764:	00000013          	nop
    8768:	fcc42783          	lw	a5,-52(s0)
    876c:	00178793          	add	a5,a5,1
    8770:	fcf42623          	sw	a5,-52(s0)
    8774:	fcc42703          	lw	a4,-52(s0)
    8778:	00700793          	li	a5,7
    877c:	dae7dce3          	bge	a5,a4,8534 <othello_make_move+0x118>
    8780:	fac42783          	lw	a5,-84(s0)
    8784:	0207a783          	lw	a5,32(a5)
    8788:	0017c713          	xor	a4,a5,1
    878c:	fac42783          	lw	a5,-84(s0)
    8790:	02e7a023          	sw	a4,32(a5)
    8794:	fac42503          	lw	a0,-84(s0)
    8798:	8a1ff0ef          	jal	8038 <othello_generate_available_moves>
    879c:	fac42783          	lw	a5,-84(s0)
    87a0:	0107a603          	lw	a2,16(a5)
    87a4:	0147a683          	lw	a3,20(a5)
    87a8:	00060793          	mv	a5,a2
    87ac:	00d7e7b3          	or	a5,a5,a3
    87b0:	04079863          	bnez	a5,8800 <othello_make_move+0x3e4>
    87b4:	fac42503          	lw	a0,-84(s0)
    87b8:	f44ff0ef          	jal	7efc <count_pieces_diff>
    87bc:	faa42e23          	sw	a0,-68(s0)
    87c0:	fbc42783          	lw	a5,-68(s0)
    87c4:	00079a63          	bnez	a5,87d8 <othello_make_move+0x3bc>
    87c8:	fac42783          	lw	a5,-84(s0)
    87cc:	00200713          	li	a4,2
    87d0:	00e7ae23          	sw	a4,28(a5)
    87d4:	02c0006f          	j	8800 <othello_make_move+0x3e4>
    87d8:	fbc42783          	lw	a5,-68(s0)
    87dc:	00f027b3          	sgtz	a5,a5
    87e0:	0ff7f793          	zext.b	a5,a5
    87e4:	00078713          	mv	a4,a5
    87e8:	fac42783          	lw	a5,-84(s0)
    87ec:	00e7ae23          	sw	a4,28(a5)
    87f0:	0100006f          	j	8800 <othello_make_move+0x3e4>
    87f4:	00000013          	nop
    87f8:	0080006f          	j	8800 <othello_make_move+0x3e4>
    87fc:	00000013          	nop
    8800:	06c12083          	lw	ra,108(sp)
    8804:	06812403          	lw	s0,104(sp)
    8808:	06412903          	lw	s2,100(sp)
    880c:	06012983          	lw	s3,96(sp)
    8810:	05c12a03          	lw	s4,92(sp)
    8814:	05812a83          	lw	s5,88(sp)
    8818:	05412b03          	lw	s6,84(sp)
    881c:	05012b83          	lw	s7,80(sp)
    8820:	04c12c03          	lw	s8,76(sp)
    8824:	04812c83          	lw	s9,72(sp)
    8828:	04412d03          	lw	s10,68(sp)
    882c:	04012d83          	lw	s11,64(sp)
    8830:	07010113          	add	sp,sp,112
    8834:	00008067          	ret

00008838 <othello_handle_interrupt>:
    8838:	f8010113          	add	sp,sp,-128
    883c:	06112e23          	sw	ra,124(sp)
    8840:	06812c23          	sw	s0,120(sp)
    8844:	08010413          	add	s0,sp,128
    8848:	faa42e23          	sw	a0,-68(s0)
    884c:	fbc42603          	lw	a2,-68(s0)
    8850:	01100693          	li	a3,17
    8854:	00d60a63          	beq	a2,a3,8868 <othello_handle_interrupt+0x30>
    8858:	fbc42603          	lw	a2,-68(s0)
    885c:	01200693          	li	a3,18
    8860:	0ad60463          	beq	a2,a3,8908 <othello_handle_interrupt+0xd0>
    8864:	23c0006f          	j	8aa0 <othello_handle_interrupt+0x268>
    8868:	000027b7          	lui	a5,0x2
    886c:	71078513          	add	a0,a5,1808 # 2710 <shuffle+0xe8>
    8870:	b8df90ef          	jal	23fc <delay>
    8874:	988f80ef          	jal	9fc <io_switch>
    8878:	fea42623          	sw	a0,-20(s0)
    887c:	fec42783          	lw	a5,-20(s0)
    8880:	03f7f713          	and	a4,a5,63
    8884:	0000f7b7          	lui	a5,0xf
    8888:	a8078793          	add	a5,a5,-1408 # ea80 <board>
    888c:	00e7ac23          	sw	a4,24(a5)
    8890:	0000f7b7          	lui	a5,0xf
    8894:	a8078793          	add	a5,a5,-1408 # ea80 <board>
    8898:	0007ae03          	lw	t3,0(a5)
    889c:	0047a303          	lw	t1,4(a5)
    88a0:	0087a883          	lw	a7,8(a5)
    88a4:	00c7a803          	lw	a6,12(a5)
    88a8:	0107a503          	lw	a0,16(a5)
    88ac:	0147a583          	lw	a1,20(a5)
    88b0:	0187a603          	lw	a2,24(a5)
    88b4:	01c7a683          	lw	a3,28(a5)
    88b8:	0207a703          	lw	a4,32(a5)
    88bc:	0247a783          	lw	a5,36(a5)
    88c0:	f9c42023          	sw	t3,-128(s0)
    88c4:	f8642223          	sw	t1,-124(s0)
    88c8:	f9142423          	sw	a7,-120(s0)
    88cc:	f9042623          	sw	a6,-116(s0)
    88d0:	f8a42823          	sw	a0,-112(s0)
    88d4:	f8b42a23          	sw	a1,-108(s0)
    88d8:	f8c42c23          	sw	a2,-104(s0)
    88dc:	f8d42e23          	sw	a3,-100(s0)
    88e0:	fae42023          	sw	a4,-96(s0)
    88e4:	faf42223          	sw	a5,-92(s0)
    88e8:	f8040793          	add	a5,s0,-128
    88ec:	00078513          	mv	a0,a5
    88f0:	62d000ef          	jal	971c <othello_render>
    88f4:	fec42783          	lw	a5,-20(s0)
    88f8:	2007f793          	and	a5,a5,512
    88fc:	1a078063          	beqz	a5,8a9c <othello_handle_interrupt+0x264>
    8900:	00100793          	li	a5,1
    8904:	1a00006f          	j	8aa4 <othello_handle_interrupt+0x26c>
    8908:	0000f6b7          	lui	a3,0xf
    890c:	a8068693          	add	a3,a3,-1408 # ea80 <board>
    8910:	0106a603          	lw	a2,16(a3)
    8914:	0146a683          	lw	a3,20(a3)
    8918:	0000f5b7          	lui	a1,0xf
    891c:	a8058593          	add	a1,a1,-1408 # ea80 <board>
    8920:	0185a583          	lw	a1,24(a1)
    8924:	fe058513          	add	a0,a1,-32
    8928:	00054863          	bltz	a0,8938 <othello_handle_interrupt+0x100>
    892c:	00a6d733          	srl	a4,a3,a0
    8930:	00000793          	li	a5,0
    8934:	0200006f          	j	8954 <othello_handle_interrupt+0x11c>
    8938:	00169313          	sll	t1,a3,0x1
    893c:	01f00513          	li	a0,31
    8940:	40b50533          	sub	a0,a0,a1
    8944:	00a31533          	sll	a0,t1,a0
    8948:	00b65733          	srl	a4,a2,a1
    894c:	00e56733          	or	a4,a0,a4
    8950:	00b6d7b3          	srl	a5,a3,a1
    8954:	00177813          	and	a6,a4,1
    8958:	0007f893          	and	a7,a5,0
    895c:	00080793          	mv	a5,a6
    8960:	0117e7b3          	or	a5,a5,a7
    8964:	0c078863          	beqz	a5,8a34 <othello_handle_interrupt+0x1fc>
    8968:	0000f7b7          	lui	a5,0xf
    896c:	a8078793          	add	a5,a5,-1408 # ea80 <board>
    8970:	0007ae03          	lw	t3,0(a5)
    8974:	0047a303          	lw	t1,4(a5)
    8978:	0087a883          	lw	a7,8(a5)
    897c:	00c7a803          	lw	a6,12(a5)
    8980:	0107a503          	lw	a0,16(a5)
    8984:	0147a583          	lw	a1,20(a5)
    8988:	0187a603          	lw	a2,24(a5)
    898c:	01c7a683          	lw	a3,28(a5)
    8990:	0207a703          	lw	a4,32(a5)
    8994:	0247a783          	lw	a5,36(a5)
    8998:	fdc42023          	sw	t3,-64(s0)
    899c:	fc642223          	sw	t1,-60(s0)
    89a0:	fd142423          	sw	a7,-56(s0)
    89a4:	fd042623          	sw	a6,-52(s0)
    89a8:	fca42823          	sw	a0,-48(s0)
    89ac:	fcb42a23          	sw	a1,-44(s0)
    89b0:	fcc42c23          	sw	a2,-40(s0)
    89b4:	fcd42e23          	sw	a3,-36(s0)
    89b8:	fee42023          	sw	a4,-32(s0)
    89bc:	fef42223          	sw	a5,-28(s0)
    89c0:	0000f7b7          	lui	a5,0xf
    89c4:	a8078793          	add	a5,a5,-1408 # ea80 <board>
    89c8:	0187a703          	lw	a4,24(a5)
    89cc:	fc040793          	add	a5,s0,-64
    89d0:	00070593          	mv	a1,a4
    89d4:	00078513          	mv	a0,a5
    89d8:	a45ff0ef          	jal	841c <othello_make_move>
    89dc:	0000f7b7          	lui	a5,0xf
    89e0:	a8078793          	add	a5,a5,-1408 # ea80 <board>
    89e4:	fc042e83          	lw	t4,-64(s0)
    89e8:	fc442e03          	lw	t3,-60(s0)
    89ec:	fc842303          	lw	t1,-56(s0)
    89f0:	fcc42883          	lw	a7,-52(s0)
    89f4:	fd042803          	lw	a6,-48(s0)
    89f8:	fd442503          	lw	a0,-44(s0)
    89fc:	fd842583          	lw	a1,-40(s0)
    8a00:	fdc42603          	lw	a2,-36(s0)
    8a04:	fe042683          	lw	a3,-32(s0)
    8a08:	fe442703          	lw	a4,-28(s0)
    8a0c:	01d7a023          	sw	t4,0(a5)
    8a10:	01c7a223          	sw	t3,4(a5)
    8a14:	0067a423          	sw	t1,8(a5)
    8a18:	0117a623          	sw	a7,12(a5)
    8a1c:	0107a823          	sw	a6,16(a5)
    8a20:	00a7aa23          	sw	a0,20(a5)
    8a24:	00b7ac23          	sw	a1,24(a5)
    8a28:	00c7ae23          	sw	a2,28(a5)
    8a2c:	02d7a023          	sw	a3,32(a5)
    8a30:	02e7a223          	sw	a4,36(a5)
    8a34:	0000f7b7          	lui	a5,0xf
    8a38:	a8078793          	add	a5,a5,-1408 # ea80 <board>
    8a3c:	0007ae03          	lw	t3,0(a5)
    8a40:	0047a303          	lw	t1,4(a5)
    8a44:	0087a883          	lw	a7,8(a5)
    8a48:	00c7a803          	lw	a6,12(a5)
    8a4c:	0107a503          	lw	a0,16(a5)
    8a50:	0147a583          	lw	a1,20(a5)
    8a54:	0187a603          	lw	a2,24(a5)
    8a58:	01c7a683          	lw	a3,28(a5)
    8a5c:	0207a703          	lw	a4,32(a5)
    8a60:	0247a783          	lw	a5,36(a5)
    8a64:	f9c42023          	sw	t3,-128(s0)
    8a68:	f8642223          	sw	t1,-124(s0)
    8a6c:	f9142423          	sw	a7,-120(s0)
    8a70:	f9042623          	sw	a6,-116(s0)
    8a74:	f8a42823          	sw	a0,-112(s0)
    8a78:	f8b42a23          	sw	a1,-108(s0)
    8a7c:	f8c42c23          	sw	a2,-104(s0)
    8a80:	f8d42e23          	sw	a3,-100(s0)
    8a84:	fae42023          	sw	a4,-96(s0)
    8a88:	faf42223          	sw	a5,-92(s0)
    8a8c:	f8040793          	add	a5,s0,-128
    8a90:	00078513          	mv	a0,a5
    8a94:	489000ef          	jal	971c <othello_render>
    8a98:	0080006f          	j	8aa0 <othello_handle_interrupt+0x268>
    8a9c:	00000013          	nop
    8aa0:	00000793          	li	a5,0
    8aa4:	00078513          	mv	a0,a5
    8aa8:	07c12083          	lw	ra,124(sp)
    8aac:	07812403          	lw	s0,120(sp)
    8ab0:	08010113          	add	sp,sp,128
    8ab4:	00008067          	ret

00008ab8 <othello_handler_reset>:
    8ab8:	fc010113          	add	sp,sp,-64
    8abc:	02112e23          	sw	ra,60(sp)
    8ac0:	02812c23          	sw	s0,56(sp)
    8ac4:	04010413          	add	s0,sp,64
    8ac8:	10000737          	lui	a4,0x10000
    8acc:	00800793          	li	a5,8
    8ad0:	fce42823          	sw	a4,-48(s0)
    8ad4:	fcf42a23          	sw	a5,-44(s0)
    8ad8:	08000737          	lui	a4,0x8000
    8adc:	01000793          	li	a5,16
    8ae0:	fce42423          	sw	a4,-56(s0)
    8ae4:	fcf42623          	sw	a5,-52(s0)
    8ae8:	fe042423          	sw	zero,-24(s0)
    8aec:	fff00793          	li	a5,-1
    8af0:	fef42223          	sw	a5,-28(s0)
    8af4:	fe042023          	sw	zero,-32(s0)
    8af8:	fc840793          	add	a5,s0,-56
    8afc:	00078513          	mv	a0,a5
    8b00:	d38ff0ef          	jal	8038 <othello_generate_available_moves>
    8b04:	3f5000ef          	jal	96f8 <othello_reset_rendering>
    8b08:	0000f7b7          	lui	a5,0xf
    8b0c:	aa07a423          	sw	zero,-1368(a5) # eaa8 <has_rendered>
    8b10:	0000f7b7          	lui	a5,0xf
    8b14:	a8078793          	add	a5,a5,-1408 # ea80 <board>
    8b18:	fc842e83          	lw	t4,-56(s0)
    8b1c:	fcc42e03          	lw	t3,-52(s0)
    8b20:	fd042303          	lw	t1,-48(s0)
    8b24:	fd442883          	lw	a7,-44(s0)
    8b28:	fd842803          	lw	a6,-40(s0)
    8b2c:	fdc42503          	lw	a0,-36(s0)
    8b30:	fe042583          	lw	a1,-32(s0)
    8b34:	fe442603          	lw	a2,-28(s0)
    8b38:	fe842683          	lw	a3,-24(s0)
    8b3c:	fec42703          	lw	a4,-20(s0)
    8b40:	01d7a023          	sw	t4,0(a5)
    8b44:	01c7a223          	sw	t3,4(a5)
    8b48:	0067a423          	sw	t1,8(a5)
    8b4c:	0117a623          	sw	a7,12(a5)
    8b50:	0107a823          	sw	a6,16(a5)
    8b54:	00a7aa23          	sw	a0,20(a5)
    8b58:	00b7ac23          	sw	a1,24(a5)
    8b5c:	00c7ae23          	sw	a2,28(a5)
    8b60:	02d7a023          	sw	a3,32(a5)
    8b64:	02e7a223          	sw	a4,36(a5)
    8b68:	00000013          	nop
    8b6c:	03c12083          	lw	ra,60(sp)
    8b70:	03812403          	lw	s0,56(sp)
    8b74:	04010113          	add	sp,sp,64
    8b78:	00008067          	ret

00008b7c <othello_handler_render>:
    8b7c:	fc010113          	add	sp,sp,-64
    8b80:	02112e23          	sw	ra,60(sp)
    8b84:	02812c23          	sw	s0,56(sp)
    8b88:	04010413          	add	s0,sp,64
    8b8c:	0000f7b7          	lui	a5,0xf
    8b90:	aa87a783          	lw	a5,-1368(a5) # eaa8 <has_rendered>
    8b94:	06079a63          	bnez	a5,8c08 <othello_handler_render+0x8c>
    8b98:	0000f7b7          	lui	a5,0xf
    8b9c:	a8078793          	add	a5,a5,-1408 # ea80 <board>
    8ba0:	0007ae03          	lw	t3,0(a5)
    8ba4:	0047a303          	lw	t1,4(a5)
    8ba8:	0087a883          	lw	a7,8(a5)
    8bac:	00c7a803          	lw	a6,12(a5)
    8bb0:	0107a503          	lw	a0,16(a5)
    8bb4:	0147a583          	lw	a1,20(a5)
    8bb8:	0187a603          	lw	a2,24(a5)
    8bbc:	01c7a683          	lw	a3,28(a5)
    8bc0:	0207a703          	lw	a4,32(a5)
    8bc4:	0247a783          	lw	a5,36(a5)
    8bc8:	fdc42023          	sw	t3,-64(s0)
    8bcc:	fc642223          	sw	t1,-60(s0)
    8bd0:	fd142423          	sw	a7,-56(s0)
    8bd4:	fd042623          	sw	a6,-52(s0)
    8bd8:	fca42823          	sw	a0,-48(s0)
    8bdc:	fcb42a23          	sw	a1,-44(s0)
    8be0:	fcc42c23          	sw	a2,-40(s0)
    8be4:	fcd42e23          	sw	a3,-36(s0)
    8be8:	fee42023          	sw	a4,-32(s0)
    8bec:	fef42223          	sw	a5,-28(s0)
    8bf0:	fc040793          	add	a5,s0,-64
    8bf4:	00078513          	mv	a0,a5
    8bf8:	325000ef          	jal	971c <othello_render>
    8bfc:	0000f7b7          	lui	a5,0xf
    8c00:	00100713          	li	a4,1
    8c04:	aae7a423          	sw	a4,-1368(a5) # eaa8 <has_rendered>
    8c08:	00000013          	nop
    8c0c:	03c12083          	lw	ra,60(sp)
    8c10:	03812403          	lw	s0,56(sp)
    8c14:	04010113          	add	sp,sp,64
    8c18:	00008067          	ret

00008c1c <get_render_mask>:
    8c1c:	f9010113          	add	sp,sp,-112
    8c20:	06112623          	sw	ra,108(sp)
    8c24:	06812423          	sw	s0,104(sp)
    8c28:	06912223          	sw	s1,100(sp)
    8c2c:	07212023          	sw	s2,96(sp)
    8c30:	05312e23          	sw	s3,92(sp)
    8c34:	05412c23          	sw	s4,88(sp)
    8c38:	05512a23          	sw	s5,84(sp)
    8c3c:	05612823          	sw	s6,80(sp)
    8c40:	05712623          	sw	s7,76(sp)
    8c44:	05812423          	sw	s8,72(sp)
    8c48:	05912223          	sw	s9,68(sp)
    8c4c:	05a12023          	sw	s10,64(sp)
    8c50:	03b12e23          	sw	s11,60(sp)
    8c54:	07010413          	add	s0,sp,112
    8c58:	00050493          	mv	s1,a0
    8c5c:	f8b42e23          	sw	a1,-100(s0)
    8c60:	f8c42c23          	sw	a2,-104(s0)
    8c64:	0000f7b7          	lui	a5,0xf
    8c68:	ab07a783          	lw	a5,-1360(a5) # eab0 <has_last_board>
    8c6c:	00079863          	bnez	a5,8c7c <get_render_mask+0x60>
    8c70:	000117b7          	lui	a5,0x11
    8c74:	c6078513          	add	a0,a5,-928 # 10c60 <offsets+0x20>
    8c78:	f6cf90ef          	jal	23e4 <panic>
    8c7c:	0000f7b7          	lui	a5,0xf
    8c80:	ab878793          	add	a5,a5,-1352 # eab8 <last_board>
    8c84:	0007a603          	lw	a2,0(a5)
    8c88:	0047a683          	lw	a3,4(a5)
    8c8c:	0004a703          	lw	a4,0(s1)
    8c90:	0044a783          	lw	a5,4(s1)
    8c94:	00e645b3          	xor	a1,a2,a4
    8c98:	fab42c23          	sw	a1,-72(s0)
    8c9c:	00f6c7b3          	xor	a5,a3,a5
    8ca0:	faf42e23          	sw	a5,-68(s0)
    8ca4:	0000f7b7          	lui	a5,0xf
    8ca8:	ab878793          	add	a5,a5,-1352 # eab8 <last_board>
    8cac:	0087a603          	lw	a2,8(a5)
    8cb0:	00c7a683          	lw	a3,12(a5)
    8cb4:	0084a703          	lw	a4,8(s1)
    8cb8:	00c4a783          	lw	a5,12(s1)
    8cbc:	00e645b3          	xor	a1,a2,a4
    8cc0:	fab42823          	sw	a1,-80(s0)
    8cc4:	00f6c7b3          	xor	a5,a3,a5
    8cc8:	faf42a23          	sw	a5,-76(s0)
    8ccc:	0000f7b7          	lui	a5,0xf
    8cd0:	ab878793          	add	a5,a5,-1352 # eab8 <last_board>
    8cd4:	0107a603          	lw	a2,16(a5)
    8cd8:	0147a683          	lw	a3,20(a5)
    8cdc:	0104a703          	lw	a4,16(s1)
    8ce0:	0144a783          	lw	a5,20(s1)
    8ce4:	00e645b3          	xor	a1,a2,a4
    8ce8:	fab42423          	sw	a1,-88(s0)
    8cec:	00f6c7b3          	xor	a5,a3,a5
    8cf0:	faf42623          	sw	a5,-84(s0)
    8cf4:	fb842703          	lw	a4,-72(s0)
    8cf8:	fb042783          	lw	a5,-80(s0)
    8cfc:	00f76b33          	or	s6,a4,a5
    8d00:	fbc42703          	lw	a4,-68(s0)
    8d04:	fb442783          	lw	a5,-76(s0)
    8d08:	00f76bb3          	or	s7,a4,a5
    8d0c:	fa842783          	lw	a5,-88(s0)
    8d10:	0167ec33          	or	s8,a5,s6
    8d14:	fac42783          	lw	a5,-84(s0)
    8d18:	0177ecb3          	or	s9,a5,s7
    8d1c:	f9c42783          	lw	a5,-100(s0)
    8d20:	0187a023          	sw	s8,0(a5)
    8d24:	0197a223          	sw	s9,4(a5)
    8d28:	f9842783          	lw	a5,-104(s0)
    8d2c:	00000693          	li	a3,0
    8d30:	00000713          	li	a4,0
    8d34:	00d7a023          	sw	a3,0(a5)
    8d38:	00e7a223          	sw	a4,4(a5)
    8d3c:	0000f7b7          	lui	a5,0xf
    8d40:	ab878793          	add	a5,a5,-1352 # eab8 <last_board>
    8d44:	0187a703          	lw	a4,24(a5)
    8d48:	0184a783          	lw	a5,24(s1)
    8d4c:	0ef70e63          	beq	a4,a5,8e48 <get_render_mask+0x22c>
    8d50:	f9842783          	lw	a5,-104(s0)
    8d54:	0007a703          	lw	a4,0(a5)
    8d58:	0047a783          	lw	a5,4(a5)
    8d5c:	00070613          	mv	a2,a4
    8d60:	00078693          	mv	a3,a5
    8d64:	0184a783          	lw	a5,24(s1)
    8d68:	fe078713          	add	a4,a5,-32
    8d6c:	00074a63          	bltz	a4,8d80 <get_render_mask+0x164>
    8d70:	00100793          	li	a5,1
    8d74:	00e79ab3          	sll	s5,a5,a4
    8d78:	00000a13          	li	s4,0
    8d7c:	02c0006f          	j	8da8 <get_render_mask+0x18c>
    8d80:	00100713          	li	a4,1
    8d84:	00175593          	srl	a1,a4,0x1
    8d88:	01f00713          	li	a4,31
    8d8c:	40f70733          	sub	a4,a4,a5
    8d90:	00e5d733          	srl	a4,a1,a4
    8d94:	00000593          	li	a1,0
    8d98:	00f59ab3          	sll	s5,a1,a5
    8d9c:	01576ab3          	or	s5,a4,s5
    8da0:	00100713          	li	a4,1
    8da4:	00f71a33          	sll	s4,a4,a5
    8da8:	014667b3          	or	a5,a2,s4
    8dac:	f8f42823          	sw	a5,-112(s0)
    8db0:	0156e7b3          	or	a5,a3,s5
    8db4:	f8f42a23          	sw	a5,-108(s0)
    8db8:	f9042703          	lw	a4,-112(s0)
    8dbc:	f9442783          	lw	a5,-108(s0)
    8dc0:	f9842683          	lw	a3,-104(s0)
    8dc4:	00e6a023          	sw	a4,0(a3)
    8dc8:	00f6a223          	sw	a5,4(a3)
    8dcc:	f9842783          	lw	a5,-104(s0)
    8dd0:	0007a703          	lw	a4,0(a5)
    8dd4:	0047a783          	lw	a5,4(a5)
    8dd8:	00070613          	mv	a2,a4
    8ddc:	00078693          	mv	a3,a5
    8de0:	0000f7b7          	lui	a5,0xf
    8de4:	ab878793          	add	a5,a5,-1352 # eab8 <last_board>
    8de8:	0187a783          	lw	a5,24(a5)
    8dec:	fe078713          	add	a4,a5,-32
    8df0:	00074a63          	bltz	a4,8e04 <get_render_mask+0x1e8>
    8df4:	00100793          	li	a5,1
    8df8:	00e799b3          	sll	s3,a5,a4
    8dfc:	00000913          	li	s2,0
    8e00:	02c0006f          	j	8e2c <get_render_mask+0x210>
    8e04:	00100713          	li	a4,1
    8e08:	00175593          	srl	a1,a4,0x1
    8e0c:	01f00713          	li	a4,31
    8e10:	40f70733          	sub	a4,a4,a5
    8e14:	00e5d733          	srl	a4,a1,a4
    8e18:	00000593          	li	a1,0
    8e1c:	00f599b3          	sll	s3,a1,a5
    8e20:	013769b3          	or	s3,a4,s3
    8e24:	00100713          	li	a4,1
    8e28:	00f71933          	sll	s2,a4,a5
    8e2c:	01266d33          	or	s10,a2,s2
    8e30:	0136edb3          	or	s11,a3,s3
    8e34:	000d0713          	mv	a4,s10
    8e38:	000d8793          	mv	a5,s11
    8e3c:	f9842683          	lw	a3,-104(s0)
    8e40:	00e6a023          	sw	a4,0(a3)
    8e44:	00f6a223          	sw	a5,4(a3)
    8e48:	00000013          	nop
    8e4c:	06c12083          	lw	ra,108(sp)
    8e50:	06812403          	lw	s0,104(sp)
    8e54:	06412483          	lw	s1,100(sp)
    8e58:	06012903          	lw	s2,96(sp)
    8e5c:	05c12983          	lw	s3,92(sp)
    8e60:	05812a03          	lw	s4,88(sp)
    8e64:	05412a83          	lw	s5,84(sp)
    8e68:	05012b03          	lw	s6,80(sp)
    8e6c:	04c12b83          	lw	s7,76(sp)
    8e70:	04812c03          	lw	s8,72(sp)
    8e74:	04412c83          	lw	s9,68(sp)
    8e78:	04012d03          	lw	s10,64(sp)
    8e7c:	03c12d83          	lw	s11,60(sp)
    8e80:	07010113          	add	sp,sp,112
    8e84:	00008067          	ret

00008e88 <get_color>:
    8e88:	fe010113          	add	sp,sp,-32
    8e8c:	00812e23          	sw	s0,28(sp)
    8e90:	00912c23          	sw	s1,24(sp)
    8e94:	01212a23          	sw	s2,20(sp)
    8e98:	01312823          	sw	s3,16(sp)
    8e9c:	02010413          	add	s0,sp,32
    8ea0:	00050493          	mv	s1,a0
    8ea4:	feb42623          	sw	a1,-20(s0)
    8ea8:	0004a503          	lw	a0,0(s1)
    8eac:	0044a583          	lw	a1,4(s1)
    8eb0:	fec42283          	lw	t0,-20(s0)
    8eb4:	fe028913          	add	s2,t0,-32
    8eb8:	00094863          	bltz	s2,8ec8 <get_color+0x40>
    8ebc:	0125d833          	srl	a6,a1,s2
    8ec0:	00000893          	li	a7,0
    8ec4:	0200006f          	j	8ee4 <get_color+0x5c>
    8ec8:	00159993          	sll	s3,a1,0x1
    8ecc:	01f00913          	li	s2,31
    8ed0:	40590933          	sub	s2,s2,t0
    8ed4:	01299933          	sll	s2,s3,s2
    8ed8:	00555833          	srl	a6,a0,t0
    8edc:	01096833          	or	a6,s2,a6
    8ee0:	0055d8b3          	srl	a7,a1,t0
    8ee4:	00187f13          	and	t5,a6,1
    8ee8:	0008ff93          	and	t6,a7,0
    8eec:	000f0593          	mv	a1,t5
    8ef0:	01f5e5b3          	or	a1,a1,t6
    8ef4:	00058663          	beqz	a1,8f00 <get_color+0x78>
    8ef8:	00000793          	li	a5,0
    8efc:	0b80006f          	j	8fb4 <get_color+0x12c>
    8f00:	0084a503          	lw	a0,8(s1)
    8f04:	00c4a583          	lw	a1,12(s1)
    8f08:	fec42803          	lw	a6,-20(s0)
    8f0c:	fe080893          	add	a7,a6,-32
    8f10:	0008c863          	bltz	a7,8f20 <get_color+0x98>
    8f14:	0115d633          	srl	a2,a1,a7
    8f18:	00000693          	li	a3,0
    8f1c:	0200006f          	j	8f3c <get_color+0xb4>
    8f20:	00159f13          	sll	t5,a1,0x1
    8f24:	01f00893          	li	a7,31
    8f28:	410888b3          	sub	a7,a7,a6
    8f2c:	011f18b3          	sll	a7,t5,a7
    8f30:	01055633          	srl	a2,a0,a6
    8f34:	00c8e633          	or	a2,a7,a2
    8f38:	0105d6b3          	srl	a3,a1,a6
    8f3c:	00167e13          	and	t3,a2,1
    8f40:	0006fe93          	and	t4,a3,0
    8f44:	000e0693          	mv	a3,t3
    8f48:	01d6e6b3          	or	a3,a3,t4
    8f4c:	00068663          	beqz	a3,8f58 <get_color+0xd0>
    8f50:	00100793          	li	a5,1
    8f54:	0600006f          	j	8fb4 <get_color+0x12c>
    8f58:	0104a603          	lw	a2,16(s1)
    8f5c:	0144a683          	lw	a3,20(s1)
    8f60:	fec42583          	lw	a1,-20(s0)
    8f64:	fe058513          	add	a0,a1,-32
    8f68:	00054863          	bltz	a0,8f78 <get_color+0xf0>
    8f6c:	00a6d733          	srl	a4,a3,a0
    8f70:	00000793          	li	a5,0
    8f74:	0200006f          	j	8f94 <get_color+0x10c>
    8f78:	00169813          	sll	a6,a3,0x1
    8f7c:	01f00513          	li	a0,31
    8f80:	40b50533          	sub	a0,a0,a1
    8f84:	00a81533          	sll	a0,a6,a0
    8f88:	00b65733          	srl	a4,a2,a1
    8f8c:	00e56733          	or	a4,a0,a4
    8f90:	00b6d7b3          	srl	a5,a3,a1
    8f94:	00177313          	and	t1,a4,1
    8f98:	0007f393          	and	t2,a5,0
    8f9c:	00030793          	mv	a5,t1
    8fa0:	0077e7b3          	or	a5,a5,t2
    8fa4:	00078663          	beqz	a5,8fb0 <get_color+0x128>
    8fa8:	00200793          	li	a5,2
    8fac:	0080006f          	j	8fb4 <get_color+0x12c>
    8fb0:	fff00793          	li	a5,-1
    8fb4:	00078513          	mv	a0,a5
    8fb8:	01c12403          	lw	s0,28(sp)
    8fbc:	01812483          	lw	s1,24(sp)
    8fc0:	01412903          	lw	s2,20(sp)
    8fc4:	01012983          	lw	s3,16(sp)
    8fc8:	02010113          	add	sp,sp,32
    8fcc:	00008067          	ret

00008fd0 <render_tile>:
    8fd0:	fd010113          	add	sp,sp,-48
    8fd4:	02112623          	sw	ra,44(sp)
    8fd8:	02812423          	sw	s0,40(sp)
    8fdc:	03010413          	add	s0,sp,48
    8fe0:	fca42e23          	sw	a0,-36(s0)
    8fe4:	fcb42c23          	sw	a1,-40(s0)
    8fe8:	fcc42a23          	sw	a2,-44(s0)
    8fec:	01800713          	li	a4,24
    8ff0:	fdc42783          	lw	a5,-36(s0)
    8ff4:	02f70733          	mul	a4,a4,a5
    8ff8:	04300793          	li	a5,67
    8ffc:	00f707b3          	add	a5,a4,a5
    9000:	00278713          	add	a4,a5,2
    9004:	fdc42783          	lw	a5,-36(s0)
    9008:	40f707b3          	sub	a5,a4,a5
    900c:	fef42423          	sw	a5,-24(s0)
    9010:	01800713          	li	a4,24
    9014:	fd842783          	lw	a5,-40(s0)
    9018:	02f70733          	mul	a4,a4,a5
    901c:	01b00793          	li	a5,27
    9020:	00f707b3          	add	a5,a4,a5
    9024:	00278713          	add	a4,a5,2
    9028:	fd842783          	lw	a5,-40(s0)
    902c:	40f707b3          	sub	a5,a4,a5
    9030:	fef42223          	sw	a5,-28(s0)
    9034:	fd442703          	lw	a4,-44(s0)
    9038:	00200793          	li	a5,2
    903c:	04f70863          	beq	a4,a5,908c <render_tile+0xbc>
    9040:	fd442703          	lw	a4,-44(s0)
    9044:	00200793          	li	a5,2
    9048:	04e7ce63          	blt	a5,a4,90a4 <render_tile+0xd4>
    904c:	fd442703          	lw	a4,-44(s0)
    9050:	00100793          	li	a5,1
    9054:	02f70663          	beq	a4,a5,9080 <render_tile+0xb0>
    9058:	fd442703          	lw	a4,-44(s0)
    905c:	00100793          	li	a5,1
    9060:	04e7c263          	blt	a5,a4,90a4 <render_tile+0xd4>
    9064:	fd442703          	lw	a4,-44(s0)
    9068:	fff00793          	li	a5,-1
    906c:	02f70663          	beq	a4,a5,9098 <render_tile+0xc8>
    9070:	fd442783          	lw	a5,-44(s0)
    9074:	02079863          	bnez	a5,90a4 <render_tile+0xd4>
    9078:	fe0407a3          	sb	zero,-17(s0)
    907c:	0280006f          	j	90a4 <render_tile+0xd4>
    9080:	fff00793          	li	a5,-1
    9084:	fef407a3          	sb	a5,-17(s0)
    9088:	01c0006f          	j	90a4 <render_tile+0xd4>
    908c:	01c00793          	li	a5,28
    9090:	fef407a3          	sb	a5,-17(s0)
    9094:	0100006f          	j	90a4 <render_tile+0xd4>
    9098:	01000793          	li	a5,16
    909c:	fef407a3          	sb	a5,-17(s0)
    90a0:	00000013          	nop
    90a4:	fef44783          	lbu	a5,-17(s0)
    90a8:	00078613          	mv	a2,a5
    90ac:	fe442583          	lw	a1,-28(s0)
    90b0:	fe842503          	lw	a0,-24(s0)
    90b4:	cf8f80ef          	jal	15ac <render_20x20_circle>
    90b8:	00000013          	nop
    90bc:	02c12083          	lw	ra,44(sp)
    90c0:	02812403          	lw	s0,40(sp)
    90c4:	03010113          	add	sp,sp,48
    90c8:	00008067          	ret

000090cc <render_border>:
    90cc:	fd010113          	add	sp,sp,-48
    90d0:	02112623          	sw	ra,44(sp)
    90d4:	02812423          	sw	s0,40(sp)
    90d8:	03010413          	add	s0,sp,48
    90dc:	fca42e23          	sw	a0,-36(s0)
    90e0:	fcb42c23          	sw	a1,-40(s0)
    90e4:	fcc42a23          	sw	a2,-44(s0)
    90e8:	01800713          	li	a4,24
    90ec:	fdc42783          	lw	a5,-36(s0)
    90f0:	02f70733          	mul	a4,a4,a5
    90f4:	04300793          	li	a5,67
    90f8:	00f70733          	add	a4,a4,a5
    90fc:	fdc42783          	lw	a5,-36(s0)
    9100:	40f707b3          	sub	a5,a4,a5
    9104:	fef42623          	sw	a5,-20(s0)
    9108:	01800713          	li	a4,24
    910c:	fd842783          	lw	a5,-40(s0)
    9110:	02f70733          	mul	a4,a4,a5
    9114:	01b00793          	li	a5,27
    9118:	00f70733          	add	a4,a4,a5
    911c:	fd842783          	lw	a5,-40(s0)
    9120:	40f707b3          	sub	a5,a4,a5
    9124:	fef42423          	sw	a5,-24(s0)
    9128:	fd442783          	lw	a5,-44(s0)
    912c:	00078663          	beqz	a5,9138 <render_border+0x6c>
    9130:	0fc00793          	li	a5,252
    9134:	0080006f          	j	913c <render_border+0x70>
    9138:	00000793          	li	a5,0
    913c:	fef403a3          	sb	a5,-25(s0)
    9140:	01800793          	li	a5,24
    9144:	01800693          	li	a3,24
    9148:	fe744703          	lbu	a4,-25(s0)
    914c:	00078613          	mv	a2,a5
    9150:	fe842583          	lw	a1,-24(s0)
    9154:	fec42503          	lw	a0,-20(s0)
    9158:	a88f80ef          	jal	13e0 <render_rect_border>
    915c:	00000013          	nop
    9160:	02c12083          	lw	ra,44(sp)
    9164:	02812403          	lw	s0,40(sp)
    9168:	03010113          	add	sp,sp,48
    916c:	00008067          	ret

00009170 <get_background_color>:
    9170:	fe010113          	add	sp,sp,-32
    9174:	00812e23          	sw	s0,28(sp)
    9178:	02010413          	add	s0,sp,32
    917c:	fea42623          	sw	a0,-20(s0)
    9180:	feb42423          	sw	a1,-24(s0)
    9184:	04300793          	li	a5,67
    9188:	fec42703          	lw	a4,-20(s0)
    918c:	04f74063          	blt	a4,a5,91cc <get_background_color+0x5c>
    9190:	04300713          	li	a4,67
    9194:	0b900793          	li	a5,185
    9198:	00f707b3          	add	a5,a4,a5
    919c:	fec42703          	lw	a4,-20(s0)
    91a0:	02f75663          	bge	a4,a5,91cc <get_background_color+0x5c>
    91a4:	01b00793          	li	a5,27
    91a8:	fe842703          	lw	a4,-24(s0)
    91ac:	02f74063          	blt	a4,a5,91cc <get_background_color+0x5c>
    91b0:	01b00713          	li	a4,27
    91b4:	0b900793          	li	a5,185
    91b8:	00f707b3          	add	a5,a4,a5
    91bc:	fe842703          	lw	a4,-24(s0)
    91c0:	00f75663          	bge	a4,a5,91cc <get_background_color+0x5c>
    91c4:	01000793          	li	a5,16
    91c8:	0080006f          	j	91d0 <get_background_color+0x60>
    91cc:	00800793          	li	a5,8
    91d0:	00078513          	mv	a0,a5
    91d4:	01c12403          	lw	s0,28(sp)
    91d8:	02010113          	add	sp,sp,32
    91dc:	00008067          	ret

000091e0 <render_tiles>:
    91e0:	f8010113          	add	sp,sp,-128
    91e4:	06112e23          	sw	ra,124(sp)
    91e8:	06812c23          	sw	s0,120(sp)
    91ec:	06912a23          	sw	s1,116(sp)
    91f0:	07212823          	sw	s2,112(sp)
    91f4:	07312623          	sw	s3,108(sp)
    91f8:	07412423          	sw	s4,104(sp)
    91fc:	07512223          	sw	s5,100(sp)
    9200:	07612023          	sw	s6,96(sp)
    9204:	05712e23          	sw	s7,92(sp)
    9208:	05812c23          	sw	s8,88(sp)
    920c:	05912a23          	sw	s9,84(sp)
    9210:	08010413          	add	s0,sp,128
    9214:	00050493          	mv	s1,a0
    9218:	fab42c23          	sw	a1,-72(s0)
    921c:	fac42e23          	sw	a2,-68(s0)
    9220:	fad42823          	sw	a3,-80(s0)
    9224:	fae42a23          	sw	a4,-76(s0)
    9228:	fff00793          	li	a5,-1
    922c:	fcf42623          	sw	a5,-52(s0)
    9230:	fc042423          	sw	zero,-56(s0)
    9234:	1800006f          	j	93b4 <render_tiles+0x1d4>
    9238:	fc842703          	lw	a4,-56(s0)
    923c:	41f75793          	sra	a5,a4,0x1f
    9240:	01d7d793          	srl	a5,a5,0x1d
    9244:	00f70733          	add	a4,a4,a5
    9248:	00777713          	and	a4,a4,7
    924c:	40f707b3          	sub	a5,a4,a5
    9250:	fcf42223          	sw	a5,-60(s0)
    9254:	fc842783          	lw	a5,-56(s0)
    9258:	41f7d713          	sra	a4,a5,0x1f
    925c:	00777713          	and	a4,a4,7
    9260:	00f707b3          	add	a5,a4,a5
    9264:	4037d793          	sra	a5,a5,0x3
    9268:	fcf42023          	sw	a5,-64(s0)
    926c:	fb842703          	lw	a4,-72(s0)
    9270:	fbc42783          	lw	a5,-68(s0)
    9274:	fc842683          	lw	a3,-56(s0)
    9278:	fe068613          	add	a2,a3,-32
    927c:	00064863          	bltz	a2,928c <render_tiles+0xac>
    9280:	00c7d933          	srl	s2,a5,a2
    9284:	00000993          	li	s3,0
    9288:	0200006f          	j	92a8 <render_tiles+0xc8>
    928c:	00179593          	sll	a1,a5,0x1
    9290:	01f00613          	li	a2,31
    9294:	40d60633          	sub	a2,a2,a3
    9298:	00c59633          	sll	a2,a1,a2
    929c:	00d75933          	srl	s2,a4,a3
    92a0:	01266933          	or	s2,a2,s2
    92a4:	00d7d9b3          	srl	s3,a5,a3
    92a8:	00197b13          	and	s6,s2,1
    92ac:	0009fb93          	and	s7,s3,0
    92b0:	000b0793          	mv	a5,s6
    92b4:	0177e7b3          	or	a5,a5,s7
    92b8:	06078c63          	beqz	a5,9330 <render_tiles+0x150>
    92bc:	0004ae03          	lw	t3,0(s1)
    92c0:	0044a303          	lw	t1,4(s1)
    92c4:	0084a883          	lw	a7,8(s1)
    92c8:	00c4a803          	lw	a6,12(s1)
    92cc:	0104a503          	lw	a0,16(s1)
    92d0:	0144a583          	lw	a1,20(s1)
    92d4:	0184a603          	lw	a2,24(s1)
    92d8:	01c4a683          	lw	a3,28(s1)
    92dc:	0204a703          	lw	a4,32(s1)
    92e0:	0244a783          	lw	a5,36(s1)
    92e4:	f9c42023          	sw	t3,-128(s0)
    92e8:	f8642223          	sw	t1,-124(s0)
    92ec:	f9142423          	sw	a7,-120(s0)
    92f0:	f9042623          	sw	a6,-116(s0)
    92f4:	f8a42823          	sw	a0,-112(s0)
    92f8:	f8b42a23          	sw	a1,-108(s0)
    92fc:	f8c42c23          	sw	a2,-104(s0)
    9300:	f8d42e23          	sw	a3,-100(s0)
    9304:	fae42023          	sw	a4,-96(s0)
    9308:	faf42223          	sw	a5,-92(s0)
    930c:	f8040793          	add	a5,s0,-128
    9310:	fc842583          	lw	a1,-56(s0)
    9314:	00078513          	mv	a0,a5
    9318:	b71ff0ef          	jal	8e88 <get_color>
    931c:	00050793          	mv	a5,a0
    9320:	00078613          	mv	a2,a5
    9324:	fc042583          	lw	a1,-64(s0)
    9328:	fc442503          	lw	a0,-60(s0)
    932c:	ca5ff0ef          	jal	8fd0 <render_tile>
    9330:	fb042703          	lw	a4,-80(s0)
    9334:	fb442783          	lw	a5,-76(s0)
    9338:	fc842683          	lw	a3,-56(s0)
    933c:	fe068613          	add	a2,a3,-32
    9340:	00064863          	bltz	a2,9350 <render_tiles+0x170>
    9344:	00c7da33          	srl	s4,a5,a2
    9348:	00000a93          	li	s5,0
    934c:	0200006f          	j	936c <render_tiles+0x18c>
    9350:	00179593          	sll	a1,a5,0x1
    9354:	01f00613          	li	a2,31
    9358:	40d60633          	sub	a2,a2,a3
    935c:	00c59633          	sll	a2,a1,a2
    9360:	00d75a33          	srl	s4,a4,a3
    9364:	01466a33          	or	s4,a2,s4
    9368:	00d7dab3          	srl	s5,a5,a3
    936c:	001a7c13          	and	s8,s4,1
    9370:	000afc93          	and	s9,s5,0
    9374:	000c0793          	mv	a5,s8
    9378:	0197e7b3          	or	a5,a5,s9
    937c:	02078663          	beqz	a5,93a8 <render_tiles+0x1c8>
    9380:	0184a783          	lw	a5,24(s1)
    9384:	fc842703          	lw	a4,-56(s0)
    9388:	00f71863          	bne	a4,a5,9398 <render_tiles+0x1b8>
    938c:	fc842783          	lw	a5,-56(s0)
    9390:	fcf42623          	sw	a5,-52(s0)
    9394:	0140006f          	j	93a8 <render_tiles+0x1c8>
    9398:	00000613          	li	a2,0
    939c:	fc042583          	lw	a1,-64(s0)
    93a0:	fc442503          	lw	a0,-60(s0)
    93a4:	d29ff0ef          	jal	90cc <render_border>
    93a8:	fc842783          	lw	a5,-56(s0)
    93ac:	00178793          	add	a5,a5,1
    93b0:	fcf42423          	sw	a5,-56(s0)
    93b4:	fc842703          	lw	a4,-56(s0)
    93b8:	03f00793          	li	a5,63
    93bc:	e6e7dee3          	bge	a5,a4,9238 <render_tiles+0x58>
    93c0:	fcc42703          	lw	a4,-52(s0)
    93c4:	fff00793          	li	a5,-1
    93c8:	04f70263          	beq	a4,a5,940c <render_tiles+0x22c>
    93cc:	fcc42703          	lw	a4,-52(s0)
    93d0:	41f75793          	sra	a5,a4,0x1f
    93d4:	01d7d793          	srl	a5,a5,0x1d
    93d8:	00f70733          	add	a4,a4,a5
    93dc:	00777713          	and	a4,a4,7
    93e0:	40f707b3          	sub	a5,a4,a5
    93e4:	00078693          	mv	a3,a5
    93e8:	fcc42783          	lw	a5,-52(s0)
    93ec:	41f7d713          	sra	a4,a5,0x1f
    93f0:	00777713          	and	a4,a4,7
    93f4:	00f707b3          	add	a5,a4,a5
    93f8:	4037d793          	sra	a5,a5,0x3
    93fc:	00100613          	li	a2,1
    9400:	00078593          	mv	a1,a5
    9404:	00068513          	mv	a0,a3
    9408:	cc5ff0ef          	jal	90cc <render_border>
    940c:	00000013          	nop
    9410:	07c12083          	lw	ra,124(sp)
    9414:	07812403          	lw	s0,120(sp)
    9418:	07412483          	lw	s1,116(sp)
    941c:	07012903          	lw	s2,112(sp)
    9420:	06c12983          	lw	s3,108(sp)
    9424:	06812a03          	lw	s4,104(sp)
    9428:	06412a83          	lw	s5,100(sp)
    942c:	06012b03          	lw	s6,96(sp)
    9430:	05c12b83          	lw	s7,92(sp)
    9434:	05812c03          	lw	s8,88(sp)
    9438:	05412c83          	lw	s9,84(sp)
    943c:	08010113          	add	sp,sp,128
    9440:	00008067          	ret

00009444 <print_score>:
    9444:	fd010113          	add	sp,sp,-48
    9448:	02112623          	sw	ra,44(sp)
    944c:	02812423          	sw	s0,40(sp)
    9450:	03010413          	add	s0,sp,48
    9454:	fca42e23          	sw	a0,-36(s0)
    9458:	fcb42c23          	sw	a1,-40(s0)
    945c:	fcc42a23          	sw	a2,-44(s0)
    9460:	fcd42823          	sw	a3,-48(s0)
    9464:	000117b7          	lui	a5,0x11
    9468:	c7c78793          	add	a5,a5,-900 # 10c7c <offsets+0x3c>
    946c:	fef42623          	sw	a5,-20(s0)
    9470:	0ff00593          	li	a1,255
    9474:	00800613          	li	a2,8
    9478:	fd040793          	add	a5,s0,-48
    947c:	fd442703          	lw	a4,-44(s0)
    9480:	fd442683          	lw	a3,-44(s0)
    9484:	fdc42503          	lw	a0,-36(s0)
    9488:	c39f80ef          	jal	20c0 <render_text_number>
    948c:	0ff00593          	li	a1,255
    9490:	00800613          	li	a2,8
    9494:	fd040793          	add	a5,s0,-48
    9498:	fd442703          	lw	a4,-44(s0)
    949c:	fd442683          	lw	a3,-44(s0)
    94a0:	fec42503          	lw	a0,-20(s0)
    94a4:	a79f80ef          	jal	1f1c <render_text>
    94a8:	0ff00593          	li	a1,255
    94ac:	00800613          	li	a2,8
    94b0:	fd040793          	add	a5,s0,-48
    94b4:	fd442703          	lw	a4,-44(s0)
    94b8:	fd442683          	lw	a3,-44(s0)
    94bc:	fd842503          	lw	a0,-40(s0)
    94c0:	c01f80ef          	jal	20c0 <render_text_number>
    94c4:	00000013          	nop
    94c8:	02c12083          	lw	ra,44(sp)
    94cc:	02812403          	lw	s0,40(sp)
    94d0:	03010113          	add	sp,sp,48
    94d4:	00008067          	ret

000094d8 <render_victor_text>:
    94d8:	fc010113          	add	sp,sp,-64
    94dc:	02112e23          	sw	ra,60(sp)
    94e0:	02812c23          	sw	s0,56(sp)
    94e4:	02912a23          	sw	s1,52(sp)
    94e8:	04010413          	add	s0,sp,64
    94ec:	00050493          	mv	s1,a0
    94f0:	fc042623          	sw	zero,-52(s0)
    94f4:	000117b7          	lui	a5,0x11
    94f8:	c8078793          	add	a5,a5,-896 # 10c80 <offsets+0x40>
    94fc:	fef42623          	sw	a5,-20(s0)
    9500:	fec42503          	lw	a0,-20(s0)
    9504:	d81f80ef          	jal	2284 <render_text_width>
    9508:	fea42423          	sw	a0,-24(s0)
    950c:	000117b7          	lui	a5,0x11
    9510:	c8c78793          	add	a5,a5,-884 # 10c8c <offsets+0x4c>
    9514:	fef42223          	sw	a5,-28(s0)
    9518:	000117b7          	lui	a5,0x11
    951c:	c9878793          	add	a5,a5,-872 # 10c98 <offsets+0x58>
    9520:	fef42023          	sw	a5,-32(s0)
    9524:	000117b7          	lui	a5,0x11
    9528:	ca478793          	add	a5,a5,-860 # 10ca4 <offsets+0x64>
    952c:	fcf42e23          	sw	a5,-36(s0)
    9530:	01c4a783          	lw	a5,28(s1)
    9534:	00200713          	li	a4,2
    9538:	12e78063          	beq	a5,a4,9658 <render_victor_text+0x180>
    953c:	00200713          	li	a4,2
    9540:	18f74e63          	blt	a4,a5,96dc <render_victor_text+0x204>
    9544:	08078863          	beqz	a5,95d4 <render_victor_text+0xfc>
    9548:	00100713          	li	a4,1
    954c:	18e79863          	bne	a5,a4,96dc <render_victor_text+0x204>
    9550:	fe442503          	lw	a0,-28(s0)
    9554:	d31f80ef          	jal	2284 <render_text_width>
    9558:	00050713          	mv	a4,a0
    955c:	fe842783          	lw	a5,-24(s0)
    9560:	00e787b3          	add	a5,a5,a4
    9564:	fcf42a23          	sw	a5,-44(s0)
    9568:	0ff00593          	li	a1,255
    956c:	00800613          	li	a2,8
    9570:	14000713          	li	a4,320
    9574:	fd442783          	lw	a5,-44(s0)
    9578:	40f707b3          	sub	a5,a4,a5
    957c:	01f7d713          	srl	a4,a5,0x1f
    9580:	00f707b3          	add	a5,a4,a5
    9584:	4017d793          	sra	a5,a5,0x1
    9588:	00078693          	mv	a3,a5
    958c:	fcc40793          	add	a5,s0,-52
    9590:	0dc00713          	li	a4,220
    9594:	fec42503          	lw	a0,-20(s0)
    9598:	985f80ef          	jal	1f1c <render_text>
    959c:	0ff00593          	li	a1,255
    95a0:	00800613          	li	a2,8
    95a4:	14000713          	li	a4,320
    95a8:	fd442783          	lw	a5,-44(s0)
    95ac:	40f707b3          	sub	a5,a4,a5
    95b0:	01f7d713          	srl	a4,a5,0x1f
    95b4:	00f707b3          	add	a5,a4,a5
    95b8:	4017d793          	sra	a5,a5,0x1
    95bc:	00078693          	mv	a3,a5
    95c0:	fcc40793          	add	a5,s0,-52
    95c4:	0dc00713          	li	a4,220
    95c8:	fe442503          	lw	a0,-28(s0)
    95cc:	951f80ef          	jal	1f1c <render_text>
    95d0:	1100006f          	j	96e0 <render_victor_text+0x208>
    95d4:	fe042503          	lw	a0,-32(s0)
    95d8:	cadf80ef          	jal	2284 <render_text_width>
    95dc:	00050713          	mv	a4,a0
    95e0:	fe842783          	lw	a5,-24(s0)
    95e4:	00e787b3          	add	a5,a5,a4
    95e8:	fcf42823          	sw	a5,-48(s0)
    95ec:	0ff00593          	li	a1,255
    95f0:	00800613          	li	a2,8
    95f4:	14000713          	li	a4,320
    95f8:	fd042783          	lw	a5,-48(s0)
    95fc:	40f707b3          	sub	a5,a4,a5
    9600:	01f7d713          	srl	a4,a5,0x1f
    9604:	00f707b3          	add	a5,a4,a5
    9608:	4017d793          	sra	a5,a5,0x1
    960c:	00078693          	mv	a3,a5
    9610:	fcc40793          	add	a5,s0,-52
    9614:	0dc00713          	li	a4,220
    9618:	fec42503          	lw	a0,-20(s0)
    961c:	901f80ef          	jal	1f1c <render_text>
    9620:	0ff00593          	li	a1,255
    9624:	00800613          	li	a2,8
    9628:	14000713          	li	a4,320
    962c:	fd042783          	lw	a5,-48(s0)
    9630:	40f707b3          	sub	a5,a4,a5
    9634:	01f7d713          	srl	a4,a5,0x1f
    9638:	00f707b3          	add	a5,a4,a5
    963c:	4017d793          	sra	a5,a5,0x1
    9640:	00078693          	mv	a3,a5
    9644:	fcc40793          	add	a5,s0,-52
    9648:	0dc00713          	li	a4,220
    964c:	fe042503          	lw	a0,-32(s0)
    9650:	8cdf80ef          	jal	1f1c <render_text>
    9654:	08c0006f          	j	96e0 <render_victor_text+0x208>
    9658:	fdc42503          	lw	a0,-36(s0)
    965c:	c29f80ef          	jal	2284 <render_text_width>
    9660:	00050713          	mv	a4,a0
    9664:	fe842783          	lw	a5,-24(s0)
    9668:	00e787b3          	add	a5,a5,a4
    966c:	fcf42c23          	sw	a5,-40(s0)
    9670:	0ff00593          	li	a1,255
    9674:	00800613          	li	a2,8
    9678:	14000713          	li	a4,320
    967c:	fd842783          	lw	a5,-40(s0)
    9680:	40f707b3          	sub	a5,a4,a5
    9684:	01f7d713          	srl	a4,a5,0x1f
    9688:	00f707b3          	add	a5,a4,a5
    968c:	4017d793          	sra	a5,a5,0x1
    9690:	00078693          	mv	a3,a5
    9694:	fcc40793          	add	a5,s0,-52
    9698:	0dc00713          	li	a4,220
    969c:	fec42503          	lw	a0,-20(s0)
    96a0:	87df80ef          	jal	1f1c <render_text>
    96a4:	0ff00593          	li	a1,255
    96a8:	00800613          	li	a2,8
    96ac:	14000713          	li	a4,320
    96b0:	fd842783          	lw	a5,-40(s0)
    96b4:	40f707b3          	sub	a5,a4,a5
    96b8:	01f7d713          	srl	a4,a5,0x1f
    96bc:	00f707b3          	add	a5,a4,a5
    96c0:	4017d793          	sra	a5,a5,0x1
    96c4:	00078693          	mv	a3,a5
    96c8:	fcc40793          	add	a5,s0,-52
    96cc:	0dc00713          	li	a4,220
    96d0:	fdc42503          	lw	a0,-36(s0)
    96d4:	849f80ef          	jal	1f1c <render_text>
    96d8:	0080006f          	j	96e0 <render_victor_text+0x208>
    96dc:	00000013          	nop
    96e0:	00000013          	nop
    96e4:	03c12083          	lw	ra,60(sp)
    96e8:	03812403          	lw	s0,56(sp)
    96ec:	03412483          	lw	s1,52(sp)
    96f0:	04010113          	add	sp,sp,64
    96f4:	00008067          	ret

000096f8 <othello_reset_rendering>:
    96f8:	ff010113          	add	sp,sp,-16
    96fc:	00812623          	sw	s0,12(sp)
    9700:	01010413          	add	s0,sp,16
    9704:	0000f7b7          	lui	a5,0xf
    9708:	aa07a823          	sw	zero,-1360(a5) # eab0 <has_last_board>
    970c:	00000013          	nop
    9710:	00c12403          	lw	s0,12(sp)
    9714:	01010113          	add	sp,sp,16
    9718:	00008067          	ret

0000971c <othello_render>:
    971c:	f8010113          	add	sp,sp,-128
    9720:	06112e23          	sw	ra,124(sp)
    9724:	06812c23          	sw	s0,120(sp)
    9728:	06912a23          	sw	s1,116(sp)
    972c:	08010413          	add	s0,sp,128
    9730:	00050493          	mv	s1,a0
    9734:	fff00713          	li	a4,-1
    9738:	fff00793          	li	a5,-1
    973c:	fce42023          	sw	a4,-64(s0)
    9740:	fcf42223          	sw	a5,-60(s0)
    9744:	fff00713          	li	a4,-1
    9748:	fff00793          	li	a5,-1
    974c:	fae42c23          	sw	a4,-72(s0)
    9750:	faf42e23          	sw	a5,-68(s0)
    9754:	00400793          	li	a5,4
    9758:	fef42623          	sw	a5,-20(s0)
    975c:	fa042a23          	sw	zero,-76(s0)
    9760:	fa042823          	sw	zero,-80(s0)
    9764:	000117b7          	lui	a5,0x11
    9768:	cac78793          	add	a5,a5,-852 # 10cac <offsets+0x6c>
    976c:	fef42423          	sw	a5,-24(s0)
    9770:	000117b7          	lui	a5,0x11
    9774:	cb478793          	add	a5,a5,-844 # 10cb4 <offsets+0x74>
    9778:	fef42223          	sw	a5,-28(s0)
    977c:	000117b7          	lui	a5,0x11
    9780:	cc078793          	add	a5,a5,-832 # 10cc0 <offsets+0x80>
    9784:	fef42023          	sw	a5,-32(s0)
    9788:	000117b7          	lui	a5,0x11
    978c:	cc878793          	add	a5,a5,-824 # 10cc8 <offsets+0x88>
    9790:	fcf42e23          	sw	a5,-36(s0)
    9794:	0084a703          	lw	a4,8(s1)
    9798:	00c4a783          	lw	a5,12(s1)
    979c:	00070513          	mv	a0,a4
    97a0:	00078593          	mv	a1,a5
    97a4:	c9df80ef          	jal	2440 <long_long_popcount>
    97a8:	00050793          	mv	a5,a0
    97ac:	fcf42c23          	sw	a5,-40(s0)
    97b0:	0004a703          	lw	a4,0(s1)
    97b4:	0044a783          	lw	a5,4(s1)
    97b8:	00070513          	mv	a0,a4
    97bc:	00078593          	mv	a1,a5
    97c0:	c81f80ef          	jal	2440 <long_long_popcount>
    97c4:	00050793          	mv	a5,a0
    97c8:	fcf42a23          	sw	a5,-44(s0)
    97cc:	0000f7b7          	lui	a5,0xf
    97d0:	ab07a783          	lw	a5,-1360(a5) # eab0 <has_last_board>
    97d4:	00079a63          	bnez	a5,97e8 <othello_render+0xcc>
    97d8:	000097b7          	lui	a5,0x9
    97dc:	17078513          	add	a0,a5,368 # 9170 <get_background_color>
    97e0:	b2df80ef          	jal	230c <render_background>
    97e4:	0700006f          	j	9854 <othello_render+0x138>
    97e8:	0004ae03          	lw	t3,0(s1)
    97ec:	0044a303          	lw	t1,4(s1)
    97f0:	0084a883          	lw	a7,8(s1)
    97f4:	00c4a803          	lw	a6,12(s1)
    97f8:	0104a503          	lw	a0,16(s1)
    97fc:	0144a583          	lw	a1,20(s1)
    9800:	0184a603          	lw	a2,24(s1)
    9804:	01c4a683          	lw	a3,28(s1)
    9808:	0204a703          	lw	a4,32(s1)
    980c:	0244a783          	lw	a5,36(s1)
    9810:	f9c42023          	sw	t3,-128(s0)
    9814:	f8642223          	sw	t1,-124(s0)
    9818:	f9142423          	sw	a7,-120(s0)
    981c:	f9042623          	sw	a6,-116(s0)
    9820:	f8a42823          	sw	a0,-112(s0)
    9824:	f8b42a23          	sw	a1,-108(s0)
    9828:	f8c42c23          	sw	a2,-104(s0)
    982c:	f8d42e23          	sw	a3,-100(s0)
    9830:	fae42023          	sw	a4,-96(s0)
    9834:	faf42223          	sw	a5,-92(s0)
    9838:	fb840693          	add	a3,s0,-72
    983c:	fc040713          	add	a4,s0,-64
    9840:	f8040793          	add	a5,s0,-128
    9844:	00068613          	mv	a2,a3
    9848:	00070593          	mv	a1,a4
    984c:	00078513          	mv	a0,a5
    9850:	bccff0ef          	jal	8c1c <get_render_mask>
    9854:	fc042503          	lw	a0,-64(s0)
    9858:	fc442583          	lw	a1,-60(s0)
    985c:	fb842703          	lw	a4,-72(s0)
    9860:	fbc42783          	lw	a5,-68(s0)
    9864:	0004a283          	lw	t0,0(s1)
    9868:	0044af83          	lw	t6,4(s1)
    986c:	0084af03          	lw	t5,8(s1)
    9870:	00c4ae83          	lw	t4,12(s1)
    9874:	0104ae03          	lw	t3,16(s1)
    9878:	0144a303          	lw	t1,20(s1)
    987c:	0184a883          	lw	a7,24(s1)
    9880:	01c4a803          	lw	a6,28(s1)
    9884:	0204a603          	lw	a2,32(s1)
    9888:	0244a683          	lw	a3,36(s1)
    988c:	f8542023          	sw	t0,-128(s0)
    9890:	f9f42223          	sw	t6,-124(s0)
    9894:	f9e42423          	sw	t5,-120(s0)
    9898:	f9d42623          	sw	t4,-116(s0)
    989c:	f9c42823          	sw	t3,-112(s0)
    98a0:	f8642a23          	sw	t1,-108(s0)
    98a4:	f9142c23          	sw	a7,-104(s0)
    98a8:	f9042e23          	sw	a6,-100(s0)
    98ac:	fac42023          	sw	a2,-96(s0)
    98b0:	fad42223          	sw	a3,-92(s0)
    98b4:	f8040813          	add	a6,s0,-128
    98b8:	00070693          	mv	a3,a4
    98bc:	00078713          	mv	a4,a5
    98c0:	00058613          	mv	a2,a1
    98c4:	00050593          	mv	a1,a0
    98c8:	00080513          	mv	a0,a6
    98cc:	915ff0ef          	jal	91e0 <render_tiles>
    98d0:	0000f7b7          	lui	a5,0xf
    98d4:	ab07a783          	lw	a5,-1360(a5) # eab0 <has_last_board>
    98d8:	02078663          	beqz	a5,9904 <othello_render+0x1e8>
    98dc:	0000f7b7          	lui	a5,0xf
    98e0:	ab878793          	add	a5,a5,-1352 # eab8 <last_board>
    98e4:	0207a703          	lw	a4,32(a5)
    98e8:	0204a783          	lw	a5,32(s1)
    98ec:	00f71c63          	bne	a4,a5,9904 <othello_render+0x1e8>
    98f0:	0000f7b7          	lui	a5,0xf
    98f4:	ab878793          	add	a5,a5,-1352 # eab8 <last_board>
    98f8:	01c7a703          	lw	a4,28(a5)
    98fc:	01c4a783          	lw	a5,28(s1)
    9900:	08f70463          	beq	a4,a5,9988 <othello_render+0x26c>
    9904:	00800593          	li	a1,8
    9908:	fec42783          	lw	a5,-20(s0)
    990c:	00878793          	add	a5,a5,8
    9910:	00000713          	li	a4,0
    9914:	00078693          	mv	a3,a5
    9918:	fec42603          	lw	a2,-20(s0)
    991c:	000117b7          	lui	a5,0x11
    9920:	cd078513          	add	a0,a5,-816 # 10cd0 <offsets+0x90>
    9924:	8a9f80ef          	jal	21cc <render_text_clear>
    9928:	01c4a703          	lw	a4,28(s1)
    992c:	fff00793          	li	a5,-1
    9930:	04f71c63          	bne	a4,a5,9988 <othello_render+0x26c>
    9934:	0ff00593          	li	a1,255
    9938:	00800613          	li	a2,8
    993c:	fec42783          	lw	a5,-20(s0)
    9940:	00878713          	add	a4,a5,8
    9944:	fb040793          	add	a5,s0,-80
    9948:	fec42683          	lw	a3,-20(s0)
    994c:	fe442503          	lw	a0,-28(s0)
    9950:	dccf80ef          	jal	1f1c <render_text>
    9954:	0204a703          	lw	a4,32(s1)
    9958:	00100793          	li	a5,1
    995c:	00f71663          	bne	a4,a5,9968 <othello_render+0x24c>
    9960:	fe042503          	lw	a0,-32(s0)
    9964:	0080006f          	j	996c <othello_render+0x250>
    9968:	fdc42503          	lw	a0,-36(s0)
    996c:	0ff00593          	li	a1,255
    9970:	00800613          	li	a2,8
    9974:	fec42783          	lw	a5,-20(s0)
    9978:	00878713          	add	a4,a5,8
    997c:	fb040793          	add	a5,s0,-80
    9980:	fec42683          	lw	a3,-20(s0)
    9984:	d98f80ef          	jal	1f1c <render_text>
    9988:	0000f7b7          	lui	a5,0xf
    998c:	ab878793          	add	a5,a5,-1352 # eab8 <last_board>
    9990:	0087a703          	lw	a4,8(a5)
    9994:	00c7a783          	lw	a5,12(a5)
    9998:	00070513          	mv	a0,a4
    999c:	00078593          	mv	a1,a5
    99a0:	aa1f80ef          	jal	2440 <long_long_popcount>
    99a4:	00050793          	mv	a5,a0
    99a8:	fcf42823          	sw	a5,-48(s0)
    99ac:	0000f7b7          	lui	a5,0xf
    99b0:	ab878793          	add	a5,a5,-1352 # eab8 <last_board>
    99b4:	0007a703          	lw	a4,0(a5)
    99b8:	0047a783          	lw	a5,4(a5)
    99bc:	00070513          	mv	a0,a4
    99c0:	00078593          	mv	a1,a5
    99c4:	a7df80ef          	jal	2440 <long_long_popcount>
    99c8:	00050793          	mv	a5,a0
    99cc:	fcf42623          	sw	a5,-52(s0)
    99d0:	0000f7b7          	lui	a5,0xf
    99d4:	ab07a783          	lw	a5,-1360(a5) # eab0 <has_last_board>
    99d8:	00078e63          	beqz	a5,99f4 <othello_render+0x2d8>
    99dc:	fd842703          	lw	a4,-40(s0)
    99e0:	fd042783          	lw	a5,-48(s0)
    99e4:	00f71863          	bne	a4,a5,99f4 <othello_render+0x2d8>
    99e8:	fd442703          	lw	a4,-44(s0)
    99ec:	fcc42783          	lw	a5,-52(s0)
    99f0:	04f70c63          	beq	a4,a5,9a48 <othello_render+0x32c>
    99f4:	00800793          	li	a5,8
    99f8:	00000713          	li	a4,0
    99fc:	fec42683          	lw	a3,-20(s0)
    9a00:	fec42603          	lw	a2,-20(s0)
    9a04:	00078593          	mv	a1,a5
    9a08:	000117b7          	lui	a5,0x11
    9a0c:	ce078513          	add	a0,a5,-800 # 10ce0 <offsets+0xa0>
    9a10:	fbcf80ef          	jal	21cc <render_text_clear>
    9a14:	0ff00593          	li	a1,255
    9a18:	00800613          	li	a2,8
    9a1c:	fb440793          	add	a5,s0,-76
    9a20:	fec42703          	lw	a4,-20(s0)
    9a24:	fec42683          	lw	a3,-20(s0)
    9a28:	fe842503          	lw	a0,-24(s0)
    9a2c:	cf0f80ef          	jal	1f1c <render_text>
    9a30:	fb442783          	lw	a5,-76(s0)
    9a34:	00078693          	mv	a3,a5
    9a38:	fec42603          	lw	a2,-20(s0)
    9a3c:	fd842583          	lw	a1,-40(s0)
    9a40:	fd442503          	lw	a0,-44(s0)
    9a44:	a01ff0ef          	jal	9444 <print_score>
    9a48:	0004ae03          	lw	t3,0(s1)
    9a4c:	0044a303          	lw	t1,4(s1)
    9a50:	0084a883          	lw	a7,8(s1)
    9a54:	00c4a803          	lw	a6,12(s1)
    9a58:	0104a503          	lw	a0,16(s1)
    9a5c:	0144a583          	lw	a1,20(s1)
    9a60:	0184a603          	lw	a2,24(s1)
    9a64:	01c4a683          	lw	a3,28(s1)
    9a68:	0204a703          	lw	a4,32(s1)
    9a6c:	0244a783          	lw	a5,36(s1)
    9a70:	f9c42023          	sw	t3,-128(s0)
    9a74:	f8642223          	sw	t1,-124(s0)
    9a78:	f9142423          	sw	a7,-120(s0)
    9a7c:	f9042623          	sw	a6,-116(s0)
    9a80:	f8a42823          	sw	a0,-112(s0)
    9a84:	f8b42a23          	sw	a1,-108(s0)
    9a88:	f8c42c23          	sw	a2,-104(s0)
    9a8c:	f8d42e23          	sw	a3,-100(s0)
    9a90:	fae42023          	sw	a4,-96(s0)
    9a94:	faf42223          	sw	a5,-92(s0)
    9a98:	f8040793          	add	a5,s0,-128
    9a9c:	00078513          	mv	a0,a5
    9aa0:	a39ff0ef          	jal	94d8 <render_victor_text>
    9aa4:	0000f7b7          	lui	a5,0xf
    9aa8:	ab878793          	add	a5,a5,-1352 # eab8 <last_board>
    9aac:	0004ae83          	lw	t4,0(s1)
    9ab0:	0044ae03          	lw	t3,4(s1)
    9ab4:	0084a303          	lw	t1,8(s1)
    9ab8:	00c4a883          	lw	a7,12(s1)
    9abc:	0104a803          	lw	a6,16(s1)
    9ac0:	0144a503          	lw	a0,20(s1)
    9ac4:	0184a583          	lw	a1,24(s1)
    9ac8:	01c4a603          	lw	a2,28(s1)
    9acc:	0204a683          	lw	a3,32(s1)
    9ad0:	0244a703          	lw	a4,36(s1)
    9ad4:	01d7a023          	sw	t4,0(a5)
    9ad8:	01c7a223          	sw	t3,4(a5)
    9adc:	0067a423          	sw	t1,8(a5)
    9ae0:	0117a623          	sw	a7,12(a5)
    9ae4:	0107a823          	sw	a6,16(a5)
    9ae8:	00a7aa23          	sw	a0,20(a5)
    9aec:	00b7ac23          	sw	a1,24(a5)
    9af0:	00c7ae23          	sw	a2,28(a5)
    9af4:	02d7a023          	sw	a3,32(a5)
    9af8:	02e7a223          	sw	a4,36(a5)
    9afc:	0000f7b7          	lui	a5,0xf
    9b00:	00100713          	li	a4,1
    9b04:	aae7a823          	sw	a4,-1360(a5) # eab0 <has_last_board>
    9b08:	ff9f60ef          	jal	b00 <io_vga_flush_pixels>
    9b0c:	00000013          	nop
    9b10:	07c12083          	lw	ra,124(sp)
    9b14:	07812403          	lw	s0,120(sp)
    9b18:	07412483          	lw	s1,116(sp)
    9b1c:	08010113          	add	sp,sp,128
    9b20:	00008067          	ret

00009b24 <wrap_around>:
    9b24:	fe010113          	add	sp,sp,-32
    9b28:	00812e23          	sw	s0,28(sp)
    9b2c:	02010413          	add	s0,sp,32
    9b30:	fea42623          	sw	a0,-20(s0)
    9b34:	feb42423          	sw	a1,-24(s0)
    9b38:	fec42223          	sw	a2,-28(s0)
    9b3c:	fec42783          	lw	a5,-20(s0)
    9b40:	41f7d713          	sra	a4,a5,0x1f
    9b44:	00777713          	and	a4,a4,7
    9b48:	00f707b3          	add	a5,a4,a5
    9b4c:	4037d793          	sra	a5,a5,0x3
    9b50:	00078693          	mv	a3,a5
    9b54:	fe842783          	lw	a5,-24(s0)
    9b58:	41f7d713          	sra	a4,a5,0x1f
    9b5c:	00777713          	and	a4,a4,7
    9b60:	00f707b3          	add	a5,a4,a5
    9b64:	4037d793          	sra	a5,a5,0x3
    9b68:	40f007b3          	neg	a5,a5
    9b6c:	00f68733          	add	a4,a3,a5
    9b70:	41f75793          	sra	a5,a4,0x1f
    9b74:	00e7c733          	xor	a4,a5,a4
    9b78:	40f70733          	sub	a4,a4,a5
    9b7c:	fec42683          	lw	a3,-20(s0)
    9b80:	41f6d793          	sra	a5,a3,0x1f
    9b84:	01d7d793          	srl	a5,a5,0x1d
    9b88:	00f686b3          	add	a3,a3,a5
    9b8c:	0076f693          	and	a3,a3,7
    9b90:	40f687b3          	sub	a5,a3,a5
    9b94:	00078613          	mv	a2,a5
    9b98:	fe842683          	lw	a3,-24(s0)
    9b9c:	41f6d793          	sra	a5,a3,0x1f
    9ba0:	01d7d793          	srl	a5,a5,0x1d
    9ba4:	00f686b3          	add	a3,a3,a5
    9ba8:	0076f693          	and	a3,a3,7
    9bac:	40f687b3          	sub	a5,a3,a5
    9bb0:	40f607b3          	sub	a5,a2,a5
    9bb4:	41f7d693          	sra	a3,a5,0x1f
    9bb8:	00f6c7b3          	xor	a5,a3,a5
    9bbc:	40d787b3          	sub	a5,a5,a3
    9bc0:	00f707b3          	add	a5,a4,a5
    9bc4:	fe442703          	lw	a4,-28(s0)
    9bc8:	00f727b3          	slt	a5,a4,a5
    9bcc:	0ff7f793          	zext.b	a5,a5
    9bd0:	00078513          	mv	a0,a5
    9bd4:	01c12403          	lw	s0,28(sp)
    9bd8:	02010113          	add	sp,sp,32
    9bdc:	00008067          	ret

00009be0 <valid_tile_offset>:
    9be0:	fe010113          	add	sp,sp,-32
    9be4:	00112e23          	sw	ra,28(sp)
    9be8:	00812c23          	sw	s0,24(sp)
    9bec:	02010413          	add	s0,sp,32
    9bf0:	fea42623          	sw	a0,-20(s0)
    9bf4:	feb42423          	sw	a1,-24(s0)
    9bf8:	fe842783          	lw	a5,-24(s0)
    9bfc:	0207c863          	bltz	a5,9c2c <valid_tile_offset+0x4c>
    9c00:	fe842703          	lw	a4,-24(s0)
    9c04:	03f00793          	li	a5,63
    9c08:	02e7c263          	blt	a5,a4,9c2c <valid_tile_offset+0x4c>
    9c0c:	00300613          	li	a2,3
    9c10:	fe842583          	lw	a1,-24(s0)
    9c14:	fec42503          	lw	a0,-20(s0)
    9c18:	f0dff0ef          	jal	9b24 <wrap_around>
    9c1c:	00050793          	mv	a5,a0
    9c20:	00079663          	bnez	a5,9c2c <valid_tile_offset+0x4c>
    9c24:	00100793          	li	a5,1
    9c28:	0080006f          	j	9c30 <valid_tile_offset+0x50>
    9c2c:	00000793          	li	a5,0
    9c30:	00078513          	mv	a0,a5
    9c34:	01c12083          	lw	ra,28(sp)
    9c38:	01812403          	lw	s0,24(sp)
    9c3c:	02010113          	add	sp,sp,32
    9c40:	00008067          	ret

00009c44 <occupied_tile>:
    9c44:	fd010113          	add	sp,sp,-48
    9c48:	02812623          	sw	s0,44(sp)
    9c4c:	03010413          	add	s0,sp,48
    9c50:	fca42e23          	sw	a0,-36(s0)
    9c54:	fcb42c23          	sw	a1,-40(s0)
    9c58:	fe042623          	sw	zero,-20(s0)
    9c5c:	fe042423          	sw	zero,-24(s0)
    9c60:	0800006f          	j	9ce0 <occupied_tile+0x9c>
    9c64:	fe842683          	lw	a3,-24(s0)
    9c68:	00369693          	sll	a3,a3,0x3
    9c6c:	fdc42603          	lw	a2,-36(s0)
    9c70:	00d606b3          	add	a3,a2,a3
    9c74:	0006a603          	lw	a2,0(a3)
    9c78:	0046a683          	lw	a3,4(a3)
    9c7c:	fd842583          	lw	a1,-40(s0)
    9c80:	fe058513          	add	a0,a1,-32
    9c84:	00054863          	bltz	a0,9c94 <occupied_tile+0x50>
    9c88:	00a6d733          	srl	a4,a3,a0
    9c8c:	00000793          	li	a5,0
    9c90:	0200006f          	j	9cb0 <occupied_tile+0x6c>
    9c94:	00169313          	sll	t1,a3,0x1
    9c98:	01f00513          	li	a0,31
    9c9c:	40b50533          	sub	a0,a0,a1
    9ca0:	00a31533          	sll	a0,t1,a0
    9ca4:	00b65733          	srl	a4,a2,a1
    9ca8:	00e56733          	or	a4,a0,a4
    9cac:	00b6d7b3          	srl	a5,a3,a1
    9cb0:	00177813          	and	a6,a4,1
    9cb4:	0007f893          	and	a7,a5,0
    9cb8:	011866b3          	or	a3,a6,a7
    9cbc:	00d036b3          	snez	a3,a3
    9cc0:	0ff6f693          	zext.b	a3,a3
    9cc4:	00068613          	mv	a2,a3
    9cc8:	fec42683          	lw	a3,-20(s0)
    9ccc:	00c6e6b3          	or	a3,a3,a2
    9cd0:	fed42623          	sw	a3,-20(s0)
    9cd4:	fe842683          	lw	a3,-24(s0)
    9cd8:	00168693          	add	a3,a3,1
    9cdc:	fed42423          	sw	a3,-24(s0)
    9ce0:	fe842603          	lw	a2,-24(s0)
    9ce4:	00500693          	li	a3,5
    9ce8:	f6c6fee3          	bgeu	a3,a2,9c64 <occupied_tile+0x20>
    9cec:	fec42783          	lw	a5,-20(s0)
    9cf0:	00078513          	mv	a0,a5
    9cf4:	02c12403          	lw	s0,44(sp)
    9cf8:	03010113          	add	sp,sp,48
    9cfc:	00008067          	ret

00009d00 <get_player_board>:
    9d00:	fe010113          	add	sp,sp,-32
    9d04:	00812e23          	sw	s0,28(sp)
    9d08:	02010413          	add	s0,sp,32
    9d0c:	fea42623          	sw	a0,-20(s0)
    9d10:	fec42783          	lw	a5,-20(s0)
    9d14:	27c7a703          	lw	a4,636(a5)
    9d18:	00100793          	li	a5,1
    9d1c:	00f71863          	bne	a4,a5,9d2c <get_player_board+0x2c>
    9d20:	fec42783          	lw	a5,-20(s0)
    9d24:	03078793          	add	a5,a5,48
    9d28:	0080006f          	j	9d30 <get_player_board+0x30>
    9d2c:	fec42783          	lw	a5,-20(s0)
    9d30:	00078513          	mv	a0,a5
    9d34:	01c12403          	lw	s0,28(sp)
    9d38:	02010113          	add	sp,sp,32
    9d3c:	00008067          	ret

00009d40 <get_enemy_board>:
    9d40:	fe010113          	add	sp,sp,-32
    9d44:	00812e23          	sw	s0,28(sp)
    9d48:	02010413          	add	s0,sp,32
    9d4c:	fea42623          	sw	a0,-20(s0)
    9d50:	fec42783          	lw	a5,-20(s0)
    9d54:	27c7a703          	lw	a4,636(a5)
    9d58:	00100793          	li	a5,1
    9d5c:	00f71663          	bne	a4,a5,9d68 <get_enemy_board+0x28>
    9d60:	fec42783          	lw	a5,-20(s0)
    9d64:	00c0006f          	j	9d70 <get_enemy_board+0x30>
    9d68:	fec42783          	lw	a5,-20(s0)
    9d6c:	03078793          	add	a5,a5,48
    9d70:	00078513          	mv	a0,a5
    9d74:	01c12403          	lw	s0,28(sp)
    9d78:	02010113          	add	sp,sp,32
    9d7c:	00008067          	ret

00009d80 <tile_attacked>:
    9d80:	f6010113          	add	sp,sp,-160
    9d84:	08112e23          	sw	ra,156(sp)
    9d88:	08812c23          	sw	s0,152(sp)
    9d8c:	09212a23          	sw	s2,148(sp)
    9d90:	09312823          	sw	s3,144(sp)
    9d94:	09412623          	sw	s4,140(sp)
    9d98:	09512423          	sw	s5,136(sp)
    9d9c:	09612223          	sw	s6,132(sp)
    9da0:	09712023          	sw	s7,128(sp)
    9da4:	07812e23          	sw	s8,124(sp)
    9da8:	07912c23          	sw	s9,120(sp)
    9dac:	07a12a23          	sw	s10,116(sp)
    9db0:	07b12823          	sw	s11,112(sp)
    9db4:	0a010413          	add	s0,sp,160
    9db8:	f8a42e23          	sw	a0,-100(s0)
    9dbc:	f8b42c23          	sw	a1,-104(s0)
    9dc0:	f9c42783          	lw	a5,-100(s0)
    9dc4:	27c7a703          	lw	a4,636(a5)
    9dc8:	00100793          	li	a5,1
    9dcc:	00f71663          	bne	a4,a5,9dd8 <tile_attacked+0x58>
    9dd0:	ff900793          	li	a5,-7
    9dd4:	0080006f          	j	9ddc <tile_attacked+0x5c>
    9dd8:	00700793          	li	a5,7
    9ddc:	f9842703          	lw	a4,-104(s0)
    9de0:	00e787b3          	add	a5,a5,a4
    9de4:	faf42c23          	sw	a5,-72(s0)
    9de8:	f9c42783          	lw	a5,-100(s0)
    9dec:	27c7a703          	lw	a4,636(a5)
    9df0:	00100793          	li	a5,1
    9df4:	00f71663          	bne	a4,a5,9e00 <tile_attacked+0x80>
    9df8:	ff700793          	li	a5,-9
    9dfc:	0080006f          	j	9e04 <tile_attacked+0x84>
    9e00:	00900793          	li	a5,9
    9e04:	f9842703          	lw	a4,-104(s0)
    9e08:	00e787b3          	add	a5,a5,a4
    9e0c:	faf42a23          	sw	a5,-76(s0)
    9e10:	fb842583          	lw	a1,-72(s0)
    9e14:	f9842503          	lw	a0,-104(s0)
    9e18:	dc9ff0ef          	jal	9be0 <valid_tile_offset>
    9e1c:	00050793          	mv	a5,a0
    9e20:	0a078263          	beqz	a5,9ec4 <tile_attacked+0x144>
    9e24:	f9c42503          	lw	a0,-100(s0)
    9e28:	f19ff0ef          	jal	9d40 <get_enemy_board>
    9e2c:	00050793          	mv	a5,a0
    9e30:	0007a703          	lw	a4,0(a5)
    9e34:	0047a783          	lw	a5,4(a5)
    9e38:	00070613          	mv	a2,a4
    9e3c:	00078693          	mv	a3,a5
    9e40:	fb842703          	lw	a4,-72(s0)
    9e44:	fe070793          	add	a5,a4,-32 # 7ffffe0 <_stack_end+0x7eef098>
    9e48:	0007ca63          	bltz	a5,9e5c <tile_attacked+0xdc>
    9e4c:	00f6d7b3          	srl	a5,a3,a5
    9e50:	f8f42823          	sw	a5,-112(s0)
    9e54:	f8042a23          	sw	zero,-108(s0)
    9e58:	0300006f          	j	9e88 <tile_attacked+0x108>
    9e5c:	00169593          	sll	a1,a3,0x1
    9e60:	01f00793          	li	a5,31
    9e64:	40e787b3          	sub	a5,a5,a4
    9e68:	00f597b3          	sll	a5,a1,a5
    9e6c:	00e655b3          	srl	a1,a2,a4
    9e70:	f8b42823          	sw	a1,-112(s0)
    9e74:	f9042583          	lw	a1,-112(s0)
    9e78:	00b7e7b3          	or	a5,a5,a1
    9e7c:	f8f42823          	sw	a5,-112(s0)
    9e80:	00e6d7b3          	srl	a5,a3,a4
    9e84:	f8f42a23          	sw	a5,-108(s0)
    9e88:	f9042683          	lw	a3,-112(s0)
    9e8c:	f9442703          	lw	a4,-108(s0)
    9e90:	00068793          	mv	a5,a3
    9e94:	0017f793          	and	a5,a5,1
    9e98:	f8f42423          	sw	a5,-120(s0)
    9e9c:	00070793          	mv	a5,a4
    9ea0:	0007f793          	and	a5,a5,0
    9ea4:	f8f42623          	sw	a5,-116(s0)
    9ea8:	f8842683          	lw	a3,-120(s0)
    9eac:	f8c42703          	lw	a4,-116(s0)
    9eb0:	00068793          	mv	a5,a3
    9eb4:	00e7e7b3          	or	a5,a5,a4
    9eb8:	00078663          	beqz	a5,9ec4 <tile_attacked+0x144>
    9ebc:	00100793          	li	a5,1
    9ec0:	4180006f          	j	a2d8 <tile_attacked+0x558>
    9ec4:	fb442583          	lw	a1,-76(s0)
    9ec8:	f9842503          	lw	a0,-104(s0)
    9ecc:	d15ff0ef          	jal	9be0 <valid_tile_offset>
    9ed0:	00050793          	mv	a5,a0
    9ed4:	06078c63          	beqz	a5,9f4c <tile_attacked+0x1cc>
    9ed8:	f9c42503          	lw	a0,-100(s0)
    9edc:	e65ff0ef          	jal	9d40 <get_enemy_board>
    9ee0:	00050793          	mv	a5,a0
    9ee4:	0007a703          	lw	a4,0(a5)
    9ee8:	0047a783          	lw	a5,4(a5)
    9eec:	fb442683          	lw	a3,-76(s0)
    9ef0:	fe068613          	add	a2,a3,-32
    9ef4:	00064863          	bltz	a2,9f04 <tile_attacked+0x184>
    9ef8:	00c7dd33          	srl	s10,a5,a2
    9efc:	00000d93          	li	s11,0
    9f00:	0200006f          	j	9f20 <tile_attacked+0x1a0>
    9f04:	00179593          	sll	a1,a5,0x1
    9f08:	01f00613          	li	a2,31
    9f0c:	40d60633          	sub	a2,a2,a3
    9f10:	00c59633          	sll	a2,a1,a2
    9f14:	00d75d33          	srl	s10,a4,a3
    9f18:	01a66d33          	or	s10,a2,s10
    9f1c:	00d7ddb3          	srl	s11,a5,a3
    9f20:	001d7793          	and	a5,s10,1
    9f24:	f8f42023          	sw	a5,-128(s0)
    9f28:	000df793          	and	a5,s11,0
    9f2c:	f8f42223          	sw	a5,-124(s0)
    9f30:	f8042683          	lw	a3,-128(s0)
    9f34:	f8442703          	lw	a4,-124(s0)
    9f38:	00068793          	mv	a5,a3
    9f3c:	00e7e7b3          	or	a5,a5,a4
    9f40:	00078663          	beqz	a5,9f4c <tile_attacked+0x1cc>
    9f44:	00100793          	li	a5,1
    9f48:	3900006f          	j	a2d8 <tile_attacked+0x558>
    9f4c:	fc042623          	sw	zero,-52(s0)
    9f50:	0c00006f          	j	a010 <tile_attacked+0x290>
    9f54:	000117b7          	lui	a5,0x11
    9f58:	cf078713          	add	a4,a5,-784 # 10cf0 <knight_move_offsets>
    9f5c:	fcc42783          	lw	a5,-52(s0)
    9f60:	00279793          	sll	a5,a5,0x2
    9f64:	00f707b3          	add	a5,a4,a5
    9f68:	0007a783          	lw	a5,0(a5)
    9f6c:	f9842703          	lw	a4,-104(s0)
    9f70:	00f707b3          	add	a5,a4,a5
    9f74:	faf42623          	sw	a5,-84(s0)
    9f78:	fac42583          	lw	a1,-84(s0)
    9f7c:	f9842503          	lw	a0,-104(s0)
    9f80:	c61ff0ef          	jal	9be0 <valid_tile_offset>
    9f84:	00050793          	mv	a5,a0
    9f88:	06078e63          	beqz	a5,a004 <tile_attacked+0x284>
    9f8c:	f9c42503          	lw	a0,-100(s0)
    9f90:	db1ff0ef          	jal	9d40 <get_enemy_board>
    9f94:	00050793          	mv	a5,a0
    9f98:	00878793          	add	a5,a5,8
    9f9c:	0007a703          	lw	a4,0(a5)
    9fa0:	0047a783          	lw	a5,4(a5)
    9fa4:	fac42683          	lw	a3,-84(s0)
    9fa8:	fe068613          	add	a2,a3,-32
    9fac:	00064863          	bltz	a2,9fbc <tile_attacked+0x23c>
    9fb0:	00c7dc33          	srl	s8,a5,a2
    9fb4:	00000c93          	li	s9,0
    9fb8:	0200006f          	j	9fd8 <tile_attacked+0x258>
    9fbc:	00179593          	sll	a1,a5,0x1
    9fc0:	01f00613          	li	a2,31
    9fc4:	40d60633          	sub	a2,a2,a3
    9fc8:	00c59633          	sll	a2,a1,a2
    9fcc:	00d75c33          	srl	s8,a4,a3
    9fd0:	01866c33          	or	s8,a2,s8
    9fd4:	00d7dcb3          	srl	s9,a5,a3
    9fd8:	001c7793          	and	a5,s8,1
    9fdc:	f6f42c23          	sw	a5,-136(s0)
    9fe0:	000cf793          	and	a5,s9,0
    9fe4:	f6f42e23          	sw	a5,-132(s0)
    9fe8:	f7842683          	lw	a3,-136(s0)
    9fec:	f7c42703          	lw	a4,-132(s0)
    9ff0:	00068793          	mv	a5,a3
    9ff4:	00e7e7b3          	or	a5,a5,a4
    9ff8:	00078663          	beqz	a5,a004 <tile_attacked+0x284>
    9ffc:	00100793          	li	a5,1
    a000:	2d80006f          	j	a2d8 <tile_attacked+0x558>
    a004:	fcc42783          	lw	a5,-52(s0)
    a008:	00178793          	add	a5,a5,1
    a00c:	fcf42623          	sw	a5,-52(s0)
    a010:	fcc42703          	lw	a4,-52(s0)
    a014:	00700793          	li	a5,7
    a018:	f2e7dee3          	bge	a5,a4,9f54 <tile_attacked+0x1d4>
    a01c:	00200793          	li	a5,2
    a020:	faf42223          	sw	a5,-92(s0)
    a024:	00300793          	li	a5,3
    a028:	faf42423          	sw	a5,-88(s0)
    a02c:	fc042423          	sw	zero,-56(s0)
    a030:	1c80006f          	j	a1f8 <tile_attacked+0x478>
    a034:	fc042223          	sw	zero,-60(s0)
    a038:	1a80006f          	j	a1e0 <tile_attacked+0x460>
    a03c:	f9842783          	lw	a5,-104(s0)
    a040:	fcf42023          	sw	a5,-64(s0)
    a044:	000117b7          	lui	a5,0x11
    a048:	d1078713          	add	a4,a5,-752 # 10d10 <sliding_piece_move_offsets>
    a04c:	fc842783          	lw	a5,-56(s0)
    a050:	00279693          	sll	a3,a5,0x2
    a054:	fc442783          	lw	a5,-60(s0)
    a058:	00f687b3          	add	a5,a3,a5
    a05c:	00279793          	sll	a5,a5,0x2
    a060:	00f707b3          	add	a5,a4,a5
    a064:	0007a783          	lw	a5,0(a5)
    a068:	fc042703          	lw	a4,-64(s0)
    a06c:	00f707b3          	add	a5,a4,a5
    a070:	fcf42023          	sw	a5,-64(s0)
    a074:	000117b7          	lui	a5,0x11
    a078:	d1078713          	add	a4,a5,-752 # 10d10 <sliding_piece_move_offsets>
    a07c:	fc842783          	lw	a5,-56(s0)
    a080:	00279693          	sll	a3,a5,0x2
    a084:	fc442783          	lw	a5,-60(s0)
    a088:	00f687b3          	add	a5,a3,a5
    a08c:	00279793          	sll	a5,a5,0x2
    a090:	00f707b3          	add	a5,a4,a5
    a094:	0007a783          	lw	a5,0(a5)
    a098:	fc042703          	lw	a4,-64(s0)
    a09c:	40f707b3          	sub	a5,a4,a5
    a0a0:	fc042583          	lw	a1,-64(s0)
    a0a4:	00078513          	mv	a0,a5
    a0a8:	b39ff0ef          	jal	9be0 <valid_tile_offset>
    a0ac:	00050793          	mv	a5,a0
    a0b0:	12078263          	beqz	a5,a1d4 <tile_attacked+0x454>
    a0b4:	f9c42503          	lw	a0,-100(s0)
    a0b8:	c49ff0ef          	jal	9d00 <get_player_board>
    a0bc:	00050793          	mv	a5,a0
    a0c0:	fc042583          	lw	a1,-64(s0)
    a0c4:	00078513          	mv	a0,a5
    a0c8:	b7dff0ef          	jal	9c44 <occupied_tile>
    a0cc:	00050793          	mv	a5,a0
    a0d0:	10079263          	bnez	a5,a1d4 <tile_attacked+0x454>
    a0d4:	f9c42503          	lw	a0,-100(s0)
    a0d8:	c69ff0ef          	jal	9d40 <get_enemy_board>
    a0dc:	00050713          	mv	a4,a0
    a0e0:	fc842783          	lw	a5,-56(s0)
    a0e4:	00279793          	sll	a5,a5,0x2
    a0e8:	fd078793          	add	a5,a5,-48
    a0ec:	008787b3          	add	a5,a5,s0
    a0f0:	fd47a783          	lw	a5,-44(a5)
    a0f4:	00379793          	sll	a5,a5,0x3
    a0f8:	00f707b3          	add	a5,a4,a5
    a0fc:	0007a703          	lw	a4,0(a5)
    a100:	0047a783          	lw	a5,4(a5)
    a104:	fc042683          	lw	a3,-64(s0)
    a108:	fe068613          	add	a2,a3,-32
    a10c:	00064863          	bltz	a2,a11c <tile_attacked+0x39c>
    a110:	00c7da33          	srl	s4,a5,a2
    a114:	00000a93          	li	s5,0
    a118:	0200006f          	j	a138 <tile_attacked+0x3b8>
    a11c:	00179593          	sll	a1,a5,0x1
    a120:	01f00613          	li	a2,31
    a124:	40d60633          	sub	a2,a2,a3
    a128:	00c59633          	sll	a2,a1,a2
    a12c:	00d75a33          	srl	s4,a4,a3
    a130:	01466a33          	or	s4,a2,s4
    a134:	00d7dab3          	srl	s5,a5,a3
    a138:	001a7793          	and	a5,s4,1
    a13c:	f6f42823          	sw	a5,-144(s0)
    a140:	000af793          	and	a5,s5,0
    a144:	f6f42a23          	sw	a5,-140(s0)
    a148:	f7042683          	lw	a3,-144(s0)
    a14c:	f7442703          	lw	a4,-140(s0)
    a150:	00068793          	mv	a5,a3
    a154:	00e7e7b3          	or	a5,a5,a4
    a158:	06079a63          	bnez	a5,a1cc <tile_attacked+0x44c>
    a15c:	f9c42503          	lw	a0,-100(s0)
    a160:	be1ff0ef          	jal	9d40 <get_enemy_board>
    a164:	00050793          	mv	a5,a0
    a168:	02078793          	add	a5,a5,32
    a16c:	0007a703          	lw	a4,0(a5)
    a170:	0047a783          	lw	a5,4(a5)
    a174:	fc042683          	lw	a3,-64(s0)
    a178:	fe068613          	add	a2,a3,-32
    a17c:	00064863          	bltz	a2,a18c <tile_attacked+0x40c>
    a180:	00c7db33          	srl	s6,a5,a2
    a184:	00000b93          	li	s7,0
    a188:	0200006f          	j	a1a8 <tile_attacked+0x428>
    a18c:	00179593          	sll	a1,a5,0x1
    a190:	01f00613          	li	a2,31
    a194:	40d60633          	sub	a2,a2,a3
    a198:	00c59633          	sll	a2,a1,a2
    a19c:	00d75b33          	srl	s6,a4,a3
    a1a0:	01666b33          	or	s6,a2,s6
    a1a4:	00d7dbb3          	srl	s7,a5,a3
    a1a8:	001b7793          	and	a5,s6,1
    a1ac:	f6f42423          	sw	a5,-152(s0)
    a1b0:	000bf793          	and	a5,s7,0
    a1b4:	f6f42623          	sw	a5,-148(s0)
    a1b8:	f6842683          	lw	a3,-152(s0)
    a1bc:	f6c42703          	lw	a4,-148(s0)
    a1c0:	00068793          	mv	a5,a3
    a1c4:	00e7e7b3          	or	a5,a5,a4
    a1c8:	e6078ee3          	beqz	a5,a044 <tile_attacked+0x2c4>
    a1cc:	00100793          	li	a5,1
    a1d0:	1080006f          	j	a2d8 <tile_attacked+0x558>
    a1d4:	fc442783          	lw	a5,-60(s0)
    a1d8:	00178793          	add	a5,a5,1
    a1dc:	fcf42223          	sw	a5,-60(s0)
    a1e0:	fc442703          	lw	a4,-60(s0)
    a1e4:	00300793          	li	a5,3
    a1e8:	e4e7dae3          	bge	a5,a4,a03c <tile_attacked+0x2bc>
    a1ec:	fc842783          	lw	a5,-56(s0)
    a1f0:	00178793          	add	a5,a5,1
    a1f4:	fcf42423          	sw	a5,-56(s0)
    a1f8:	fc842703          	lw	a4,-56(s0)
    a1fc:	00100793          	li	a5,1
    a200:	e2e7dae3          	bge	a5,a4,a034 <tile_attacked+0x2b4>
    a204:	fa042e23          	sw	zero,-68(s0)
    a208:	0c00006f          	j	a2c8 <tile_attacked+0x548>
    a20c:	000117b7          	lui	a5,0x11
    a210:	d3078713          	add	a4,a5,-720 # 10d30 <king_move_offsets>
    a214:	fbc42783          	lw	a5,-68(s0)
    a218:	00279793          	sll	a5,a5,0x2
    a21c:	00f707b3          	add	a5,a4,a5
    a220:	0007a783          	lw	a5,0(a5)
    a224:	f9842703          	lw	a4,-104(s0)
    a228:	00f707b3          	add	a5,a4,a5
    a22c:	faf42823          	sw	a5,-80(s0)
    a230:	fb042583          	lw	a1,-80(s0)
    a234:	f9842503          	lw	a0,-104(s0)
    a238:	9a9ff0ef          	jal	9be0 <valid_tile_offset>
    a23c:	00050793          	mv	a5,a0
    a240:	06078e63          	beqz	a5,a2bc <tile_attacked+0x53c>
    a244:	f9c42503          	lw	a0,-100(s0)
    a248:	af9ff0ef          	jal	9d40 <get_enemy_board>
    a24c:	00050793          	mv	a5,a0
    a250:	02878793          	add	a5,a5,40
    a254:	0007a703          	lw	a4,0(a5)
    a258:	0047a783          	lw	a5,4(a5)
    a25c:	fb042683          	lw	a3,-80(s0)
    a260:	fe068613          	add	a2,a3,-32
    a264:	00064863          	bltz	a2,a274 <tile_attacked+0x4f4>
    a268:	00c7d933          	srl	s2,a5,a2
    a26c:	00000993          	li	s3,0
    a270:	0200006f          	j	a290 <tile_attacked+0x510>
    a274:	00179593          	sll	a1,a5,0x1
    a278:	01f00613          	li	a2,31
    a27c:	40d60633          	sub	a2,a2,a3
    a280:	00c59633          	sll	a2,a1,a2
    a284:	00d75933          	srl	s2,a4,a3
    a288:	01266933          	or	s2,a2,s2
    a28c:	00d7d9b3          	srl	s3,a5,a3
    a290:	00197793          	and	a5,s2,1
    a294:	f6f42023          	sw	a5,-160(s0)
    a298:	0009f793          	and	a5,s3,0
    a29c:	f6f42223          	sw	a5,-156(s0)
    a2a0:	f6042683          	lw	a3,-160(s0)
    a2a4:	f6442703          	lw	a4,-156(s0)
    a2a8:	00068793          	mv	a5,a3
    a2ac:	00e7e7b3          	or	a5,a5,a4
    a2b0:	00078663          	beqz	a5,a2bc <tile_attacked+0x53c>
    a2b4:	00100793          	li	a5,1
    a2b8:	0200006f          	j	a2d8 <tile_attacked+0x558>
    a2bc:	fbc42783          	lw	a5,-68(s0)
    a2c0:	00178793          	add	a5,a5,1
    a2c4:	faf42e23          	sw	a5,-68(s0)
    a2c8:	fbc42703          	lw	a4,-68(s0)
    a2cc:	00700793          	li	a5,7
    a2d0:	f2e7dee3          	bge	a5,a4,a20c <tile_attacked+0x48c>
    a2d4:	00000793          	li	a5,0
    a2d8:	00078513          	mv	a0,a5
    a2dc:	09c12083          	lw	ra,156(sp)
    a2e0:	09812403          	lw	s0,152(sp)
    a2e4:	09412903          	lw	s2,148(sp)
    a2e8:	09012983          	lw	s3,144(sp)
    a2ec:	08c12a03          	lw	s4,140(sp)
    a2f0:	08812a83          	lw	s5,136(sp)
    a2f4:	08412b03          	lw	s6,132(sp)
    a2f8:	08012b83          	lw	s7,128(sp)
    a2fc:	07c12c03          	lw	s8,124(sp)
    a300:	07812c83          	lw	s9,120(sp)
    a304:	07412d03          	lw	s10,116(sp)
    a308:	07012d83          	lw	s11,112(sp)
    a30c:	0a010113          	add	sp,sp,160
    a310:	00008067          	ret

0000a314 <king_in_check>:
    a314:	fc010113          	add	sp,sp,-64
    a318:	02112e23          	sw	ra,60(sp)
    a31c:	02812c23          	sw	s0,56(sp)
    a320:	03212a23          	sw	s2,52(sp)
    a324:	03312823          	sw	s3,48(sp)
    a328:	03412623          	sw	s4,44(sp)
    a32c:	03512423          	sw	s5,40(sp)
    a330:	04010413          	add	s0,sp,64
    a334:	fca42623          	sw	a0,-52(s0)
    a338:	fc042e23          	sw	zero,-36(s0)
    a33c:	fcc42503          	lw	a0,-52(s0)
    a340:	9c1ff0ef          	jal	9d00 <get_player_board>
    a344:	00050793          	mv	a5,a0
    a348:	02878793          	add	a5,a5,40
    a34c:	0007a703          	lw	a4,0(a5)
    a350:	0047a783          	lw	a5,4(a5)
    a354:	fdc42683          	lw	a3,-36(s0)
    a358:	fe068613          	add	a2,a3,-32
    a35c:	00064863          	bltz	a2,a36c <king_in_check+0x58>
    a360:	00c7d933          	srl	s2,a5,a2
    a364:	00000993          	li	s3,0
    a368:	0200006f          	j	a388 <king_in_check+0x74>
    a36c:	00179593          	sll	a1,a5,0x1
    a370:	01f00613          	li	a2,31
    a374:	40d60633          	sub	a2,a2,a3
    a378:	00c59633          	sll	a2,a1,a2
    a37c:	00d75933          	srl	s2,a4,a3
    a380:	01266933          	or	s2,a2,s2
    a384:	00d7d9b3          	srl	s3,a5,a3
    a388:	00197a13          	and	s4,s2,1
    a38c:	0009fa93          	and	s5,s3,0
    a390:	000a0793          	mv	a5,s4
    a394:	0157e7b3          	or	a5,a5,s5
    a398:	00078863          	beqz	a5,a3a8 <king_in_check+0x94>
    a39c:	fdc42783          	lw	a5,-36(s0)
    a3a0:	fcf42c23          	sw	a5,-40(s0)
    a3a4:	0140006f          	j	a3b8 <king_in_check+0xa4>
    a3a8:	fdc42783          	lw	a5,-36(s0)
    a3ac:	00178793          	add	a5,a5,1
    a3b0:	fcf42e23          	sw	a5,-36(s0)
    a3b4:	f89ff06f          	j	a33c <king_in_check+0x28>
    a3b8:	fd842583          	lw	a1,-40(s0)
    a3bc:	fcc42503          	lw	a0,-52(s0)
    a3c0:	9c1ff0ef          	jal	9d80 <tile_attacked>
    a3c4:	00050793          	mv	a5,a0
    a3c8:	00078513          	mv	a0,a5
    a3cc:	03c12083          	lw	ra,60(sp)
    a3d0:	03812403          	lw	s0,56(sp)
    a3d4:	03412903          	lw	s2,52(sp)
    a3d8:	03012983          	lw	s3,48(sp)
    a3dc:	02c12a03          	lw	s4,44(sp)
    a3e0:	02812a83          	lw	s5,40(sp)
    a3e4:	04010113          	add	sp,sp,64
    a3e8:	00008067          	ret

0000a3ec <generate_pawn_moves>:
    a3ec:	f9010113          	add	sp,sp,-112
    a3f0:	06112623          	sw	ra,108(sp)
    a3f4:	06812423          	sw	s0,104(sp)
    a3f8:	07212223          	sw	s2,100(sp)
    a3fc:	07312023          	sw	s3,96(sp)
    a400:	05412e23          	sw	s4,92(sp)
    a404:	05512c23          	sw	s5,88(sp)
    a408:	05612a23          	sw	s6,84(sp)
    a40c:	05712823          	sw	s7,80(sp)
    a410:	05812623          	sw	s8,76(sp)
    a414:	05912423          	sw	s9,72(sp)
    a418:	05a12223          	sw	s10,68(sp)
    a41c:	05b12023          	sw	s11,64(sp)
    a420:	07010413          	add	s0,sp,112
    a424:	faa42623          	sw	a0,-84(s0)
    a428:	fab42423          	sw	a1,-88(s0)
    a42c:	fac42783          	lw	a5,-84(s0)
    a430:	27c7a703          	lw	a4,636(a5)
    a434:	00100793          	li	a5,1
    a438:	02f71463          	bne	a4,a5,a460 <generate_pawn_moves+0x74>
    a43c:	00600793          	li	a5,6
    a440:	fcf42623          	sw	a5,-52(s0)
    a444:	ff800793          	li	a5,-8
    a448:	fcf42423          	sw	a5,-56(s0)
    a44c:	ff700793          	li	a5,-9
    a450:	fcf42223          	sw	a5,-60(s0)
    a454:	ff900793          	li	a5,-7
    a458:	fcf42023          	sw	a5,-64(s0)
    a45c:	0240006f          	j	a480 <generate_pawn_moves+0x94>
    a460:	00100793          	li	a5,1
    a464:	fcf42623          	sw	a5,-52(s0)
    a468:	00800793          	li	a5,8
    a46c:	fcf42423          	sw	a5,-56(s0)
    a470:	00900793          	li	a5,9
    a474:	fcf42223          	sw	a5,-60(s0)
    a478:	00700793          	li	a5,7
    a47c:	fcf42023          	sw	a5,-64(s0)
    a480:	fa842703          	lw	a4,-88(s0)
    a484:	fc842783          	lw	a5,-56(s0)
    a488:	00f707b3          	add	a5,a4,a5
    a48c:	faf42e23          	sw	a5,-68(s0)
    a490:	fbc42783          	lw	a5,-68(s0)
    a494:	2007c663          	bltz	a5,a6a0 <generate_pawn_moves+0x2b4>
    a498:	fbc42703          	lw	a4,-68(s0)
    a49c:	03f00793          	li	a5,63
    a4a0:	20e7c063          	blt	a5,a4,a6a0 <generate_pawn_moves+0x2b4>
    a4a4:	fac42503          	lw	a0,-84(s0)
    a4a8:	859ff0ef          	jal	9d00 <get_player_board>
    a4ac:	00050793          	mv	a5,a0
    a4b0:	fbc42583          	lw	a1,-68(s0)
    a4b4:	00078513          	mv	a0,a5
    a4b8:	f8cff0ef          	jal	9c44 <occupied_tile>
    a4bc:	00050793          	mv	a5,a0
    a4c0:	1e079063          	bnez	a5,a6a0 <generate_pawn_moves+0x2b4>
    a4c4:	fac42503          	lw	a0,-84(s0)
    a4c8:	879ff0ef          	jal	9d40 <get_enemy_board>
    a4cc:	00050793          	mv	a5,a0
    a4d0:	fbc42583          	lw	a1,-68(s0)
    a4d4:	00078513          	mv	a0,a5
    a4d8:	f6cff0ef          	jal	9c44 <occupied_tile>
    a4dc:	00050793          	mv	a5,a0
    a4e0:	1c079063          	bnez	a5,a6a0 <generate_pawn_moves+0x2b4>
    a4e4:	fac42703          	lw	a4,-84(s0)
    a4e8:	fa842783          	lw	a5,-88(s0)
    a4ec:	00c78793          	add	a5,a5,12
    a4f0:	00379793          	sll	a5,a5,0x3
    a4f4:	00f707b3          	add	a5,a4,a5
    a4f8:	0007a703          	lw	a4,0(a5)
    a4fc:	0047a783          	lw	a5,4(a5)
    a500:	00070613          	mv	a2,a4
    a504:	00078693          	mv	a3,a5
    a508:	fbc42783          	lw	a5,-68(s0)
    a50c:	fe078713          	add	a4,a5,-32
    a510:	00074a63          	bltz	a4,a524 <generate_pawn_moves+0x138>
    a514:	00100793          	li	a5,1
    a518:	00e79cb3          	sll	s9,a5,a4
    a51c:	00000c13          	li	s8,0
    a520:	02c0006f          	j	a54c <generate_pawn_moves+0x160>
    a524:	00100713          	li	a4,1
    a528:	00175593          	srl	a1,a4,0x1
    a52c:	01f00713          	li	a4,31
    a530:	40f70733          	sub	a4,a4,a5
    a534:	00e5d733          	srl	a4,a1,a4
    a538:	00000593          	li	a1,0
    a53c:	00f59cb3          	sll	s9,a1,a5
    a540:	01976cb3          	or	s9,a4,s9
    a544:	00100713          	li	a4,1
    a548:	00f71c33          	sll	s8,a4,a5
    a54c:	018667b3          	or	a5,a2,s8
    a550:	faf42023          	sw	a5,-96(s0)
    a554:	0196e7b3          	or	a5,a3,s9
    a558:	faf42223          	sw	a5,-92(s0)
    a55c:	fa042703          	lw	a4,-96(s0)
    a560:	fa442783          	lw	a5,-92(s0)
    a564:	fac42603          	lw	a2,-84(s0)
    a568:	fa842683          	lw	a3,-88(s0)
    a56c:	00c68693          	add	a3,a3,12
    a570:	00369693          	sll	a3,a3,0x3
    a574:	00d606b3          	add	a3,a2,a3
    a578:	00e6a023          	sw	a4,0(a3)
    a57c:	00f6a223          	sw	a5,4(a3)
    a580:	fa842783          	lw	a5,-88(s0)
    a584:	41f7d713          	sra	a4,a5,0x1f
    a588:	00777713          	and	a4,a4,7
    a58c:	00f707b3          	add	a5,a4,a5
    a590:	4037d793          	sra	a5,a5,0x3
    a594:	00078713          	mv	a4,a5
    a598:	fcc42783          	lw	a5,-52(s0)
    a59c:	10e79263          	bne	a5,a4,a6a0 <generate_pawn_moves+0x2b4>
    a5a0:	fbc42703          	lw	a4,-68(s0)
    a5a4:	fc842783          	lw	a5,-56(s0)
    a5a8:	00f707b3          	add	a5,a4,a5
    a5ac:	faf42e23          	sw	a5,-68(s0)
    a5b0:	fbc42783          	lw	a5,-68(s0)
    a5b4:	0e07c663          	bltz	a5,a6a0 <generate_pawn_moves+0x2b4>
    a5b8:	fbc42703          	lw	a4,-68(s0)
    a5bc:	03f00793          	li	a5,63
    a5c0:	0ee7c063          	blt	a5,a4,a6a0 <generate_pawn_moves+0x2b4>
    a5c4:	fac42503          	lw	a0,-84(s0)
    a5c8:	f38ff0ef          	jal	9d00 <get_player_board>
    a5cc:	00050793          	mv	a5,a0
    a5d0:	fbc42583          	lw	a1,-68(s0)
    a5d4:	00078513          	mv	a0,a5
    a5d8:	e6cff0ef          	jal	9c44 <occupied_tile>
    a5dc:	00050793          	mv	a5,a0
    a5e0:	0c079063          	bnez	a5,a6a0 <generate_pawn_moves+0x2b4>
    a5e4:	fac42503          	lw	a0,-84(s0)
    a5e8:	f58ff0ef          	jal	9d40 <get_enemy_board>
    a5ec:	00050793          	mv	a5,a0
    a5f0:	fbc42583          	lw	a1,-68(s0)
    a5f4:	00078513          	mv	a0,a5
    a5f8:	e4cff0ef          	jal	9c44 <occupied_tile>
    a5fc:	00050793          	mv	a5,a0
    a600:	0a079063          	bnez	a5,a6a0 <generate_pawn_moves+0x2b4>
    a604:	fac42703          	lw	a4,-84(s0)
    a608:	fa842783          	lw	a5,-88(s0)
    a60c:	00c78793          	add	a5,a5,12
    a610:	00379793          	sll	a5,a5,0x3
    a614:	00f707b3          	add	a5,a4,a5
    a618:	0007a703          	lw	a4,0(a5)
    a61c:	0047a783          	lw	a5,4(a5)
    a620:	00070613          	mv	a2,a4
    a624:	00078693          	mv	a3,a5
    a628:	fbc42783          	lw	a5,-68(s0)
    a62c:	fe078713          	add	a4,a5,-32
    a630:	00074a63          	bltz	a4,a644 <generate_pawn_moves+0x258>
    a634:	00100793          	li	a5,1
    a638:	00e79bb3          	sll	s7,a5,a4
    a63c:	00000b13          	li	s6,0
    a640:	02c0006f          	j	a66c <generate_pawn_moves+0x280>
    a644:	00100713          	li	a4,1
    a648:	00175593          	srl	a1,a4,0x1
    a64c:	01f00713          	li	a4,31
    a650:	40f70733          	sub	a4,a4,a5
    a654:	00e5d733          	srl	a4,a1,a4
    a658:	00000593          	li	a1,0
    a65c:	00f59bb3          	sll	s7,a1,a5
    a660:	01776bb3          	or	s7,a4,s7
    a664:	00100713          	li	a4,1
    a668:	00f71b33          	sll	s6,a4,a5
    a66c:	016667b3          	or	a5,a2,s6
    a670:	f8f42c23          	sw	a5,-104(s0)
    a674:	0176e7b3          	or	a5,a3,s7
    a678:	f8f42e23          	sw	a5,-100(s0)
    a67c:	f9842703          	lw	a4,-104(s0)
    a680:	f9c42783          	lw	a5,-100(s0)
    a684:	fac42603          	lw	a2,-84(s0)
    a688:	fa842683          	lw	a3,-88(s0)
    a68c:	00c68693          	add	a3,a3,12
    a690:	00369693          	sll	a3,a3,0x3
    a694:	00d606b3          	add	a3,a2,a3
    a698:	00e6a023          	sw	a4,0(a3)
    a69c:	00f6a223          	sw	a5,4(a3)
    a6a0:	fa842703          	lw	a4,-88(s0)
    a6a4:	fc442783          	lw	a5,-60(s0)
    a6a8:	00f707b3          	add	a5,a4,a5
    a6ac:	faf42c23          	sw	a5,-72(s0)
    a6b0:	fb842583          	lw	a1,-72(s0)
    a6b4:	fa842503          	lw	a0,-88(s0)
    a6b8:	d28ff0ef          	jal	9be0 <valid_tile_offset>
    a6bc:	00050793          	mv	a5,a0
    a6c0:	0c078863          	beqz	a5,a790 <generate_pawn_moves+0x3a4>
    a6c4:	fac42503          	lw	a0,-84(s0)
    a6c8:	e78ff0ef          	jal	9d40 <get_enemy_board>
    a6cc:	00050793          	mv	a5,a0
    a6d0:	fb842583          	lw	a1,-72(s0)
    a6d4:	00078513          	mv	a0,a5
    a6d8:	d6cff0ef          	jal	9c44 <occupied_tile>
    a6dc:	00050793          	mv	a5,a0
    a6e0:	00079a63          	bnez	a5,a6f4 <generate_pawn_moves+0x308>
    a6e4:	fac42783          	lw	a5,-84(s0)
    a6e8:	2607a783          	lw	a5,608(a5)
    a6ec:	fb842703          	lw	a4,-72(s0)
    a6f0:	0af71063          	bne	a4,a5,a790 <generate_pawn_moves+0x3a4>
    a6f4:	fac42703          	lw	a4,-84(s0)
    a6f8:	fa842783          	lw	a5,-88(s0)
    a6fc:	00c78793          	add	a5,a5,12
    a700:	00379793          	sll	a5,a5,0x3
    a704:	00f707b3          	add	a5,a4,a5
    a708:	0007a703          	lw	a4,0(a5)
    a70c:	0047a783          	lw	a5,4(a5)
    a710:	00070613          	mv	a2,a4
    a714:	00078693          	mv	a3,a5
    a718:	fb842783          	lw	a5,-72(s0)
    a71c:	fe078713          	add	a4,a5,-32
    a720:	00074a63          	bltz	a4,a734 <generate_pawn_moves+0x348>
    a724:	00100793          	li	a5,1
    a728:	00e79ab3          	sll	s5,a5,a4
    a72c:	00000a13          	li	s4,0
    a730:	02c0006f          	j	a75c <generate_pawn_moves+0x370>
    a734:	00100713          	li	a4,1
    a738:	00175593          	srl	a1,a4,0x1
    a73c:	01f00713          	li	a4,31
    a740:	40f70733          	sub	a4,a4,a5
    a744:	00e5d733          	srl	a4,a1,a4
    a748:	00000593          	li	a1,0
    a74c:	00f59ab3          	sll	s5,a1,a5
    a750:	01576ab3          	or	s5,a4,s5
    a754:	00100713          	li	a4,1
    a758:	00f71a33          	sll	s4,a4,a5
    a75c:	014667b3          	or	a5,a2,s4
    a760:	f8f42823          	sw	a5,-112(s0)
    a764:	0156e7b3          	or	a5,a3,s5
    a768:	f8f42a23          	sw	a5,-108(s0)
    a76c:	f9042703          	lw	a4,-112(s0)
    a770:	f9442783          	lw	a5,-108(s0)
    a774:	fac42603          	lw	a2,-84(s0)
    a778:	fa842683          	lw	a3,-88(s0)
    a77c:	00c68693          	add	a3,a3,12
    a780:	00369693          	sll	a3,a3,0x3
    a784:	00d606b3          	add	a3,a2,a3
    a788:	00e6a023          	sw	a4,0(a3)
    a78c:	00f6a223          	sw	a5,4(a3)
    a790:	fa842703          	lw	a4,-88(s0)
    a794:	fc042783          	lw	a5,-64(s0)
    a798:	00f707b3          	add	a5,a4,a5
    a79c:	faf42a23          	sw	a5,-76(s0)
    a7a0:	fb442583          	lw	a1,-76(s0)
    a7a4:	fa842503          	lw	a0,-88(s0)
    a7a8:	c38ff0ef          	jal	9be0 <valid_tile_offset>
    a7ac:	00050793          	mv	a5,a0
    a7b0:	0c078463          	beqz	a5,a878 <generate_pawn_moves+0x48c>
    a7b4:	fac42503          	lw	a0,-84(s0)
    a7b8:	d88ff0ef          	jal	9d40 <get_enemy_board>
    a7bc:	00050793          	mv	a5,a0
    a7c0:	fb442583          	lw	a1,-76(s0)
    a7c4:	00078513          	mv	a0,a5
    a7c8:	c7cff0ef          	jal	9c44 <occupied_tile>
    a7cc:	00050793          	mv	a5,a0
    a7d0:	00079a63          	bnez	a5,a7e4 <generate_pawn_moves+0x3f8>
    a7d4:	fac42783          	lw	a5,-84(s0)
    a7d8:	2607a783          	lw	a5,608(a5)
    a7dc:	fb442703          	lw	a4,-76(s0)
    a7e0:	08f71c63          	bne	a4,a5,a878 <generate_pawn_moves+0x48c>
    a7e4:	fac42703          	lw	a4,-84(s0)
    a7e8:	fa842783          	lw	a5,-88(s0)
    a7ec:	00c78793          	add	a5,a5,12
    a7f0:	00379793          	sll	a5,a5,0x3
    a7f4:	00f707b3          	add	a5,a4,a5
    a7f8:	0007a703          	lw	a4,0(a5)
    a7fc:	0047a783          	lw	a5,4(a5)
    a800:	00070613          	mv	a2,a4
    a804:	00078693          	mv	a3,a5
    a808:	fb442783          	lw	a5,-76(s0)
    a80c:	fe078713          	add	a4,a5,-32
    a810:	00074a63          	bltz	a4,a824 <generate_pawn_moves+0x438>
    a814:	00100793          	li	a5,1
    a818:	00e799b3          	sll	s3,a5,a4
    a81c:	00000913          	li	s2,0
    a820:	02c0006f          	j	a84c <generate_pawn_moves+0x460>
    a824:	00100713          	li	a4,1
    a828:	00175593          	srl	a1,a4,0x1
    a82c:	01f00713          	li	a4,31
    a830:	40f70733          	sub	a4,a4,a5
    a834:	00e5d733          	srl	a4,a1,a4
    a838:	00000593          	li	a1,0
    a83c:	00f599b3          	sll	s3,a1,a5
    a840:	013769b3          	or	s3,a4,s3
    a844:	00100713          	li	a4,1
    a848:	00f71933          	sll	s2,a4,a5
    a84c:	01266d33          	or	s10,a2,s2
    a850:	0136edb3          	or	s11,a3,s3
    a854:	000d0713          	mv	a4,s10
    a858:	000d8793          	mv	a5,s11
    a85c:	fac42603          	lw	a2,-84(s0)
    a860:	fa842683          	lw	a3,-88(s0)
    a864:	00c68693          	add	a3,a3,12
    a868:	00369693          	sll	a3,a3,0x3
    a86c:	00d606b3          	add	a3,a2,a3
    a870:	00e6a023          	sw	a4,0(a3)
    a874:	00f6a223          	sw	a5,4(a3)
    a878:	00000013          	nop
    a87c:	06c12083          	lw	ra,108(sp)
    a880:	06812403          	lw	s0,104(sp)
    a884:	06412903          	lw	s2,100(sp)
    a888:	06012983          	lw	s3,96(sp)
    a88c:	05c12a03          	lw	s4,92(sp)
    a890:	05812a83          	lw	s5,88(sp)
    a894:	05412b03          	lw	s6,84(sp)
    a898:	05012b83          	lw	s7,80(sp)
    a89c:	04c12c03          	lw	s8,76(sp)
    a8a0:	04812c83          	lw	s9,72(sp)
    a8a4:	04412d03          	lw	s10,68(sp)
    a8a8:	04012d83          	lw	s11,64(sp)
    a8ac:	07010113          	add	sp,sp,112
    a8b0:	00008067          	ret

0000a8b4 <generate_knight_moves>:
    a8b4:	fc010113          	add	sp,sp,-64
    a8b8:	02112e23          	sw	ra,60(sp)
    a8bc:	02812c23          	sw	s0,56(sp)
    a8c0:	03212a23          	sw	s2,52(sp)
    a8c4:	03312823          	sw	s3,48(sp)
    a8c8:	03412623          	sw	s4,44(sp)
    a8cc:	03512423          	sw	s5,40(sp)
    a8d0:	04010413          	add	s0,sp,64
    a8d4:	fca42623          	sw	a0,-52(s0)
    a8d8:	fcb42423          	sw	a1,-56(s0)
    a8dc:	fc042e23          	sw	zero,-36(s0)
    a8e0:	1040006f          	j	a9e4 <generate_knight_moves+0x130>
    a8e4:	000117b7          	lui	a5,0x11
    a8e8:	cf078713          	add	a4,a5,-784 # 10cf0 <knight_move_offsets>
    a8ec:	fdc42783          	lw	a5,-36(s0)
    a8f0:	00279793          	sll	a5,a5,0x2
    a8f4:	00f707b3          	add	a5,a4,a5
    a8f8:	0007a783          	lw	a5,0(a5)
    a8fc:	fc842703          	lw	a4,-56(s0)
    a900:	00f707b3          	add	a5,a4,a5
    a904:	fcf42c23          	sw	a5,-40(s0)
    a908:	fd842583          	lw	a1,-40(s0)
    a90c:	fc842503          	lw	a0,-56(s0)
    a910:	ad0ff0ef          	jal	9be0 <valid_tile_offset>
    a914:	00050793          	mv	a5,a0
    a918:	0a078e63          	beqz	a5,a9d4 <generate_knight_moves+0x120>
    a91c:	fcc42503          	lw	a0,-52(s0)
    a920:	be0ff0ef          	jal	9d00 <get_player_board>
    a924:	00050793          	mv	a5,a0
    a928:	fd842583          	lw	a1,-40(s0)
    a92c:	00078513          	mv	a0,a5
    a930:	b14ff0ef          	jal	9c44 <occupied_tile>
    a934:	00050793          	mv	a5,a0
    a938:	08079e63          	bnez	a5,a9d4 <generate_knight_moves+0x120>
    a93c:	fcc42703          	lw	a4,-52(s0)
    a940:	fc842783          	lw	a5,-56(s0)
    a944:	00c78793          	add	a5,a5,12
    a948:	00379793          	sll	a5,a5,0x3
    a94c:	00f707b3          	add	a5,a4,a5
    a950:	0007a703          	lw	a4,0(a5)
    a954:	0047a783          	lw	a5,4(a5)
    a958:	00070613          	mv	a2,a4
    a95c:	00078693          	mv	a3,a5
    a960:	fd842783          	lw	a5,-40(s0)
    a964:	fe078713          	add	a4,a5,-32
    a968:	00074a63          	bltz	a4,a97c <generate_knight_moves+0xc8>
    a96c:	00100793          	li	a5,1
    a970:	00e799b3          	sll	s3,a5,a4
    a974:	00000913          	li	s2,0
    a978:	02c0006f          	j	a9a4 <generate_knight_moves+0xf0>
    a97c:	00100713          	li	a4,1
    a980:	00175593          	srl	a1,a4,0x1
    a984:	01f00713          	li	a4,31
    a988:	40f70733          	sub	a4,a4,a5
    a98c:	00e5d733          	srl	a4,a1,a4
    a990:	00000593          	li	a1,0
    a994:	00f599b3          	sll	s3,a1,a5
    a998:	013769b3          	or	s3,a4,s3
    a99c:	00100713          	li	a4,1
    a9a0:	00f71933          	sll	s2,a4,a5
    a9a4:	01266a33          	or	s4,a2,s2
    a9a8:	0136eab3          	or	s5,a3,s3
    a9ac:	000a0713          	mv	a4,s4
    a9b0:	000a8793          	mv	a5,s5
    a9b4:	fcc42603          	lw	a2,-52(s0)
    a9b8:	fc842683          	lw	a3,-56(s0)
    a9bc:	00c68693          	add	a3,a3,12
    a9c0:	00369693          	sll	a3,a3,0x3
    a9c4:	00d606b3          	add	a3,a2,a3
    a9c8:	00e6a023          	sw	a4,0(a3)
    a9cc:	00f6a223          	sw	a5,4(a3)
    a9d0:	0080006f          	j	a9d8 <generate_knight_moves+0x124>
    a9d4:	00000013          	nop
    a9d8:	fdc42783          	lw	a5,-36(s0)
    a9dc:	00178793          	add	a5,a5,1
    a9e0:	fcf42e23          	sw	a5,-36(s0)
    a9e4:	fdc42703          	lw	a4,-36(s0)
    a9e8:	00700793          	li	a5,7
    a9ec:	eee7dce3          	bge	a5,a4,a8e4 <generate_knight_moves+0x30>
    a9f0:	00000013          	nop
    a9f4:	00000013          	nop
    a9f8:	03c12083          	lw	ra,60(sp)
    a9fc:	03812403          	lw	s0,56(sp)
    aa00:	03412903          	lw	s2,52(sp)
    aa04:	03012983          	lw	s3,48(sp)
    aa08:	02c12a03          	lw	s4,44(sp)
    aa0c:	02812a83          	lw	s5,40(sp)
    aa10:	04010113          	add	sp,sp,64
    aa14:	00008067          	ret

0000aa18 <generate_sliding_piece_moves>:
    aa18:	fc010113          	add	sp,sp,-64
    aa1c:	02112e23          	sw	ra,60(sp)
    aa20:	02812c23          	sw	s0,56(sp)
    aa24:	03212a23          	sw	s2,52(sp)
    aa28:	03312823          	sw	s3,48(sp)
    aa2c:	03412623          	sw	s4,44(sp)
    aa30:	03512423          	sw	s5,40(sp)
    aa34:	04010413          	add	s0,sp,64
    aa38:	fca42623          	sw	a0,-52(s0)
    aa3c:	fcb42423          	sw	a1,-56(s0)
    aa40:	fcc42223          	sw	a2,-60(s0)
    aa44:	fc042e23          	sw	zero,-36(s0)
    aa48:	1840006f          	j	abcc <generate_sliding_piece_moves+0x1b4>
    aa4c:	fc442783          	lw	a5,-60(s0)
    aa50:	fcf42c23          	sw	a5,-40(s0)
    aa54:	fc842783          	lw	a5,-56(s0)
    aa58:	ffd78793          	add	a5,a5,-3
    aa5c:	0017b793          	seqz	a5,a5
    aa60:	0ff7f793          	zext.b	a5,a5
    aa64:	00078693          	mv	a3,a5
    aa68:	000117b7          	lui	a5,0x11
    aa6c:	d1078713          	add	a4,a5,-752 # 10d10 <sliding_piece_move_offsets>
    aa70:	00269693          	sll	a3,a3,0x2
    aa74:	fdc42783          	lw	a5,-36(s0)
    aa78:	00f687b3          	add	a5,a3,a5
    aa7c:	00279793          	sll	a5,a5,0x2
    aa80:	00f707b3          	add	a5,a4,a5
    aa84:	0007a783          	lw	a5,0(a5)
    aa88:	fd842703          	lw	a4,-40(s0)
    aa8c:	00f707b3          	add	a5,a4,a5
    aa90:	fcf42c23          	sw	a5,-40(s0)
    aa94:	fc842783          	lw	a5,-56(s0)
    aa98:	ffd78793          	add	a5,a5,-3
    aa9c:	0017b793          	seqz	a5,a5
    aaa0:	0ff7f793          	zext.b	a5,a5
    aaa4:	00078693          	mv	a3,a5
    aaa8:	000117b7          	lui	a5,0x11
    aaac:	d1078713          	add	a4,a5,-752 # 10d10 <sliding_piece_move_offsets>
    aab0:	00269693          	sll	a3,a3,0x2
    aab4:	fdc42783          	lw	a5,-36(s0)
    aab8:	00f687b3          	add	a5,a3,a5
    aabc:	00279793          	sll	a5,a5,0x2
    aac0:	00f707b3          	add	a5,a4,a5
    aac4:	0007a783          	lw	a5,0(a5)
    aac8:	fd842703          	lw	a4,-40(s0)
    aacc:	40f707b3          	sub	a5,a4,a5
    aad0:	fd842583          	lw	a1,-40(s0)
    aad4:	00078513          	mv	a0,a5
    aad8:	908ff0ef          	jal	9be0 <valid_tile_offset>
    aadc:	00050793          	mv	a5,a0
    aae0:	0e078063          	beqz	a5,abc0 <generate_sliding_piece_moves+0x1a8>
    aae4:	fcc42503          	lw	a0,-52(s0)
    aae8:	a18ff0ef          	jal	9d00 <get_player_board>
    aaec:	00050793          	mv	a5,a0
    aaf0:	fd842583          	lw	a1,-40(s0)
    aaf4:	00078513          	mv	a0,a5
    aaf8:	94cff0ef          	jal	9c44 <occupied_tile>
    aafc:	00050793          	mv	a5,a0
    ab00:	0c079063          	bnez	a5,abc0 <generate_sliding_piece_moves+0x1a8>
    ab04:	fcc42703          	lw	a4,-52(s0)
    ab08:	fc442783          	lw	a5,-60(s0)
    ab0c:	00c78793          	add	a5,a5,12
    ab10:	00379793          	sll	a5,a5,0x3
    ab14:	00f707b3          	add	a5,a4,a5
    ab18:	0007a703          	lw	a4,0(a5)
    ab1c:	0047a783          	lw	a5,4(a5)
    ab20:	00070613          	mv	a2,a4
    ab24:	00078693          	mv	a3,a5
    ab28:	fd842783          	lw	a5,-40(s0)
    ab2c:	fe078713          	add	a4,a5,-32
    ab30:	00074a63          	bltz	a4,ab44 <generate_sliding_piece_moves+0x12c>
    ab34:	00100793          	li	a5,1
    ab38:	00e799b3          	sll	s3,a5,a4
    ab3c:	00000913          	li	s2,0
    ab40:	02c0006f          	j	ab6c <generate_sliding_piece_moves+0x154>
    ab44:	00100713          	li	a4,1
    ab48:	00175593          	srl	a1,a4,0x1
    ab4c:	01f00713          	li	a4,31
    ab50:	40f70733          	sub	a4,a4,a5
    ab54:	00e5d733          	srl	a4,a1,a4
    ab58:	00000593          	li	a1,0
    ab5c:	00f599b3          	sll	s3,a1,a5
    ab60:	013769b3          	or	s3,a4,s3
    ab64:	00100713          	li	a4,1
    ab68:	00f71933          	sll	s2,a4,a5
    ab6c:	01266a33          	or	s4,a2,s2
    ab70:	0136eab3          	or	s5,a3,s3
    ab74:	000a0713          	mv	a4,s4
    ab78:	000a8793          	mv	a5,s5
    ab7c:	fcc42603          	lw	a2,-52(s0)
    ab80:	fc442683          	lw	a3,-60(s0)
    ab84:	00c68693          	add	a3,a3,12
    ab88:	00369693          	sll	a3,a3,0x3
    ab8c:	00d606b3          	add	a3,a2,a3
    ab90:	00e6a023          	sw	a4,0(a3)
    ab94:	00f6a223          	sw	a5,4(a3)
    ab98:	fcc42503          	lw	a0,-52(s0)
    ab9c:	9a4ff0ef          	jal	9d40 <get_enemy_board>
    aba0:	00050793          	mv	a5,a0
    aba4:	fd842583          	lw	a1,-40(s0)
    aba8:	00078513          	mv	a0,a5
    abac:	898ff0ef          	jal	9c44 <occupied_tile>
    abb0:	00050793          	mv	a5,a0
    abb4:	00079463          	bnez	a5,abbc <generate_sliding_piece_moves+0x1a4>
    abb8:	e9dff06f          	j	aa54 <generate_sliding_piece_moves+0x3c>
    abbc:	00000013          	nop
    abc0:	fdc42783          	lw	a5,-36(s0)
    abc4:	00178793          	add	a5,a5,1
    abc8:	fcf42e23          	sw	a5,-36(s0)
    abcc:	fdc42703          	lw	a4,-36(s0)
    abd0:	00300793          	li	a5,3
    abd4:	e6e7dce3          	bge	a5,a4,aa4c <generate_sliding_piece_moves+0x34>
    abd8:	00000013          	nop
    abdc:	00000013          	nop
    abe0:	03c12083          	lw	ra,60(sp)
    abe4:	03812403          	lw	s0,56(sp)
    abe8:	03412903          	lw	s2,52(sp)
    abec:	03012983          	lw	s3,48(sp)
    abf0:	02c12a03          	lw	s4,44(sp)
    abf4:	02812a83          	lw	s5,40(sp)
    abf8:	04010113          	add	sp,sp,64
    abfc:	00008067          	ret

0000ac00 <generate_king_moves>:
    ac00:	fa010113          	add	sp,sp,-96
    ac04:	04112e23          	sw	ra,92(sp)
    ac08:	04812c23          	sw	s0,88(sp)
    ac0c:	05212a23          	sw	s2,84(sp)
    ac10:	05312823          	sw	s3,80(sp)
    ac14:	05412623          	sw	s4,76(sp)
    ac18:	05512423          	sw	s5,72(sp)
    ac1c:	05612223          	sw	s6,68(sp)
    ac20:	05712023          	sw	s7,64(sp)
    ac24:	03812e23          	sw	s8,60(sp)
    ac28:	03912c23          	sw	s9,56(sp)
    ac2c:	03a12a23          	sw	s10,52(sp)
    ac30:	03b12823          	sw	s11,48(sp)
    ac34:	06010413          	add	s0,sp,96
    ac38:	faa42623          	sw	a0,-84(s0)
    ac3c:	fab42423          	sw	a1,-88(s0)
    ac40:	fc042623          	sw	zero,-52(s0)
    ac44:	10c0006f          	j	ad50 <generate_king_moves+0x150>
    ac48:	000117b7          	lui	a5,0x11
    ac4c:	d3078713          	add	a4,a5,-720 # 10d30 <king_move_offsets>
    ac50:	fcc42783          	lw	a5,-52(s0)
    ac54:	00279793          	sll	a5,a5,0x2
    ac58:	00f707b3          	add	a5,a4,a5
    ac5c:	0007a783          	lw	a5,0(a5)
    ac60:	fa842703          	lw	a4,-88(s0)
    ac64:	00f707b3          	add	a5,a4,a5
    ac68:	faf42c23          	sw	a5,-72(s0)
    ac6c:	fb842583          	lw	a1,-72(s0)
    ac70:	fa842503          	lw	a0,-88(s0)
    ac74:	f6dfe0ef          	jal	9be0 <valid_tile_offset>
    ac78:	00050793          	mv	a5,a0
    ac7c:	0c078263          	beqz	a5,ad40 <generate_king_moves+0x140>
    ac80:	fac42503          	lw	a0,-84(s0)
    ac84:	87cff0ef          	jal	9d00 <get_player_board>
    ac88:	00050793          	mv	a5,a0
    ac8c:	fb842583          	lw	a1,-72(s0)
    ac90:	00078513          	mv	a0,a5
    ac94:	fb1fe0ef          	jal	9c44 <occupied_tile>
    ac98:	00050793          	mv	a5,a0
    ac9c:	0a079263          	bnez	a5,ad40 <generate_king_moves+0x140>
    aca0:	fac42703          	lw	a4,-84(s0)
    aca4:	fa842783          	lw	a5,-88(s0)
    aca8:	00c78793          	add	a5,a5,12
    acac:	00379793          	sll	a5,a5,0x3
    acb0:	00f707b3          	add	a5,a4,a5
    acb4:	0007a703          	lw	a4,0(a5)
    acb8:	0047a783          	lw	a5,4(a5)
    acbc:	00070613          	mv	a2,a4
    acc0:	00078693          	mv	a3,a5
    acc4:	fb842783          	lw	a5,-72(s0)
    acc8:	fe078713          	add	a4,a5,-32
    accc:	00074a63          	bltz	a4,ace0 <generate_king_moves+0xe0>
    acd0:	00100793          	li	a5,1
    acd4:	00e79bb3          	sll	s7,a5,a4
    acd8:	00000b13          	li	s6,0
    acdc:	02c0006f          	j	ad08 <generate_king_moves+0x108>
    ace0:	00100713          	li	a4,1
    ace4:	00175593          	srl	a1,a4,0x1
    ace8:	01f00713          	li	a4,31
    acec:	40f70733          	sub	a4,a4,a5
    acf0:	00e5d733          	srl	a4,a1,a4
    acf4:	00000593          	li	a1,0
    acf8:	00f59bb3          	sll	s7,a1,a5
    acfc:	01776bb3          	or	s7,a4,s7
    ad00:	00100713          	li	a4,1
    ad04:	00f71b33          	sll	s6,a4,a5
    ad08:	016667b3          	or	a5,a2,s6
    ad0c:	faf42023          	sw	a5,-96(s0)
    ad10:	0176e7b3          	or	a5,a3,s7
    ad14:	faf42223          	sw	a5,-92(s0)
    ad18:	fa042703          	lw	a4,-96(s0)
    ad1c:	fa442783          	lw	a5,-92(s0)
    ad20:	fac42603          	lw	a2,-84(s0)
    ad24:	fa842683          	lw	a3,-88(s0)
    ad28:	00c68693          	add	a3,a3,12
    ad2c:	00369693          	sll	a3,a3,0x3
    ad30:	00d606b3          	add	a3,a2,a3
    ad34:	00e6a023          	sw	a4,0(a3)
    ad38:	00f6a223          	sw	a5,4(a3)
    ad3c:	0080006f          	j	ad44 <generate_king_moves+0x144>
    ad40:	00000013          	nop
    ad44:	fcc42783          	lw	a5,-52(s0)
    ad48:	00178793          	add	a5,a5,1
    ad4c:	fcf42623          	sw	a5,-52(s0)
    ad50:	fcc42703          	lw	a4,-52(s0)
    ad54:	00700793          	li	a5,7
    ad58:	eee7d8e3          	bge	a5,a4,ac48 <generate_king_moves+0x48>
    ad5c:	fac42503          	lw	a0,-84(s0)
    ad60:	db4ff0ef          	jal	a314 <king_in_check>
    ad64:	00050793          	mv	a5,a0
    ad68:	30079863          	bnez	a5,b078 <generate_king_moves+0x478>
    ad6c:	fac42783          	lw	a5,-84(s0)
    ad70:	27c7a703          	lw	a4,636(a5)
    ad74:	00100793          	li	a5,1
    ad78:	00f71663          	bne	a4,a5,ad84 <generate_king_moves+0x184>
    ad7c:	00000793          	li	a5,0
    ad80:	0080006f          	j	ad88 <generate_king_moves+0x188>
    ad84:	00200793          	li	a5,2
    ad88:	faf42e23          	sw	a5,-68(s0)
    ad8c:	00100793          	li	a5,1
    ad90:	fcf42423          	sw	a5,-56(s0)
    ad94:	00100793          	li	a5,1
    ad98:	fcf42223          	sw	a5,-60(s0)
    ad9c:	0800006f          	j	ae1c <generate_king_moves+0x21c>
    ada0:	fac42503          	lw	a0,-84(s0)
    ada4:	f5dfe0ef          	jal	9d00 <get_player_board>
    ada8:	00050693          	mv	a3,a0
    adac:	fa842703          	lw	a4,-88(s0)
    adb0:	fc442783          	lw	a5,-60(s0)
    adb4:	40f707b3          	sub	a5,a4,a5
    adb8:	00078593          	mv	a1,a5
    adbc:	00068513          	mv	a0,a3
    adc0:	e85fe0ef          	jal	9c44 <occupied_tile>
    adc4:	00050793          	mv	a5,a0
    adc8:	02079c63          	bnez	a5,ae00 <generate_king_moves+0x200>
    adcc:	fac42503          	lw	a0,-84(s0)
    add0:	f71fe0ef          	jal	9d40 <get_enemy_board>
    add4:	00050693          	mv	a3,a0
    add8:	fa842703          	lw	a4,-88(s0)
    addc:	fc442783          	lw	a5,-60(s0)
    ade0:	40f707b3          	sub	a5,a4,a5
    ade4:	00078593          	mv	a1,a5
    ade8:	00068513          	mv	a0,a3
    adec:	e59fe0ef          	jal	9c44 <occupied_tile>
    adf0:	00050793          	mv	a5,a0
    adf4:	00079663          	bnez	a5,ae00 <generate_king_moves+0x200>
    adf8:	00100793          	li	a5,1
    adfc:	0080006f          	j	ae04 <generate_king_moves+0x204>
    ae00:	00000793          	li	a5,0
    ae04:	fc842703          	lw	a4,-56(s0)
    ae08:	00f777b3          	and	a5,a4,a5
    ae0c:	fcf42423          	sw	a5,-56(s0)
    ae10:	fc442783          	lw	a5,-60(s0)
    ae14:	00178793          	add	a5,a5,1
    ae18:	fcf42223          	sw	a5,-60(s0)
    ae1c:	fc442703          	lw	a4,-60(s0)
    ae20:	00300793          	li	a5,3
    ae24:	f6e7dee3          	bge	a5,a4,ada0 <generate_king_moves+0x1a0>
    ae28:	fc842783          	lw	a5,-56(s0)
    ae2c:	0c078a63          	beqz	a5,af00 <generate_king_moves+0x300>
    ae30:	fac42703          	lw	a4,-84(s0)
    ae34:	fbc42783          	lw	a5,-68(s0)
    ae38:	09878793          	add	a5,a5,152
    ae3c:	00279793          	sll	a5,a5,0x2
    ae40:	00f707b3          	add	a5,a4,a5
    ae44:	0047a783          	lw	a5,4(a5)
    ae48:	0a078c63          	beqz	a5,af00 <generate_king_moves+0x300>
    ae4c:	fa842783          	lw	a5,-88(s0)
    ae50:	fff78793          	add	a5,a5,-1
    ae54:	00078593          	mv	a1,a5
    ae58:	fac42503          	lw	a0,-84(s0)
    ae5c:	f25fe0ef          	jal	9d80 <tile_attacked>
    ae60:	00050793          	mv	a5,a0
    ae64:	08079e63          	bnez	a5,af00 <generate_king_moves+0x300>
    ae68:	fac42703          	lw	a4,-84(s0)
    ae6c:	fa842783          	lw	a5,-88(s0)
    ae70:	00c78793          	add	a5,a5,12
    ae74:	00379793          	sll	a5,a5,0x3
    ae78:	00f707b3          	add	a5,a4,a5
    ae7c:	0007a703          	lw	a4,0(a5)
    ae80:	0047a783          	lw	a5,4(a5)
    ae84:	00070613          	mv	a2,a4
    ae88:	00078693          	mv	a3,a5
    ae8c:	fa842783          	lw	a5,-88(s0)
    ae90:	ffe78793          	add	a5,a5,-2
    ae94:	fe078713          	add	a4,a5,-32
    ae98:	00074a63          	bltz	a4,aeac <generate_king_moves+0x2ac>
    ae9c:	00100793          	li	a5,1
    aea0:	00e79ab3          	sll	s5,a5,a4
    aea4:	00000a13          	li	s4,0
    aea8:	02c0006f          	j	aed4 <generate_king_moves+0x2d4>
    aeac:	00100713          	li	a4,1
    aeb0:	00175593          	srl	a1,a4,0x1
    aeb4:	01f00713          	li	a4,31
    aeb8:	40f70733          	sub	a4,a4,a5
    aebc:	00e5d733          	srl	a4,a1,a4
    aec0:	00000593          	li	a1,0
    aec4:	00f59ab3          	sll	s5,a1,a5
    aec8:	01576ab3          	or	s5,a4,s5
    aecc:	00100713          	li	a4,1
    aed0:	00f71a33          	sll	s4,a4,a5
    aed4:	01466d33          	or	s10,a2,s4
    aed8:	0156edb3          	or	s11,a3,s5
    aedc:	000d0713          	mv	a4,s10
    aee0:	000d8793          	mv	a5,s11
    aee4:	fac42603          	lw	a2,-84(s0)
    aee8:	fa842683          	lw	a3,-88(s0)
    aeec:	00c68693          	add	a3,a3,12
    aef0:	00369693          	sll	a3,a3,0x3
    aef4:	00d606b3          	add	a3,a2,a3
    aef8:	00e6a023          	sw	a4,0(a3)
    aefc:	00f6a223          	sw	a5,4(a3)
    af00:	00100793          	li	a5,1
    af04:	fcf42423          	sw	a5,-56(s0)
    af08:	00100793          	li	a5,1
    af0c:	fcf42023          	sw	a5,-64(s0)
    af10:	0800006f          	j	af90 <generate_king_moves+0x390>
    af14:	fac42503          	lw	a0,-84(s0)
    af18:	de9fe0ef          	jal	9d00 <get_player_board>
    af1c:	00050693          	mv	a3,a0
    af20:	fa842703          	lw	a4,-88(s0)
    af24:	fc042783          	lw	a5,-64(s0)
    af28:	00f707b3          	add	a5,a4,a5
    af2c:	00078593          	mv	a1,a5
    af30:	00068513          	mv	a0,a3
    af34:	d11fe0ef          	jal	9c44 <occupied_tile>
    af38:	00050793          	mv	a5,a0
    af3c:	02079c63          	bnez	a5,af74 <generate_king_moves+0x374>
    af40:	fac42503          	lw	a0,-84(s0)
    af44:	dfdfe0ef          	jal	9d40 <get_enemy_board>
    af48:	00050693          	mv	a3,a0
    af4c:	fa842703          	lw	a4,-88(s0)
    af50:	fc042783          	lw	a5,-64(s0)
    af54:	00f707b3          	add	a5,a4,a5
    af58:	00078593          	mv	a1,a5
    af5c:	00068513          	mv	a0,a3
    af60:	ce5fe0ef          	jal	9c44 <occupied_tile>
    af64:	00050793          	mv	a5,a0
    af68:	00079663          	bnez	a5,af74 <generate_king_moves+0x374>
    af6c:	00100793          	li	a5,1
    af70:	0080006f          	j	af78 <generate_king_moves+0x378>
    af74:	00000793          	li	a5,0
    af78:	fc842703          	lw	a4,-56(s0)
    af7c:	00f777b3          	and	a5,a4,a5
    af80:	fcf42423          	sw	a5,-56(s0)
    af84:	fc042783          	lw	a5,-64(s0)
    af88:	00178793          	add	a5,a5,1
    af8c:	fcf42023          	sw	a5,-64(s0)
    af90:	fc042703          	lw	a4,-64(s0)
    af94:	00200793          	li	a5,2
    af98:	f6e7dee3          	bge	a5,a4,af14 <generate_king_moves+0x314>
    af9c:	fc842783          	lw	a5,-56(s0)
    afa0:	0c078c63          	beqz	a5,b078 <generate_king_moves+0x478>
    afa4:	fbc42783          	lw	a5,-68(s0)
    afa8:	00178793          	add	a5,a5,1
    afac:	fac42703          	lw	a4,-84(s0)
    afb0:	09878793          	add	a5,a5,152
    afb4:	00279793          	sll	a5,a5,0x2
    afb8:	00f707b3          	add	a5,a4,a5
    afbc:	0047a783          	lw	a5,4(a5)
    afc0:	0a078c63          	beqz	a5,b078 <generate_king_moves+0x478>
    afc4:	fa842783          	lw	a5,-88(s0)
    afc8:	00178793          	add	a5,a5,1
    afcc:	00078593          	mv	a1,a5
    afd0:	fac42503          	lw	a0,-84(s0)
    afd4:	dadfe0ef          	jal	9d80 <tile_attacked>
    afd8:	00050793          	mv	a5,a0
    afdc:	08079e63          	bnez	a5,b078 <generate_king_moves+0x478>
    afe0:	fac42703          	lw	a4,-84(s0)
    afe4:	fa842783          	lw	a5,-88(s0)
    afe8:	00c78793          	add	a5,a5,12
    afec:	00379793          	sll	a5,a5,0x3
    aff0:	00f707b3          	add	a5,a4,a5
    aff4:	0007a703          	lw	a4,0(a5)
    aff8:	0047a783          	lw	a5,4(a5)
    affc:	00070613          	mv	a2,a4
    b000:	00078693          	mv	a3,a5
    b004:	fa842783          	lw	a5,-88(s0)
    b008:	00278793          	add	a5,a5,2
    b00c:	fe078713          	add	a4,a5,-32
    b010:	00074a63          	bltz	a4,b024 <generate_king_moves+0x424>
    b014:	00100793          	li	a5,1
    b018:	00e799b3          	sll	s3,a5,a4
    b01c:	00000913          	li	s2,0
    b020:	02c0006f          	j	b04c <generate_king_moves+0x44c>
    b024:	00100713          	li	a4,1
    b028:	00175593          	srl	a1,a4,0x1
    b02c:	01f00713          	li	a4,31
    b030:	40f70733          	sub	a4,a4,a5
    b034:	00e5d733          	srl	a4,a1,a4
    b038:	00000593          	li	a1,0
    b03c:	00f599b3          	sll	s3,a1,a5
    b040:	013769b3          	or	s3,a4,s3
    b044:	00100713          	li	a4,1
    b048:	00f71933          	sll	s2,a4,a5
    b04c:	01266c33          	or	s8,a2,s2
    b050:	0136ecb3          	or	s9,a3,s3
    b054:	000c0713          	mv	a4,s8
    b058:	000c8793          	mv	a5,s9
    b05c:	fac42603          	lw	a2,-84(s0)
    b060:	fa842683          	lw	a3,-88(s0)
    b064:	00c68693          	add	a3,a3,12
    b068:	00369693          	sll	a3,a3,0x3
    b06c:	00d606b3          	add	a3,a2,a3
    b070:	00e6a023          	sw	a4,0(a3)
    b074:	00f6a223          	sw	a5,4(a3)
    b078:	00000013          	nop
    b07c:	05c12083          	lw	ra,92(sp)
    b080:	05812403          	lw	s0,88(sp)
    b084:	05412903          	lw	s2,84(sp)
    b088:	05012983          	lw	s3,80(sp)
    b08c:	04c12a03          	lw	s4,76(sp)
    b090:	04812a83          	lw	s5,72(sp)
    b094:	04412b03          	lw	s6,68(sp)
    b098:	04012b83          	lw	s7,64(sp)
    b09c:	03c12c03          	lw	s8,60(sp)
    b0a0:	03812c83          	lw	s9,56(sp)
    b0a4:	03412d03          	lw	s10,52(sp)
    b0a8:	03012d83          	lw	s11,48(sp)
    b0ac:	06010113          	add	sp,sp,96
    b0b0:	00008067          	ret

0000b0b4 <update_castling_availability>:
    b0b4:	fd010113          	add	sp,sp,-48
    b0b8:	02812623          	sw	s0,44(sp)
    b0bc:	03010413          	add	s0,sp,48
    b0c0:	fca42e23          	sw	a0,-36(s0)
    b0c4:	fcb42c23          	sw	a1,-40(s0)
    b0c8:	fcc42a23          	sw	a2,-44(s0)
    b0cc:	fdc42783          	lw	a5,-36(s0)
    b0d0:	27c7a703          	lw	a4,636(a5)
    b0d4:	00100793          	li	a5,1
    b0d8:	00f71663          	bne	a4,a5,b0e4 <update_castling_availability+0x30>
    b0dc:	00000793          	li	a5,0
    b0e0:	0080006f          	j	b0e8 <update_castling_availability+0x34>
    b0e4:	00200793          	li	a5,2
    b0e8:	fef42623          	sw	a5,-20(s0)
    b0ec:	fd442703          	lw	a4,-44(s0)
    b0f0:	00500793          	li	a5,5
    b0f4:	02f71e63          	bne	a4,a5,b130 <update_castling_availability+0x7c>
    b0f8:	fdc42703          	lw	a4,-36(s0)
    b0fc:	fec42783          	lw	a5,-20(s0)
    b100:	09878793          	add	a5,a5,152
    b104:	00279793          	sll	a5,a5,0x2
    b108:	00f707b3          	add	a5,a4,a5
    b10c:	0007a223          	sw	zero,4(a5)
    b110:	fec42783          	lw	a5,-20(s0)
    b114:	00178793          	add	a5,a5,1
    b118:	fdc42703          	lw	a4,-36(s0)
    b11c:	09878793          	add	a5,a5,152
    b120:	00279793          	sll	a5,a5,0x2
    b124:	00f707b3          	add	a5,a4,a5
    b128:	0007a223          	sw	zero,4(a5)
    b12c:	0940006f          	j	b1c0 <update_castling_availability+0x10c>
    b130:	fdc42783          	lw	a5,-36(s0)
    b134:	27c7a703          	lw	a4,636(a5)
    b138:	00100793          	li	a5,1
    b13c:	00f71663          	bne	a4,a5,b148 <update_castling_availability+0x94>
    b140:	03800793          	li	a5,56
    b144:	0080006f          	j	b14c <update_castling_availability+0x98>
    b148:	00000793          	li	a5,0
    b14c:	fef42423          	sw	a5,-24(s0)
    b150:	fdc42783          	lw	a5,-36(s0)
    b154:	27c7a703          	lw	a4,636(a5)
    b158:	00100793          	li	a5,1
    b15c:	00f71663          	bne	a4,a5,b168 <update_castling_availability+0xb4>
    b160:	03f00793          	li	a5,63
    b164:	0080006f          	j	b16c <update_castling_availability+0xb8>
    b168:	00700793          	li	a5,7
    b16c:	fef42223          	sw	a5,-28(s0)
    b170:	fd842703          	lw	a4,-40(s0)
    b174:	fe842783          	lw	a5,-24(s0)
    b178:	02f71063          	bne	a4,a5,b198 <update_castling_availability+0xe4>
    b17c:	fdc42703          	lw	a4,-36(s0)
    b180:	fec42783          	lw	a5,-20(s0)
    b184:	09878793          	add	a5,a5,152
    b188:	00279793          	sll	a5,a5,0x2
    b18c:	00f707b3          	add	a5,a4,a5
    b190:	0007a223          	sw	zero,4(a5)
    b194:	02c0006f          	j	b1c0 <update_castling_availability+0x10c>
    b198:	fd842703          	lw	a4,-40(s0)
    b19c:	fe442783          	lw	a5,-28(s0)
    b1a0:	02f71063          	bne	a4,a5,b1c0 <update_castling_availability+0x10c>
    b1a4:	fec42783          	lw	a5,-20(s0)
    b1a8:	00178793          	add	a5,a5,1
    b1ac:	fdc42703          	lw	a4,-36(s0)
    b1b0:	09878793          	add	a5,a5,152
    b1b4:	00279793          	sll	a5,a5,0x2
    b1b8:	00f707b3          	add	a5,a4,a5
    b1bc:	0007a223          	sw	zero,4(a5)
    b1c0:	02c12403          	lw	s0,44(sp)
    b1c4:	03010113          	add	sp,sp,48
    b1c8:	00008067          	ret

0000b1cc <make_move>:
    b1cc:	f2010113          	add	sp,sp,-224
    b1d0:	0c112e23          	sw	ra,220(sp)
    b1d4:	0c812c23          	sw	s0,216(sp)
    b1d8:	0d212a23          	sw	s2,212(sp)
    b1dc:	0d312823          	sw	s3,208(sp)
    b1e0:	0d412623          	sw	s4,204(sp)
    b1e4:	0d512423          	sw	s5,200(sp)
    b1e8:	0d612223          	sw	s6,196(sp)
    b1ec:	0d712023          	sw	s7,192(sp)
    b1f0:	0b812e23          	sw	s8,188(sp)
    b1f4:	0b912c23          	sw	s9,184(sp)
    b1f8:	0ba12a23          	sw	s10,180(sp)
    b1fc:	0bb12823          	sw	s11,176(sp)
    b200:	0e010413          	add	s0,sp,224
    b204:	f8a42e23          	sw	a0,-100(s0)
    b208:	f8b42c23          	sw	a1,-104(s0)
    b20c:	f8c42a23          	sw	a2,-108(s0)
    b210:	f9c42703          	lw	a4,-100(s0)
    b214:	f9842783          	lw	a5,-104(s0)
    b218:	00c78793          	add	a5,a5,12
    b21c:	00379793          	sll	a5,a5,0x3
    b220:	00f707b3          	add	a5,a4,a5
    b224:	0007a703          	lw	a4,0(a5)
    b228:	0047a783          	lw	a5,4(a5)
    b22c:	00070613          	mv	a2,a4
    b230:	00078693          	mv	a3,a5
    b234:	f9442703          	lw	a4,-108(s0)
    b238:	fe070793          	add	a5,a4,-32
    b23c:	0007c863          	bltz	a5,b24c <make_move+0x80>
    b240:	00f6d833          	srl	a6,a3,a5
    b244:	00000893          	li	a7,0
    b248:	0200006f          	j	b268 <make_move+0x9c>
    b24c:	00169593          	sll	a1,a3,0x1
    b250:	01f00793          	li	a5,31
    b254:	40e787b3          	sub	a5,a5,a4
    b258:	00f597b3          	sll	a5,a1,a5
    b25c:	00e65833          	srl	a6,a2,a4
    b260:	0107e833          	or	a6,a5,a6
    b264:	00e6d8b3          	srl	a7,a3,a4
    b268:	00187313          	and	t1,a6,1
    b26c:	0008f393          	and	t2,a7,0
    b270:	00030793          	mv	a5,t1
    b274:	0077e7b3          	or	a5,a5,t2
    b278:	6c078a63          	beqz	a5,b94c <make_move+0x780>
    b27c:	f9c42783          	lw	a5,-100(s0)
    b280:	2607a783          	lw	a5,608(a5)
    b284:	fcf42423          	sw	a5,-56(s0)
    b288:	f9c42703          	lw	a4,-100(s0)
    b28c:	fff00793          	li	a5,-1
    b290:	26f72023          	sw	a5,608(a4)
    b294:	f9c42503          	lw	a0,-100(s0)
    b298:	a69fe0ef          	jal	9d00 <get_player_board>
    b29c:	fca42223          	sw	a0,-60(s0)
    b2a0:	f9c42503          	lw	a0,-100(s0)
    b2a4:	a9dfe0ef          	jal	9d40 <get_enemy_board>
    b2a8:	fca42023          	sw	a0,-64(s0)
    b2ac:	fc042623          	sw	zero,-52(s0)
    b2b0:	65c0006f          	j	b90c <make_move+0x740>
    b2b4:	fcc42783          	lw	a5,-52(s0)
    b2b8:	00379713          	sll	a4,a5,0x3
    b2bc:	fc442783          	lw	a5,-60(s0)
    b2c0:	00e787b3          	add	a5,a5,a4
    b2c4:	0007a703          	lw	a4,0(a5)
    b2c8:	0047a783          	lw	a5,4(a5)
    b2cc:	00070613          	mv	a2,a4
    b2d0:	00078693          	mv	a3,a5
    b2d4:	f9842703          	lw	a4,-104(s0)
    b2d8:	fe070793          	add	a5,a4,-32
    b2dc:	0007c863          	bltz	a5,b2ec <make_move+0x120>
    b2e0:	00f6d933          	srl	s2,a3,a5
    b2e4:	00000993          	li	s3,0
    b2e8:	0200006f          	j	b308 <make_move+0x13c>
    b2ec:	00169593          	sll	a1,a3,0x1
    b2f0:	01f00793          	li	a5,31
    b2f4:	40e787b3          	sub	a5,a5,a4
    b2f8:	00f597b3          	sll	a5,a1,a5
    b2fc:	00e65933          	srl	s2,a2,a4
    b300:	0127e933          	or	s2,a5,s2
    b304:	00e6d9b3          	srl	s3,a3,a4
    b308:	00197793          	and	a5,s2,1
    b30c:	f6f42c23          	sw	a5,-136(s0)
    b310:	0009f793          	and	a5,s3,0
    b314:	f6f42e23          	sw	a5,-132(s0)
    b318:	f7842683          	lw	a3,-136(s0)
    b31c:	f7c42703          	lw	a4,-132(s0)
    b320:	00068793          	mv	a5,a3
    b324:	00e7e7b3          	or	a5,a5,a4
    b328:	50078063          	beqz	a5,b828 <make_move+0x65c>
    b32c:	fcc42783          	lw	a5,-52(s0)
    b330:	00379713          	sll	a4,a5,0x3
    b334:	fc442783          	lw	a5,-60(s0)
    b338:	00e787b3          	add	a5,a5,a4
    b33c:	0007a703          	lw	a4,0(a5)
    b340:	0047a783          	lw	a5,4(a5)
    b344:	00070513          	mv	a0,a4
    b348:	00078593          	mv	a1,a5
    b34c:	f9842683          	lw	a3,-104(s0)
    b350:	fe068713          	add	a4,a3,-32
    b354:	00074a63          	bltz	a4,b368 <make_move+0x19c>
    b358:	00100793          	li	a5,1
    b35c:	00e79ab3          	sll	s5,a5,a4
    b360:	00000a13          	li	s4,0
    b364:	02c0006f          	j	b390 <make_move+0x1c4>
    b368:	00100793          	li	a5,1
    b36c:	0017d713          	srl	a4,a5,0x1
    b370:	01f00793          	li	a5,31
    b374:	40d787b3          	sub	a5,a5,a3
    b378:	00f75733          	srl	a4,a4,a5
    b37c:	00000793          	li	a5,0
    b380:	00d79ab3          	sll	s5,a5,a3
    b384:	01576ab3          	or	s5,a4,s5
    b388:	00100793          	li	a5,1
    b38c:	00d79a33          	sll	s4,a5,a3
    b390:	fffa4793          	not	a5,s4
    b394:	f6f42823          	sw	a5,-144(s0)
    b398:	fffac793          	not	a5,s5
    b39c:	f6f42a23          	sw	a5,-140(s0)
    b3a0:	f7042683          	lw	a3,-144(s0)
    b3a4:	f7442703          	lw	a4,-140(s0)
    b3a8:	00068793          	mv	a5,a3
    b3ac:	00f577b3          	and	a5,a0,a5
    b3b0:	f6f42423          	sw	a5,-152(s0)
    b3b4:	00070793          	mv	a5,a4
    b3b8:	00f5f7b3          	and	a5,a1,a5
    b3bc:	f6f42623          	sw	a5,-148(s0)
    b3c0:	fcc42783          	lw	a5,-52(s0)
    b3c4:	00379713          	sll	a4,a5,0x3
    b3c8:	fc442783          	lw	a5,-60(s0)
    b3cc:	00e786b3          	add	a3,a5,a4
    b3d0:	f6842703          	lw	a4,-152(s0)
    b3d4:	f6c42783          	lw	a5,-148(s0)
    b3d8:	00e6a023          	sw	a4,0(a3)
    b3dc:	00f6a223          	sw	a5,4(a3)
    b3e0:	fcc42783          	lw	a5,-52(s0)
    b3e4:	00379713          	sll	a4,a5,0x3
    b3e8:	fc442783          	lw	a5,-60(s0)
    b3ec:	00e787b3          	add	a5,a5,a4
    b3f0:	0007a703          	lw	a4,0(a5)
    b3f4:	0047a783          	lw	a5,4(a5)
    b3f8:	00070513          	mv	a0,a4
    b3fc:	00078593          	mv	a1,a5
    b400:	f9442683          	lw	a3,-108(s0)
    b404:	fe068713          	add	a4,a3,-32
    b408:	00074a63          	bltz	a4,b41c <make_move+0x250>
    b40c:	00100793          	li	a5,1
    b410:	00e79bb3          	sll	s7,a5,a4
    b414:	00000b13          	li	s6,0
    b418:	02c0006f          	j	b444 <make_move+0x278>
    b41c:	00100793          	li	a5,1
    b420:	0017d713          	srl	a4,a5,0x1
    b424:	01f00793          	li	a5,31
    b428:	40d787b3          	sub	a5,a5,a3
    b42c:	00f75733          	srl	a4,a4,a5
    b430:	00000793          	li	a5,0
    b434:	00d79bb3          	sll	s7,a5,a3
    b438:	01776bb3          	or	s7,a4,s7
    b43c:	00100793          	li	a5,1
    b440:	00d79b33          	sll	s6,a5,a3
    b444:	016567b3          	or	a5,a0,s6
    b448:	f6f42023          	sw	a5,-160(s0)
    b44c:	0175e7b3          	or	a5,a1,s7
    b450:	f6f42223          	sw	a5,-156(s0)
    b454:	fcc42783          	lw	a5,-52(s0)
    b458:	00379713          	sll	a4,a5,0x3
    b45c:	fc442783          	lw	a5,-60(s0)
    b460:	00e786b3          	add	a3,a5,a4
    b464:	f6042703          	lw	a4,-160(s0)
    b468:	f6442783          	lw	a5,-156(s0)
    b46c:	00e6a023          	sw	a4,0(a3)
    b470:	00f6a223          	sw	a5,4(a3)
    b474:	fcc42703          	lw	a4,-52(s0)
    b478:	00300793          	li	a5,3
    b47c:	00f70863          	beq	a4,a5,b48c <make_move+0x2c0>
    b480:	fcc42703          	lw	a4,-52(s0)
    b484:	00500793          	li	a5,5
    b488:	00f71a63          	bne	a4,a5,b49c <make_move+0x2d0>
    b48c:	fcc42603          	lw	a2,-52(s0)
    b490:	f9842583          	lw	a1,-104(s0)
    b494:	f9c42503          	lw	a0,-100(s0)
    b498:	c1dff0ef          	jal	b0b4 <update_castling_availability>
    b49c:	f9442683          	lw	a3,-108(s0)
    b4a0:	41f6d793          	sra	a5,a3,0x1f
    b4a4:	01d7d713          	srl	a4,a5,0x1d
    b4a8:	00e687b3          	add	a5,a3,a4
    b4ac:	0077f793          	and	a5,a5,7
    b4b0:	40e787b3          	sub	a5,a5,a4
    b4b4:	00078613          	mv	a2,a5
    b4b8:	f9842683          	lw	a3,-104(s0)
    b4bc:	41f6d793          	sra	a5,a3,0x1f
    b4c0:	01d7d713          	srl	a4,a5,0x1d
    b4c4:	00e687b3          	add	a5,a3,a4
    b4c8:	0077f793          	and	a5,a5,7
    b4cc:	40e787b3          	sub	a5,a5,a4
    b4d0:	40f607b3          	sub	a5,a2,a5
    b4d4:	faf42e23          	sw	a5,-68(s0)
    b4d8:	fcc42703          	lw	a4,-52(s0)
    b4dc:	00500793          	li	a5,5
    b4e0:	18f71463          	bne	a4,a5,b668 <make_move+0x49c>
    b4e4:	fbc42783          	lw	a5,-68(s0)
    b4e8:	41f7d693          	sra	a3,a5,0x1f
    b4ec:	fbc42783          	lw	a5,-68(s0)
    b4f0:	00f6c733          	xor	a4,a3,a5
    b4f4:	40d70733          	sub	a4,a4,a3
    b4f8:	00100793          	li	a5,1
    b4fc:	16e7d663          	bge	a5,a4,b668 <make_move+0x49c>
    b500:	fbc42783          	lw	a5,-68(s0)
    b504:	0007d863          	bgez	a5,b514 <make_move+0x348>
    b508:	f9842783          	lw	a5,-104(s0)
    b50c:	ffc78793          	add	a5,a5,-4
    b510:	00c0006f          	j	b51c <make_move+0x350>
    b514:	f9842783          	lw	a5,-104(s0)
    b518:	00378793          	add	a5,a5,3
    b51c:	faf42c23          	sw	a5,-72(s0)
    b520:	fbc42783          	lw	a5,-68(s0)
    b524:	0007d863          	bgez	a5,b534 <make_move+0x368>
    b528:	f9842783          	lw	a5,-104(s0)
    b52c:	fff78793          	add	a5,a5,-1
    b530:	00c0006f          	j	b53c <make_move+0x370>
    b534:	f9842783          	lw	a5,-104(s0)
    b538:	00178793          	add	a5,a5,1
    b53c:	faf42a23          	sw	a5,-76(s0)
    b540:	fc442783          	lw	a5,-60(s0)
    b544:	01878793          	add	a5,a5,24
    b548:	0007a703          	lw	a4,0(a5)
    b54c:	0047a783          	lw	a5,4(a5)
    b550:	00070513          	mv	a0,a4
    b554:	00078593          	mv	a1,a5
    b558:	fb842683          	lw	a3,-72(s0)
    b55c:	fe068713          	add	a4,a3,-32
    b560:	00074a63          	bltz	a4,b574 <make_move+0x3a8>
    b564:	00100793          	li	a5,1
    b568:	00e79cb3          	sll	s9,a5,a4
    b56c:	00000c13          	li	s8,0
    b570:	02c0006f          	j	b59c <make_move+0x3d0>
    b574:	00100793          	li	a5,1
    b578:	0017d713          	srl	a4,a5,0x1
    b57c:	01f00793          	li	a5,31
    b580:	40d787b3          	sub	a5,a5,a3
    b584:	00f75733          	srl	a4,a4,a5
    b588:	00000793          	li	a5,0
    b58c:	00d79cb3          	sll	s9,a5,a3
    b590:	01976cb3          	or	s9,a4,s9
    b594:	00100793          	li	a5,1
    b598:	00d79c33          	sll	s8,a5,a3
    b59c:	fffc4793          	not	a5,s8
    b5a0:	f4f42c23          	sw	a5,-168(s0)
    b5a4:	fffcc793          	not	a5,s9
    b5a8:	f4f42e23          	sw	a5,-164(s0)
    b5ac:	f5842683          	lw	a3,-168(s0)
    b5b0:	f5c42703          	lw	a4,-164(s0)
    b5b4:	00068793          	mv	a5,a3
    b5b8:	00f577b3          	and	a5,a0,a5
    b5bc:	f4f42823          	sw	a5,-176(s0)
    b5c0:	00070793          	mv	a5,a4
    b5c4:	00f5f7b3          	and	a5,a1,a5
    b5c8:	f4f42a23          	sw	a5,-172(s0)
    b5cc:	fc442783          	lw	a5,-60(s0)
    b5d0:	01878693          	add	a3,a5,24
    b5d4:	f5042703          	lw	a4,-176(s0)
    b5d8:	f5442783          	lw	a5,-172(s0)
    b5dc:	00e6a023          	sw	a4,0(a3)
    b5e0:	00f6a223          	sw	a5,4(a3)
    b5e4:	fc442783          	lw	a5,-60(s0)
    b5e8:	01878793          	add	a5,a5,24
    b5ec:	0007a703          	lw	a4,0(a5)
    b5f0:	0047a783          	lw	a5,4(a5)
    b5f4:	00070513          	mv	a0,a4
    b5f8:	00078593          	mv	a1,a5
    b5fc:	fb442683          	lw	a3,-76(s0)
    b600:	fe068713          	add	a4,a3,-32
    b604:	00074a63          	bltz	a4,b618 <make_move+0x44c>
    b608:	00100793          	li	a5,1
    b60c:	00e79db3          	sll	s11,a5,a4
    b610:	00000d13          	li	s10,0
    b614:	02c0006f          	j	b640 <make_move+0x474>
    b618:	00100793          	li	a5,1
    b61c:	0017d713          	srl	a4,a5,0x1
    b620:	01f00793          	li	a5,31
    b624:	40d787b3          	sub	a5,a5,a3
    b628:	00f75733          	srl	a4,a4,a5
    b62c:	00000793          	li	a5,0
    b630:	00d79db3          	sll	s11,a5,a3
    b634:	01b76db3          	or	s11,a4,s11
    b638:	00100793          	li	a5,1
    b63c:	00d79d33          	sll	s10,a5,a3
    b640:	01a567b3          	or	a5,a0,s10
    b644:	f4f42423          	sw	a5,-184(s0)
    b648:	01b5e7b3          	or	a5,a1,s11
    b64c:	f4f42623          	sw	a5,-180(s0)
    b650:	fc442783          	lw	a5,-60(s0)
    b654:	01878693          	add	a3,a5,24
    b658:	f4842703          	lw	a4,-184(s0)
    b65c:	f4c42783          	lw	a5,-180(s0)
    b660:	00e6a023          	sw	a4,0(a3)
    b664:	00f6a223          	sw	a5,4(a3)
    b668:	fcc42783          	lw	a5,-52(s0)
    b66c:	10079a63          	bnez	a5,b780 <make_move+0x5b4>
    b670:	f9442703          	lw	a4,-108(s0)
    b674:	fc842783          	lw	a5,-56(s0)
    b678:	10f71463          	bne	a4,a5,b780 <make_move+0x5b4>
    b67c:	f9442683          	lw	a3,-108(s0)
    b680:	41f6d793          	sra	a5,a3,0x1f
    b684:	01d7d713          	srl	a4,a5,0x1d
    b688:	00e687b3          	add	a5,a3,a4
    b68c:	0077f793          	and	a5,a5,7
    b690:	40e787b3          	sub	a5,a5,a4
    b694:	00078613          	mv	a2,a5
    b698:	f9842683          	lw	a3,-104(s0)
    b69c:	41f6d793          	sra	a5,a3,0x1f
    b6a0:	01d7d713          	srl	a4,a5,0x1d
    b6a4:	00e687b3          	add	a5,a3,a4
    b6a8:	0077f793          	and	a5,a5,7
    b6ac:	40e787b3          	sub	a5,a5,a4
    b6b0:	40f60733          	sub	a4,a2,a5
    b6b4:	f9842783          	lw	a5,-104(s0)
    b6b8:	00e787b3          	add	a5,a5,a4
    b6bc:	faf42823          	sw	a5,-80(s0)
    b6c0:	fc042783          	lw	a5,-64(s0)
    b6c4:	0007a703          	lw	a4,0(a5)
    b6c8:	0047a783          	lw	a5,4(a5)
    b6cc:	00070513          	mv	a0,a4
    b6d0:	00078593          	mv	a1,a5
    b6d4:	fb042683          	lw	a3,-80(s0)
    b6d8:	fe068713          	add	a4,a3,-32
    b6dc:	00074c63          	bltz	a4,b6f4 <make_move+0x528>
    b6e0:	00100793          	li	a5,1
    b6e4:	00e797b3          	sll	a5,a5,a4
    b6e8:	f8f42623          	sw	a5,-116(s0)
    b6ec:	f8042423          	sw	zero,-120(s0)
    b6f0:	03c0006f          	j	b72c <make_move+0x560>
    b6f4:	00100793          	li	a5,1
    b6f8:	0017d713          	srl	a4,a5,0x1
    b6fc:	01f00793          	li	a5,31
    b700:	40d787b3          	sub	a5,a5,a3
    b704:	00f75733          	srl	a4,a4,a5
    b708:	00000793          	li	a5,0
    b70c:	00d797b3          	sll	a5,a5,a3
    b710:	f8f42623          	sw	a5,-116(s0)
    b714:	f8c42783          	lw	a5,-116(s0)
    b718:	00f767b3          	or	a5,a4,a5
    b71c:	f8f42623          	sw	a5,-116(s0)
    b720:	00100793          	li	a5,1
    b724:	00d797b3          	sll	a5,a5,a3
    b728:	f8f42423          	sw	a5,-120(s0)
    b72c:	f8842683          	lw	a3,-120(s0)
    b730:	f8c42703          	lw	a4,-116(s0)
    b734:	00068793          	mv	a5,a3
    b738:	fff7c793          	not	a5,a5
    b73c:	f4f42023          	sw	a5,-192(s0)
    b740:	00070793          	mv	a5,a4
    b744:	fff7c793          	not	a5,a5
    b748:	f4f42223          	sw	a5,-188(s0)
    b74c:	f4042683          	lw	a3,-192(s0)
    b750:	f4442703          	lw	a4,-188(s0)
    b754:	00068793          	mv	a5,a3
    b758:	00f577b3          	and	a5,a0,a5
    b75c:	f2f42c23          	sw	a5,-200(s0)
    b760:	00070793          	mv	a5,a4
    b764:	00f5f7b3          	and	a5,a1,a5
    b768:	f2f42e23          	sw	a5,-196(s0)
    b76c:	f3842603          	lw	a2,-200(s0)
    b770:	f3c42683          	lw	a3,-196(s0)
    b774:	fc042783          	lw	a5,-64(s0)
    b778:	00c7a023          	sw	a2,0(a5)
    b77c:	00d7a223          	sw	a3,4(a5)
    b780:	f9442703          	lw	a4,-108(s0)
    b784:	41f75793          	sra	a5,a4,0x1f
    b788:	0077f793          	and	a5,a5,7
    b78c:	00e787b3          	add	a5,a5,a4
    b790:	4037d793          	sra	a5,a5,0x3
    b794:	00078693          	mv	a3,a5
    b798:	f9842703          	lw	a4,-104(s0)
    b79c:	41f75793          	sra	a5,a4,0x1f
    b7a0:	0077f793          	and	a5,a5,7
    b7a4:	00e787b3          	add	a5,a5,a4
    b7a8:	4037d793          	sra	a5,a5,0x3
    b7ac:	40f007b3          	neg	a5,a5
    b7b0:	00f687b3          	add	a5,a3,a5
    b7b4:	faf42623          	sw	a5,-84(s0)
    b7b8:	fcc42783          	lw	a5,-52(s0)
    b7bc:	02079c63          	bnez	a5,b7f4 <make_move+0x628>
    b7c0:	fac42783          	lw	a5,-84(s0)
    b7c4:	41f7d693          	sra	a3,a5,0x1f
    b7c8:	fac42783          	lw	a5,-84(s0)
    b7cc:	00f6c733          	xor	a4,a3,a5
    b7d0:	40d70733          	sub	a4,a4,a3
    b7d4:	00100793          	li	a5,1
    b7d8:	00e7de63          	bge	a5,a4,b7f4 <make_move+0x628>
    b7dc:	fac42783          	lw	a5,-84(s0)
    b7e0:	00279713          	sll	a4,a5,0x2
    b7e4:	f9842783          	lw	a5,-104(s0)
    b7e8:	00f70733          	add	a4,a4,a5
    b7ec:	f9c42783          	lw	a5,-100(s0)
    b7f0:	26e7a023          	sw	a4,608(a5)
    b7f4:	fcc42783          	lw	a5,-52(s0)
    b7f8:	02079863          	bnez	a5,b828 <make_move+0x65c>
    b7fc:	f9442783          	lw	a5,-108(s0)
    b800:	00778713          	add	a4,a5,7
    b804:	00e00793          	li	a5,14
    b808:	00e7fa63          	bgeu	a5,a4,b81c <make_move+0x650>
    b80c:	f9442783          	lw	a5,-108(s0)
    b810:	fc878713          	add	a4,a5,-56
    b814:	00700793          	li	a5,7
    b818:	00e7e863          	bltu	a5,a4,b828 <make_move+0x65c>
    b81c:	f9c42703          	lw	a4,-100(s0)
    b820:	00300793          	li	a5,3
    b824:	28f72023          	sw	a5,640(a4)
    b828:	fcc42783          	lw	a5,-52(s0)
    b82c:	00379713          	sll	a4,a5,0x3
    b830:	fc042783          	lw	a5,-64(s0)
    b834:	00e787b3          	add	a5,a5,a4
    b838:	0007a703          	lw	a4,0(a5)
    b83c:	0047a783          	lw	a5,4(a5)
    b840:	00070513          	mv	a0,a4
    b844:	00078593          	mv	a1,a5
    b848:	f9442683          	lw	a3,-108(s0)
    b84c:	fe068713          	add	a4,a3,-32
    b850:	00074c63          	bltz	a4,b868 <make_move+0x69c>
    b854:	00100793          	li	a5,1
    b858:	00e797b3          	sll	a5,a5,a4
    b85c:	f8f42223          	sw	a5,-124(s0)
    b860:	f8042023          	sw	zero,-128(s0)
    b864:	03c0006f          	j	b8a0 <make_move+0x6d4>
    b868:	00100793          	li	a5,1
    b86c:	0017d713          	srl	a4,a5,0x1
    b870:	01f00793          	li	a5,31
    b874:	40d787b3          	sub	a5,a5,a3
    b878:	00f75733          	srl	a4,a4,a5
    b87c:	00000793          	li	a5,0
    b880:	00d797b3          	sll	a5,a5,a3
    b884:	f8f42223          	sw	a5,-124(s0)
    b888:	f8442783          	lw	a5,-124(s0)
    b88c:	00f767b3          	or	a5,a4,a5
    b890:	f8f42223          	sw	a5,-124(s0)
    b894:	00100793          	li	a5,1
    b898:	00d797b3          	sll	a5,a5,a3
    b89c:	f8f42023          	sw	a5,-128(s0)
    b8a0:	f8042683          	lw	a3,-128(s0)
    b8a4:	f8442703          	lw	a4,-124(s0)
    b8a8:	00068793          	mv	a5,a3
    b8ac:	fff7c793          	not	a5,a5
    b8b0:	f2f42823          	sw	a5,-208(s0)
    b8b4:	00070793          	mv	a5,a4
    b8b8:	fff7c793          	not	a5,a5
    b8bc:	f2f42a23          	sw	a5,-204(s0)
    b8c0:	f3042683          	lw	a3,-208(s0)
    b8c4:	f3442703          	lw	a4,-204(s0)
    b8c8:	00068793          	mv	a5,a3
    b8cc:	00f577b3          	and	a5,a0,a5
    b8d0:	f2f42423          	sw	a5,-216(s0)
    b8d4:	00070793          	mv	a5,a4
    b8d8:	00f5f7b3          	and	a5,a1,a5
    b8dc:	f2f42623          	sw	a5,-212(s0)
    b8e0:	fcc42783          	lw	a5,-52(s0)
    b8e4:	00379713          	sll	a4,a5,0x3
    b8e8:	fc042783          	lw	a5,-64(s0)
    b8ec:	00e786b3          	add	a3,a5,a4
    b8f0:	f2842703          	lw	a4,-216(s0)
    b8f4:	f2c42783          	lw	a5,-212(s0)
    b8f8:	00e6a023          	sw	a4,0(a3)
    b8fc:	00f6a223          	sw	a5,4(a3)
    b900:	fcc42783          	lw	a5,-52(s0)
    b904:	00178793          	add	a5,a5,1
    b908:	fcf42623          	sw	a5,-52(s0)
    b90c:	fcc42703          	lw	a4,-52(s0)
    b910:	00500793          	li	a5,5
    b914:	9ae7f0e3          	bgeu	a5,a4,b2b4 <make_move+0xe8>
    b918:	f9c42783          	lw	a5,-100(s0)
    b91c:	2807a703          	lw	a4,640(a5)
    b920:	00300793          	li	a5,3
    b924:	02f70663          	beq	a4,a5,b950 <make_move+0x784>
    b928:	f9c42783          	lw	a5,-100(s0)
    b92c:	27c7a783          	lw	a5,636(a5)
    b930:	fff78793          	add	a5,a5,-1
    b934:	00f037b3          	snez	a5,a5
    b938:	0ff7f793          	zext.b	a5,a5
    b93c:	00078713          	mv	a4,a5
    b940:	f9c42783          	lw	a5,-100(s0)
    b944:	26e7ae23          	sw	a4,636(a5)
    b948:	0080006f          	j	b950 <make_move+0x784>
    b94c:	00000013          	nop
    b950:	0dc12083          	lw	ra,220(sp)
    b954:	0d812403          	lw	s0,216(sp)
    b958:	0d412903          	lw	s2,212(sp)
    b95c:	0d012983          	lw	s3,208(sp)
    b960:	0cc12a03          	lw	s4,204(sp)
    b964:	0c812a83          	lw	s5,200(sp)
    b968:	0c412b03          	lw	s6,196(sp)
    b96c:	0c012b83          	lw	s7,192(sp)
    b970:	0bc12c03          	lw	s8,188(sp)
    b974:	0b812c83          	lw	s9,184(sp)
    b978:	0b412d03          	lw	s10,180(sp)
    b97c:	0b012d83          	lw	s11,176(sp)
    b980:	0e010113          	add	sp,sp,224
    b984:	00008067          	ret

0000b988 <select_promotion>:
    b988:	fb010113          	add	sp,sp,-80
    b98c:	04112623          	sw	ra,76(sp)
    b990:	04812423          	sw	s0,72(sp)
    b994:	05212223          	sw	s2,68(sp)
    b998:	05312023          	sw	s3,64(sp)
    b99c:	03412e23          	sw	s4,60(sp)
    b9a0:	03512c23          	sw	s5,56(sp)
    b9a4:	03612a23          	sw	s6,52(sp)
    b9a8:	03712823          	sw	s7,48(sp)
    b9ac:	03812623          	sw	s8,44(sp)
    b9b0:	03912423          	sw	s9,40(sp)
    b9b4:	03a12223          	sw	s10,36(sp)
    b9b8:	03b12023          	sw	s11,32(sp)
    b9bc:	05010413          	add	s0,sp,80
    b9c0:	faa42e23          	sw	a0,-68(s0)
    b9c4:	fab42c23          	sw	a1,-72(s0)
    b9c8:	fbc42503          	lw	a0,-68(s0)
    b9cc:	b34fe0ef          	jal	9d00 <get_player_board>
    b9d0:	fca42623          	sw	a0,-52(s0)
    b9d4:	fbc42503          	lw	a0,-68(s0)
    b9d8:	680000ef          	jal	c058 <chess_get_promoting_pawn>
    b9dc:	fca42423          	sw	a0,-56(s0)
    b9e0:	fcc42783          	lw	a5,-52(s0)
    b9e4:	0007a703          	lw	a4,0(a5)
    b9e8:	0047a783          	lw	a5,4(a5)
    b9ec:	00070613          	mv	a2,a4
    b9f0:	00078693          	mv	a3,a5
    b9f4:	fc842783          	lw	a5,-56(s0)
    b9f8:	fe078713          	add	a4,a5,-32
    b9fc:	00074a63          	bltz	a4,ba10 <select_promotion+0x88>
    ba00:	00100793          	li	a5,1
    ba04:	00e79ab3          	sll	s5,a5,a4
    ba08:	00000a13          	li	s4,0
    ba0c:	02c0006f          	j	ba38 <select_promotion+0xb0>
    ba10:	00100713          	li	a4,1
    ba14:	00175593          	srl	a1,a4,0x1
    ba18:	01f00713          	li	a4,31
    ba1c:	40f70733          	sub	a4,a4,a5
    ba20:	00e5d733          	srl	a4,a1,a4
    ba24:	00000593          	li	a1,0
    ba28:	00f59ab3          	sll	s5,a1,a5
    ba2c:	01576ab3          	or	s5,a4,s5
    ba30:	00100713          	li	a4,1
    ba34:	00f71a33          	sll	s4,a4,a5
    ba38:	fffa4b13          	not	s6,s4
    ba3c:	fffacb93          	not	s7,s5
    ba40:	01667d33          	and	s10,a2,s6
    ba44:	0176fdb3          	and	s11,a3,s7
    ba48:	000d0713          	mv	a4,s10
    ba4c:	000d8793          	mv	a5,s11
    ba50:	fcc42683          	lw	a3,-52(s0)
    ba54:	00e6a023          	sw	a4,0(a3)
    ba58:	00f6a223          	sw	a5,4(a3)
    ba5c:	0000f7b7          	lui	a5,0xf
    ba60:	89478713          	add	a4,a5,-1900 # e894 <chess_promotions>
    ba64:	fb842783          	lw	a5,-72(s0)
    ba68:	00279793          	sll	a5,a5,0x2
    ba6c:	00f707b3          	add	a5,a4,a5
    ba70:	0007a783          	lw	a5,0(a5)
    ba74:	00379793          	sll	a5,a5,0x3
    ba78:	fcc42703          	lw	a4,-52(s0)
    ba7c:	00f707b3          	add	a5,a4,a5
    ba80:	0007a703          	lw	a4,0(a5)
    ba84:	0047a783          	lw	a5,4(a5)
    ba88:	00070613          	mv	a2,a4
    ba8c:	00078693          	mv	a3,a5
    ba90:	fc842783          	lw	a5,-56(s0)
    ba94:	fe078713          	add	a4,a5,-32
    ba98:	00074a63          	bltz	a4,baac <select_promotion+0x124>
    ba9c:	00100793          	li	a5,1
    baa0:	00e799b3          	sll	s3,a5,a4
    baa4:	00000913          	li	s2,0
    baa8:	02c0006f          	j	bad4 <select_promotion+0x14c>
    baac:	00100713          	li	a4,1
    bab0:	00175593          	srl	a1,a4,0x1
    bab4:	01f00713          	li	a4,31
    bab8:	40f70733          	sub	a4,a4,a5
    babc:	00e5d733          	srl	a4,a1,a4
    bac0:	00000593          	li	a1,0
    bac4:	00f599b3          	sll	s3,a1,a5
    bac8:	013769b3          	or	s3,a4,s3
    bacc:	00100713          	li	a4,1
    bad0:	00f71933          	sll	s2,a4,a5
    bad4:	01266c33          	or	s8,a2,s2
    bad8:	0136ecb3          	or	s9,a3,s3
    badc:	0000f7b7          	lui	a5,0xf
    bae0:	89478713          	add	a4,a5,-1900 # e894 <chess_promotions>
    bae4:	fb842783          	lw	a5,-72(s0)
    bae8:	00279793          	sll	a5,a5,0x2
    baec:	00f707b3          	add	a5,a4,a5
    baf0:	0007a783          	lw	a5,0(a5)
    baf4:	00379793          	sll	a5,a5,0x3
    baf8:	fcc42703          	lw	a4,-52(s0)
    bafc:	00f706b3          	add	a3,a4,a5
    bb00:	000c0713          	mv	a4,s8
    bb04:	000c8793          	mv	a5,s9
    bb08:	00e6a023          	sw	a4,0(a3)
    bb0c:	00f6a223          	sw	a5,4(a3)
    bb10:	fbc42783          	lw	a5,-68(s0)
    bb14:	27c7a783          	lw	a5,636(a5)
    bb18:	fff78793          	add	a5,a5,-1
    bb1c:	00f037b3          	snez	a5,a5
    bb20:	0ff7f793          	zext.b	a5,a5
    bb24:	00078713          	mv	a4,a5
    bb28:	fbc42783          	lw	a5,-68(s0)
    bb2c:	26e7ae23          	sw	a4,636(a5)
    bb30:	fbc42783          	lw	a5,-68(s0)
    bb34:	fff00713          	li	a4,-1
    bb38:	26e7ac23          	sw	a4,632(a5)
    bb3c:	fbc42783          	lw	a5,-68(s0)
    bb40:	fff00713          	li	a4,-1
    bb44:	28e7a023          	sw	a4,640(a5)
    bb48:	00000013          	nop
    bb4c:	04c12083          	lw	ra,76(sp)
    bb50:	04812403          	lw	s0,72(sp)
    bb54:	04412903          	lw	s2,68(sp)
    bb58:	04012983          	lw	s3,64(sp)
    bb5c:	03c12a03          	lw	s4,60(sp)
    bb60:	03812a83          	lw	s5,56(sp)
    bb64:	03412b03          	lw	s6,52(sp)
    bb68:	03012b83          	lw	s7,48(sp)
    bb6c:	02c12c03          	lw	s8,44(sp)
    bb70:	02812c83          	lw	s9,40(sp)
    bb74:	02412d03          	lw	s10,36(sp)
    bb78:	02012d83          	lw	s11,32(sp)
    bb7c:	05010113          	add	sp,sp,80
    bb80:	00008067          	ret

0000bb84 <filter_illegal_moves>:
    bb84:	d3010113          	add	sp,sp,-720
    bb88:	2c112623          	sw	ra,716(sp)
    bb8c:	2c812423          	sw	s0,712(sp)
    bb90:	2d212223          	sw	s2,708(sp)
    bb94:	2d312023          	sw	s3,704(sp)
    bb98:	2b412e23          	sw	s4,700(sp)
    bb9c:	2b512c23          	sw	s5,696(sp)
    bba0:	2b612a23          	sw	s6,692(sp)
    bba4:	2b712823          	sw	s7,688(sp)
    bba8:	2b812623          	sw	s8,684(sp)
    bbac:	2b912423          	sw	s9,680(sp)
    bbb0:	2ba12223          	sw	s10,676(sp)
    bbb4:	2bb12023          	sw	s11,672(sp)
    bbb8:	2d010413          	add	s0,sp,720
    bbbc:	d2a42e23          	sw	a0,-708(s0)
    bbc0:	fc042623          	sw	zero,-52(s0)
    bbc4:	1ac0006f          	j	bd70 <filter_illegal_moves+0x1ec>
    bbc8:	fc042423          	sw	zero,-56(s0)
    bbcc:	18c0006f          	j	bd58 <filter_illegal_moves+0x1d4>
    bbd0:	d3c42703          	lw	a4,-708(s0)
    bbd4:	fcc42783          	lw	a5,-52(s0)
    bbd8:	00c78793          	add	a5,a5,12
    bbdc:	00379793          	sll	a5,a5,0x3
    bbe0:	00f707b3          	add	a5,a4,a5
    bbe4:	0007a703          	lw	a4,0(a5)
    bbe8:	0047a783          	lw	a5,4(a5)
    bbec:	fc842683          	lw	a3,-56(s0)
    bbf0:	fe068613          	add	a2,a3,-32
    bbf4:	00064863          	bltz	a2,bc04 <filter_illegal_moves+0x80>
    bbf8:	00c7d933          	srl	s2,a5,a2
    bbfc:	00000993          	li	s3,0
    bc00:	0200006f          	j	bc20 <filter_illegal_moves+0x9c>
    bc04:	00179593          	sll	a1,a5,0x1
    bc08:	01f00613          	li	a2,31
    bc0c:	40d60633          	sub	a2,a2,a3
    bc10:	00c59633          	sll	a2,a1,a2
    bc14:	00d75933          	srl	s2,a4,a3
    bc18:	01266933          	or	s2,a2,s2
    bc1c:	00d7d9b3          	srl	s3,a5,a3
    bc20:	00197c13          	and	s8,s2,1
    bc24:	0009fc93          	and	s9,s3,0
    bc28:	000c0793          	mv	a5,s8
    bc2c:	0197e7b3          	or	a5,a5,s9
    bc30:	10078e63          	beqz	a5,bd4c <filter_illegal_moves+0x1c8>
    bc34:	d3c42703          	lw	a4,-708(s0)
    bc38:	d4040793          	add	a5,s0,-704
    bc3c:	00070693          	mv	a3,a4
    bc40:	28800713          	li	a4,648
    bc44:	00070613          	mv	a2,a4
    bc48:	00068593          	mv	a1,a3
    bc4c:	00078513          	mv	a0,a5
    bc50:	dc0f40ef          	jal	210 <memcpy>
    bc54:	d4040793          	add	a5,s0,-704
    bc58:	fc842603          	lw	a2,-56(s0)
    bc5c:	fcc42583          	lw	a1,-52(s0)
    bc60:	00078513          	mv	a0,a5
    bc64:	d68ff0ef          	jal	b1cc <make_move>
    bc68:	fbc42703          	lw	a4,-68(s0)
    bc6c:	d3c42783          	lw	a5,-708(s0)
    bc70:	27c7a783          	lw	a5,636(a5)
    bc74:	00f71a63          	bne	a4,a5,bc88 <filter_illegal_moves+0x104>
    bc78:	d4040793          	add	a5,s0,-704
    bc7c:	00000593          	li	a1,0
    bc80:	00078513          	mv	a0,a5
    bc84:	d05ff0ef          	jal	b988 <select_promotion>
    bc88:	fbc42783          	lw	a5,-68(s0)
    bc8c:	fff78793          	add	a5,a5,-1
    bc90:	00f037b3          	snez	a5,a5
    bc94:	0ff7f793          	zext.b	a5,a5
    bc98:	faf42e23          	sw	a5,-68(s0)
    bc9c:	d4040793          	add	a5,s0,-704
    bca0:	00078513          	mv	a0,a5
    bca4:	e70fe0ef          	jal	a314 <king_in_check>
    bca8:	00050793          	mv	a5,a0
    bcac:	0a078063          	beqz	a5,bd4c <filter_illegal_moves+0x1c8>
    bcb0:	d3c42703          	lw	a4,-708(s0)
    bcb4:	fcc42783          	lw	a5,-52(s0)
    bcb8:	00c78793          	add	a5,a5,12
    bcbc:	00379793          	sll	a5,a5,0x3
    bcc0:	00f707b3          	add	a5,a4,a5
    bcc4:	0007a703          	lw	a4,0(a5)
    bcc8:	0047a783          	lw	a5,4(a5)
    bccc:	00070613          	mv	a2,a4
    bcd0:	00078693          	mv	a3,a5
    bcd4:	fc842783          	lw	a5,-56(s0)
    bcd8:	fe078713          	add	a4,a5,-32
    bcdc:	00074a63          	bltz	a4,bcf0 <filter_illegal_moves+0x16c>
    bce0:	00100793          	li	a5,1
    bce4:	00e79ab3          	sll	s5,a5,a4
    bce8:	00000a13          	li	s4,0
    bcec:	02c0006f          	j	bd18 <filter_illegal_moves+0x194>
    bcf0:	00100713          	li	a4,1
    bcf4:	00175593          	srl	a1,a4,0x1
    bcf8:	01f00713          	li	a4,31
    bcfc:	40f70733          	sub	a4,a4,a5
    bd00:	00e5d733          	srl	a4,a1,a4
    bd04:	00000593          	li	a1,0
    bd08:	00f59ab3          	sll	s5,a1,a5
    bd0c:	01576ab3          	or	s5,a4,s5
    bd10:	00100713          	li	a4,1
    bd14:	00f71a33          	sll	s4,a4,a5
    bd18:	fffa4b13          	not	s6,s4
    bd1c:	fffacb93          	not	s7,s5
    bd20:	01667d33          	and	s10,a2,s6
    bd24:	0176fdb3          	and	s11,a3,s7
    bd28:	000d0713          	mv	a4,s10
    bd2c:	000d8793          	mv	a5,s11
    bd30:	d3c42603          	lw	a2,-708(s0)
    bd34:	fcc42683          	lw	a3,-52(s0)
    bd38:	00c68693          	add	a3,a3,12
    bd3c:	00369693          	sll	a3,a3,0x3
    bd40:	00d606b3          	add	a3,a2,a3
    bd44:	00e6a023          	sw	a4,0(a3)
    bd48:	00f6a223          	sw	a5,4(a3)
    bd4c:	fc842783          	lw	a5,-56(s0)
    bd50:	00178793          	add	a5,a5,1
    bd54:	fcf42423          	sw	a5,-56(s0)
    bd58:	fc842703          	lw	a4,-56(s0)
    bd5c:	03f00793          	li	a5,63
    bd60:	e6e7d8e3          	bge	a5,a4,bbd0 <filter_illegal_moves+0x4c>
    bd64:	fcc42783          	lw	a5,-52(s0)
    bd68:	00178793          	add	a5,a5,1
    bd6c:	fcf42623          	sw	a5,-52(s0)
    bd70:	fcc42703          	lw	a4,-52(s0)
    bd74:	03f00793          	li	a5,63
    bd78:	e4e7d8e3          	bge	a5,a4,bbc8 <filter_illegal_moves+0x44>
    bd7c:	00000013          	nop
    bd80:	00000013          	nop
    bd84:	2cc12083          	lw	ra,716(sp)
    bd88:	2c812403          	lw	s0,712(sp)
    bd8c:	2c412903          	lw	s2,708(sp)
    bd90:	2c012983          	lw	s3,704(sp)
    bd94:	2bc12a03          	lw	s4,700(sp)
    bd98:	2b812a83          	lw	s5,696(sp)
    bd9c:	2b412b03          	lw	s6,692(sp)
    bda0:	2b012b83          	lw	s7,688(sp)
    bda4:	2ac12c03          	lw	s8,684(sp)
    bda8:	2a812c83          	lw	s9,680(sp)
    bdac:	2a412d03          	lw	s10,676(sp)
    bdb0:	2a012d83          	lw	s11,672(sp)
    bdb4:	2d010113          	add	sp,sp,720
    bdb8:	00008067          	ret

0000bdbc <chess_generate_available_moves>:
    bdbc:	fc010113          	add	sp,sp,-64
    bdc0:	02112e23          	sw	ra,60(sp)
    bdc4:	02812c23          	sw	s0,56(sp)
    bdc8:	03212a23          	sw	s2,52(sp)
    bdcc:	03312823          	sw	s3,48(sp)
    bdd0:	03412623          	sw	s4,44(sp)
    bdd4:	03512423          	sw	s5,40(sp)
    bdd8:	04010413          	add	s0,sp,64
    bddc:	fca42623          	sw	a0,-52(s0)
    bde0:	fc042e23          	sw	zero,-36(s0)
    bde4:	0340006f          	j	be18 <chess_generate_available_moves+0x5c>
    bde8:	fcc42703          	lw	a4,-52(s0)
    bdec:	fdc42783          	lw	a5,-36(s0)
    bdf0:	00c78793          	add	a5,a5,12
    bdf4:	00379793          	sll	a5,a5,0x3
    bdf8:	00f707b3          	add	a5,a4,a5
    bdfc:	00000693          	li	a3,0
    be00:	00000713          	li	a4,0
    be04:	00d7a023          	sw	a3,0(a5)
    be08:	00e7a223          	sw	a4,4(a5)
    be0c:	fdc42783          	lw	a5,-36(s0)
    be10:	00178793          	add	a5,a5,1
    be14:	fcf42e23          	sw	a5,-36(s0)
    be18:	fdc42703          	lw	a4,-36(s0)
    be1c:	03f00793          	li	a5,63
    be20:	fce7d4e3          	bge	a5,a4,bde8 <chess_generate_available_moves+0x2c>
    be24:	fcc42503          	lw	a0,-52(s0)
    be28:	ed9fd0ef          	jal	9d00 <get_player_board>
    be2c:	fca42823          	sw	a0,-48(s0)
    be30:	fc042c23          	sw	zero,-40(s0)
    be34:	1200006f          	j	bf54 <chess_generate_available_moves+0x198>
    be38:	fc042a23          	sw	zero,-44(s0)
    be3c:	1000006f          	j	bf3c <chess_generate_available_moves+0x180>
    be40:	fd842783          	lw	a5,-40(s0)
    be44:	00379793          	sll	a5,a5,0x3
    be48:	fd042703          	lw	a4,-48(s0)
    be4c:	00f707b3          	add	a5,a4,a5
    be50:	0007a703          	lw	a4,0(a5)
    be54:	0047a783          	lw	a5,4(a5)
    be58:	fd442683          	lw	a3,-44(s0)
    be5c:	fe068613          	add	a2,a3,-32
    be60:	00064863          	bltz	a2,be70 <chess_generate_available_moves+0xb4>
    be64:	00c7d933          	srl	s2,a5,a2
    be68:	00000993          	li	s3,0
    be6c:	0200006f          	j	be8c <chess_generate_available_moves+0xd0>
    be70:	00179593          	sll	a1,a5,0x1
    be74:	01f00613          	li	a2,31
    be78:	40d60633          	sub	a2,a2,a3
    be7c:	00c59633          	sll	a2,a1,a2
    be80:	00d75933          	srl	s2,a4,a3
    be84:	01266933          	or	s2,a2,s2
    be88:	00d7d9b3          	srl	s3,a5,a3
    be8c:	00197a13          	and	s4,s2,1
    be90:	0009fa93          	and	s5,s3,0
    be94:	000a0793          	mv	a5,s4
    be98:	0157e7b3          	or	a5,a5,s5
    be9c:	08078a63          	beqz	a5,bf30 <chess_generate_available_moves+0x174>
    bea0:	fd842703          	lw	a4,-40(s0)
    bea4:	00500793          	li	a5,5
    bea8:	08e7e463          	bltu	a5,a4,bf30 <chess_generate_available_moves+0x174>
    beac:	fd842783          	lw	a5,-40(s0)
    beb0:	00279713          	sll	a4,a5,0x2
    beb4:	000117b7          	lui	a5,0x11
    beb8:	d5078793          	add	a5,a5,-688 # 10d50 <king_move_offsets+0x20>
    bebc:	00f707b3          	add	a5,a4,a5
    bec0:	0007a783          	lw	a5,0(a5)
    bec4:	00078067          	jr	a5
    bec8:	fd442583          	lw	a1,-44(s0)
    becc:	fcc42503          	lw	a0,-52(s0)
    bed0:	d1cfe0ef          	jal	a3ec <generate_pawn_moves>
    bed4:	05c0006f          	j	bf30 <chess_generate_available_moves+0x174>
    bed8:	fd442583          	lw	a1,-44(s0)
    bedc:	fcc42503          	lw	a0,-52(s0)
    bee0:	9d5fe0ef          	jal	a8b4 <generate_knight_moves>
    bee4:	04c0006f          	j	bf30 <chess_generate_available_moves+0x174>
    bee8:	fd442603          	lw	a2,-44(s0)
    beec:	fd842583          	lw	a1,-40(s0)
    bef0:	fcc42503          	lw	a0,-52(s0)
    bef4:	b25fe0ef          	jal	aa18 <generate_sliding_piece_moves>
    bef8:	0380006f          	j	bf30 <chess_generate_available_moves+0x174>
    befc:	fd442603          	lw	a2,-44(s0)
    bf00:	00200593          	li	a1,2
    bf04:	fcc42503          	lw	a0,-52(s0)
    bf08:	b11fe0ef          	jal	aa18 <generate_sliding_piece_moves>
    bf0c:	fd442603          	lw	a2,-44(s0)
    bf10:	00300593          	li	a1,3
    bf14:	fcc42503          	lw	a0,-52(s0)
    bf18:	b01fe0ef          	jal	aa18 <generate_sliding_piece_moves>
    bf1c:	0140006f          	j	bf30 <chess_generate_available_moves+0x174>
    bf20:	fd442583          	lw	a1,-44(s0)
    bf24:	fcc42503          	lw	a0,-52(s0)
    bf28:	cd9fe0ef          	jal	ac00 <generate_king_moves>
    bf2c:	00000013          	nop
    bf30:	fd442783          	lw	a5,-44(s0)
    bf34:	00178793          	add	a5,a5,1
    bf38:	fcf42a23          	sw	a5,-44(s0)
    bf3c:	fd442703          	lw	a4,-44(s0)
    bf40:	03f00793          	li	a5,63
    bf44:	eee7dee3          	bge	a5,a4,be40 <chess_generate_available_moves+0x84>
    bf48:	fd842783          	lw	a5,-40(s0)
    bf4c:	00178793          	add	a5,a5,1
    bf50:	fcf42c23          	sw	a5,-40(s0)
    bf54:	fd842703          	lw	a4,-40(s0)
    bf58:	00500793          	li	a5,5
    bf5c:	ece7fee3          	bgeu	a5,a4,be38 <chess_generate_available_moves+0x7c>
    bf60:	fcc42503          	lw	a0,-52(s0)
    bf64:	c21ff0ef          	jal	bb84 <filter_illegal_moves>
    bf68:	00000013          	nop
    bf6c:	03c12083          	lw	ra,60(sp)
    bf70:	03812403          	lw	s0,56(sp)
    bf74:	03412903          	lw	s2,52(sp)
    bf78:	03012983          	lw	s3,48(sp)
    bf7c:	02c12a03          	lw	s4,44(sp)
    bf80:	02812a83          	lw	s5,40(sp)
    bf84:	04010113          	add	sp,sp,64
    bf88:	00008067          	ret

0000bf8c <update_game_state>:
    bf8c:	fd010113          	add	sp,sp,-48
    bf90:	02112623          	sw	ra,44(sp)
    bf94:	02812423          	sw	s0,40(sp)
    bf98:	03010413          	add	s0,sp,48
    bf9c:	fca42e23          	sw	a0,-36(s0)
    bfa0:	fe042623          	sw	zero,-20(s0)
    bfa4:	fe042423          	sw	zero,-24(s0)
    bfa8:	0440006f          	j	bfec <update_game_state+0x60>
    bfac:	fdc42703          	lw	a4,-36(s0)
    bfb0:	fe842783          	lw	a5,-24(s0)
    bfb4:	00c78793          	add	a5,a5,12
    bfb8:	00379793          	sll	a5,a5,0x3
    bfbc:	00f707b3          	add	a5,a4,a5
    bfc0:	0007a603          	lw	a2,0(a5)
    bfc4:	0047a683          	lw	a3,4(a5)
    bfc8:	00060793          	mv	a5,a2
    bfcc:	00d7e7b3          	or	a5,a5,a3
    bfd0:	00078863          	beqz	a5,bfe0 <update_game_state+0x54>
    bfd4:	00100793          	li	a5,1
    bfd8:	fef42623          	sw	a5,-20(s0)
    bfdc:	01c0006f          	j	bff8 <update_game_state+0x6c>
    bfe0:	fe842783          	lw	a5,-24(s0)
    bfe4:	00178793          	add	a5,a5,1
    bfe8:	fef42423          	sw	a5,-24(s0)
    bfec:	fe842703          	lw	a4,-24(s0)
    bff0:	03f00793          	li	a5,63
    bff4:	fae7dce3          	bge	a5,a4,bfac <update_game_state+0x20>
    bff8:	fec42783          	lw	a5,-20(s0)
    bffc:	04079463          	bnez	a5,c044 <update_game_state+0xb8>
    c000:	fdc42503          	lw	a0,-36(s0)
    c004:	b10fe0ef          	jal	a314 <king_in_check>
    c008:	00050793          	mv	a5,a0
    c00c:	02078463          	beqz	a5,c034 <update_game_state+0xa8>
    c010:	fdc42783          	lw	a5,-36(s0)
    c014:	27c7a783          	lw	a5,636(a5)
    c018:	fff78793          	add	a5,a5,-1
    c01c:	00f037b3          	snez	a5,a5
    c020:	0ff7f793          	zext.b	a5,a5
    c024:	00078713          	mv	a4,a5
    c028:	fdc42783          	lw	a5,-36(s0)
    c02c:	28e7a023          	sw	a4,640(a5)
    c030:	0180006f          	j	c048 <update_game_state+0xbc>
    c034:	fdc42783          	lw	a5,-36(s0)
    c038:	00200713          	li	a4,2
    c03c:	28e7a023          	sw	a4,640(a5)
    c040:	0080006f          	j	c048 <update_game_state+0xbc>
    c044:	00000013          	nop
    c048:	02c12083          	lw	ra,44(sp)
    c04c:	02812403          	lw	s0,40(sp)
    c050:	03010113          	add	sp,sp,48
    c054:	00008067          	ret

0000c058 <chess_get_promoting_pawn>:
    c058:	fc010113          	add	sp,sp,-64
    c05c:	02112e23          	sw	ra,60(sp)
    c060:	02812c23          	sw	s0,56(sp)
    c064:	03212a23          	sw	s2,52(sp)
    c068:	03312823          	sw	s3,48(sp)
    c06c:	03412623          	sw	s4,44(sp)
    c070:	03512423          	sw	s5,40(sp)
    c074:	04010413          	add	s0,sp,64
    c078:	fca42623          	sw	a0,-52(s0)
    c07c:	fcc42783          	lw	a5,-52(s0)
    c080:	2807a703          	lw	a4,640(a5)
    c084:	00300793          	li	a5,3
    c088:	00f70663          	beq	a4,a5,c094 <chess_get_promoting_pawn+0x3c>
    c08c:	fff00793          	li	a5,-1
    c090:	09c0006f          	j	c12c <chess_get_promoting_pawn+0xd4>
    c094:	fc042e23          	sw	zero,-36(s0)
    c098:	fdc42783          	lw	a5,-36(s0)
    c09c:	00778713          	add	a4,a5,7
    c0a0:	00e00793          	li	a5,14
    c0a4:	00e7fa63          	bgeu	a5,a4,c0b8 <chess_get_promoting_pawn+0x60>
    c0a8:	fdc42783          	lw	a5,-36(s0)
    c0ac:	fc878713          	add	a4,a5,-56
    c0b0:	00700793          	li	a5,7
    c0b4:	06e7e463          	bltu	a5,a4,c11c <chess_get_promoting_pawn+0xc4>
    c0b8:	fcc42503          	lw	a0,-52(s0)
    c0bc:	c45fd0ef          	jal	9d00 <get_player_board>
    c0c0:	00050793          	mv	a5,a0
    c0c4:	0007a703          	lw	a4,0(a5)
    c0c8:	0047a783          	lw	a5,4(a5)
    c0cc:	fdc42683          	lw	a3,-36(s0)
    c0d0:	fe068613          	add	a2,a3,-32
    c0d4:	00064863          	bltz	a2,c0e4 <chess_get_promoting_pawn+0x8c>
    c0d8:	00c7d933          	srl	s2,a5,a2
    c0dc:	00000993          	li	s3,0
    c0e0:	0200006f          	j	c100 <chess_get_promoting_pawn+0xa8>
    c0e4:	00179593          	sll	a1,a5,0x1
    c0e8:	01f00613          	li	a2,31
    c0ec:	40d60633          	sub	a2,a2,a3
    c0f0:	00c59633          	sll	a2,a1,a2
    c0f4:	00d75933          	srl	s2,a4,a3
    c0f8:	01266933          	or	s2,a2,s2
    c0fc:	00d7d9b3          	srl	s3,a5,a3
    c100:	00197a13          	and	s4,s2,1
    c104:	0009fa93          	and	s5,s3,0
    c108:	000a0793          	mv	a5,s4
    c10c:	0157e7b3          	or	a5,a5,s5
    c110:	00078663          	beqz	a5,c11c <chess_get_promoting_pawn+0xc4>
    c114:	fdc42783          	lw	a5,-36(s0)
    c118:	0140006f          	j	c12c <chess_get_promoting_pawn+0xd4>
    c11c:	fdc42783          	lw	a5,-36(s0)
    c120:	00178793          	add	a5,a5,1
    c124:	fcf42e23          	sw	a5,-36(s0)
    c128:	f71ff06f          	j	c098 <chess_get_promoting_pawn+0x40>
    c12c:	00078513          	mv	a0,a5
    c130:	03c12083          	lw	ra,60(sp)
    c134:	03812403          	lw	s0,56(sp)
    c138:	03412903          	lw	s2,52(sp)
    c13c:	03012983          	lw	s3,48(sp)
    c140:	02c12a03          	lw	s4,44(sp)
    c144:	02812a83          	lw	s5,40(sp)
    c148:	04010113          	add	sp,sp,64
    c14c:	00008067          	ret

0000c150 <chess_select_tile>:
    c150:	fe010113          	add	sp,sp,-32
    c154:	00112e23          	sw	ra,28(sp)
    c158:	00812c23          	sw	s0,24(sp)
    c15c:	02010413          	add	s0,sp,32
    c160:	fea42623          	sw	a0,-20(s0)
    c164:	feb42423          	sw	a1,-24(s0)
    c168:	fec42683          	lw	a3,-20(s0)
    c16c:	2806a603          	lw	a2,640(a3)
    c170:	00300693          	li	a3,3
    c174:	04d61863          	bne	a2,a3,c1c4 <chess_select_tile+0x74>
    c178:	fec42503          	lw	a0,-20(s0)
    c17c:	eddff0ef          	jal	c058 <chess_get_promoting_pawn>
    c180:	00050713          	mv	a4,a0
    c184:	fec42783          	lw	a5,-20(s0)
    c188:	26e7aa23          	sw	a4,628(a5)
    c18c:	fe842703          	lw	a4,-24(s0)
    c190:	41f75793          	sra	a5,a4,0x1f
    c194:	01e7d793          	srl	a5,a5,0x1e
    c198:	00f70733          	add	a4,a4,a5
    c19c:	00377713          	and	a4,a4,3
    c1a0:	40f707b3          	sub	a5,a4,a5
    c1a4:	00078593          	mv	a1,a5
    c1a8:	fec42503          	lw	a0,-20(s0)
    c1ac:	fdcff0ef          	jal	b988 <select_promotion>
    c1b0:	fec42503          	lw	a0,-20(s0)
    c1b4:	c09ff0ef          	jal	bdbc <chess_generate_available_moves>
    c1b8:	fec42503          	lw	a0,-20(s0)
    c1bc:	dd1ff0ef          	jal	bf8c <update_game_state>
    c1c0:	0f80006f          	j	c2b8 <chess_select_tile+0x168>
    c1c4:	fec42683          	lw	a3,-20(s0)
    c1c8:	2806a603          	lw	a2,640(a3)
    c1cc:	fff00693          	li	a3,-1
    c1d0:	0ed61263          	bne	a2,a3,c2b4 <chess_select_tile+0x164>
    c1d4:	fec42683          	lw	a3,-20(s0)
    c1d8:	2786a683          	lw	a3,632(a3)
    c1dc:	fe842603          	lw	a2,-24(s0)
    c1e0:	00d61a63          	bne	a2,a3,c1f4 <chess_select_tile+0xa4>
    c1e4:	fec42783          	lw	a5,-20(s0)
    c1e8:	fff00713          	li	a4,-1
    c1ec:	26e7ac23          	sw	a4,632(a5)
    c1f0:	0c80006f          	j	c2b8 <chess_select_tile+0x168>
    c1f4:	fec42683          	lw	a3,-20(s0)
    c1f8:	2786a603          	lw	a2,632(a3)
    c1fc:	fff00693          	li	a3,-1
    c200:	0ad60263          	beq	a2,a3,c2a4 <chess_select_tile+0x154>
    c204:	fec42683          	lw	a3,-20(s0)
    c208:	2786a683          	lw	a3,632(a3)
    c20c:	fec42603          	lw	a2,-20(s0)
    c210:	00c68693          	add	a3,a3,12
    c214:	00369693          	sll	a3,a3,0x3
    c218:	00d606b3          	add	a3,a2,a3
    c21c:	0006a603          	lw	a2,0(a3)
    c220:	0046a683          	lw	a3,4(a3)
    c224:	fe842583          	lw	a1,-24(s0)
    c228:	fe058513          	add	a0,a1,-32
    c22c:	00054863          	bltz	a0,c23c <chess_select_tile+0xec>
    c230:	00a6d733          	srl	a4,a3,a0
    c234:	00000793          	li	a5,0
    c238:	0200006f          	j	c258 <chess_select_tile+0x108>
    c23c:	00169313          	sll	t1,a3,0x1
    c240:	01f00513          	li	a0,31
    c244:	40b50533          	sub	a0,a0,a1
    c248:	00a31533          	sll	a0,t1,a0
    c24c:	00b65733          	srl	a4,a2,a1
    c250:	00e56733          	or	a4,a0,a4
    c254:	00b6d7b3          	srl	a5,a3,a1
    c258:	00177813          	and	a6,a4,1
    c25c:	0007f893          	and	a7,a5,0
    c260:	00080793          	mv	a5,a6
    c264:	0117e7b3          	or	a5,a5,a7
    c268:	02078e63          	beqz	a5,c2a4 <chess_select_tile+0x154>
    c26c:	fec42783          	lw	a5,-20(s0)
    c270:	2787a783          	lw	a5,632(a5)
    c274:	fe842603          	lw	a2,-24(s0)
    c278:	00078593          	mv	a1,a5
    c27c:	fec42503          	lw	a0,-20(s0)
    c280:	f4dfe0ef          	jal	b1cc <make_move>
    c284:	fec42783          	lw	a5,-20(s0)
    c288:	fff00713          	li	a4,-1
    c28c:	26e7ac23          	sw	a4,632(a5)
    c290:	fec42503          	lw	a0,-20(s0)
    c294:	b29ff0ef          	jal	bdbc <chess_generate_available_moves>
    c298:	fec42503          	lw	a0,-20(s0)
    c29c:	cf1ff0ef          	jal	bf8c <update_game_state>
    c2a0:	0180006f          	j	c2b8 <chess_select_tile+0x168>
    c2a4:	fec42783          	lw	a5,-20(s0)
    c2a8:	fe842703          	lw	a4,-24(s0)
    c2ac:	26e7ac23          	sw	a4,632(a5)
    c2b0:	0080006f          	j	c2b8 <chess_select_tile+0x168>
    c2b4:	00000013          	nop
    c2b8:	01c12083          	lw	ra,28(sp)
    c2bc:	01812403          	lw	s0,24(sp)
    c2c0:	02010113          	add	sp,sp,32
    c2c4:	00008067          	ret

0000c2c8 <chess_set_start_position>:
    c2c8:	fd010113          	add	sp,sp,-48
    c2cc:	02812623          	sw	s0,44(sp)
    c2d0:	03010413          	add	s0,sp,48
    c2d4:	fca42e23          	sw	a0,-36(s0)
    c2d8:	fe042623          	sw	zero,-20(s0)
    c2dc:	07c0006f          	j	c358 <chess_set_start_position+0x90>
    c2e0:	000117b7          	lui	a5,0x11
    c2e4:	d9878713          	add	a4,a5,-616 # 10d98 <white_start_position>
    c2e8:	fec42783          	lw	a5,-20(s0)
    c2ec:	00379793          	sll	a5,a5,0x3
    c2f0:	00f707b3          	add	a5,a4,a5
    c2f4:	0007a703          	lw	a4,0(a5)
    c2f8:	0047a783          	lw	a5,4(a5)
    c2fc:	fdc42603          	lw	a2,-36(s0)
    c300:	fec42683          	lw	a3,-20(s0)
    c304:	00668693          	add	a3,a3,6
    c308:	00369693          	sll	a3,a3,0x3
    c30c:	00d606b3          	add	a3,a2,a3
    c310:	00e6a023          	sw	a4,0(a3)
    c314:	00f6a223          	sw	a5,4(a3)
    c318:	000117b7          	lui	a5,0x11
    c31c:	d6878713          	add	a4,a5,-664 # 10d68 <black_start_position>
    c320:	fec42783          	lw	a5,-20(s0)
    c324:	00379793          	sll	a5,a5,0x3
    c328:	00f707b3          	add	a5,a4,a5
    c32c:	0007a703          	lw	a4,0(a5)
    c330:	0047a783          	lw	a5,4(a5)
    c334:	fdc42603          	lw	a2,-36(s0)
    c338:	fec42683          	lw	a3,-20(s0)
    c33c:	00369693          	sll	a3,a3,0x3
    c340:	00d606b3          	add	a3,a2,a3
    c344:	00e6a023          	sw	a4,0(a3)
    c348:	00f6a223          	sw	a5,4(a3)
    c34c:	fec42783          	lw	a5,-20(s0)
    c350:	00178793          	add	a5,a5,1
    c354:	fef42623          	sw	a5,-20(s0)
    c358:	fec42703          	lw	a4,-20(s0)
    c35c:	00500793          	li	a5,5
    c360:	f8e7f0e3          	bgeu	a5,a4,c2e0 <chess_set_start_position+0x18>
    c364:	00000013          	nop
    c368:	00000013          	nop
    c36c:	02c12403          	lw	s0,44(sp)
    c370:	03010113          	add	sp,sp,48
    c374:	00008067          	ret

0000c378 <chess_handle_interrupt>:
    c378:	ac010113          	add	sp,sp,-1344
    c37c:	52112e23          	sw	ra,1340(sp)
    c380:	52812c23          	sw	s0,1336(sp)
    c384:	54010413          	add	s0,sp,1344
    c388:	d4a42e23          	sw	a0,-676(s0)
    c38c:	d5c42703          	lw	a4,-676(s0)
    c390:	01100793          	li	a5,17
    c394:	00f70a63          	beq	a4,a5,c3a8 <chess_handle_interrupt+0x30>
    c398:	d5c42703          	lw	a4,-676(s0)
    c39c:	01200793          	li	a5,18
    c3a0:	06f70a63          	beq	a4,a5,c414 <chess_handle_interrupt+0x9c>
    c3a4:	1200006f          	j	c4c4 <chess_handle_interrupt+0x14c>
    c3a8:	000027b7          	lui	a5,0x2
    c3ac:	71078513          	add	a0,a5,1808 # 2710 <shuffle+0xe8>
    c3b0:	84cf60ef          	jal	23fc <delay>
    c3b4:	e48f40ef          	jal	9fc <io_switch>
    c3b8:	fea42623          	sw	a0,-20(s0)
    c3bc:	fec42783          	lw	a5,-20(s0)
    c3c0:	03f7f713          	and	a4,a5,63
    c3c4:	0000f7b7          	lui	a5,0xf
    c3c8:	ae078793          	add	a5,a5,-1312 # eae0 <board>
    c3cc:	26e7aa23          	sw	a4,628(a5)
    c3d0:	0000f7b7          	lui	a5,0xf
    c3d4:	ae078713          	add	a4,a5,-1312 # eae0 <board>
    c3d8:	ac040793          	add	a5,s0,-1344
    c3dc:	00070693          	mv	a3,a4
    c3e0:	28800713          	li	a4,648
    c3e4:	00070613          	mv	a2,a4
    c3e8:	00068593          	mv	a1,a3
    c3ec:	00078513          	mv	a0,a5
    c3f0:	e21f30ef          	jal	210 <memcpy>
    c3f4:	ac040793          	add	a5,s0,-1344
    c3f8:	00078513          	mv	a0,a5
    c3fc:	29c010ef          	jal	d698 <chess_render>
    c400:	fec42783          	lw	a5,-20(s0)
    c404:	2007f793          	and	a5,a5,512
    c408:	0a078863          	beqz	a5,c4b8 <chess_handle_interrupt+0x140>
    c40c:	00100793          	li	a5,1
    c410:	0b80006f          	j	c4c8 <chess_handle_interrupt+0x150>
    c414:	d60f40ef          	jal	974 <io_button>
    c418:	00050793          	mv	a5,a0
    c41c:	0a078263          	beqz	a5,c4c0 <chess_handle_interrupt+0x148>
    c420:	0000f7b7          	lui	a5,0xf
    c424:	ae078713          	add	a4,a5,-1312 # eae0 <board>
    c428:	d6040793          	add	a5,s0,-672
    c42c:	00070693          	mv	a3,a4
    c430:	28800713          	li	a4,648
    c434:	00070613          	mv	a2,a4
    c438:	00068593          	mv	a1,a3
    c43c:	00078513          	mv	a0,a5
    c440:	dd1f30ef          	jal	210 <memcpy>
    c444:	0000f7b7          	lui	a5,0xf
    c448:	ae078793          	add	a5,a5,-1312 # eae0 <board>
    c44c:	2747a703          	lw	a4,628(a5)
    c450:	d6040793          	add	a5,s0,-672
    c454:	00070593          	mv	a1,a4
    c458:	00078513          	mv	a0,a5
    c45c:	cf5ff0ef          	jal	c150 <chess_select_tile>
    c460:	0000f7b7          	lui	a5,0xf
    c464:	ae078793          	add	a5,a5,-1312 # eae0 <board>
    c468:	00078693          	mv	a3,a5
    c46c:	d6040793          	add	a5,s0,-672
    c470:	28800713          	li	a4,648
    c474:	00070613          	mv	a2,a4
    c478:	00078593          	mv	a1,a5
    c47c:	00068513          	mv	a0,a3
    c480:	d91f30ef          	jal	210 <memcpy>
    c484:	0000f7b7          	lui	a5,0xf
    c488:	ae078713          	add	a4,a5,-1312 # eae0 <board>
    c48c:	ac040793          	add	a5,s0,-1344
    c490:	00070693          	mv	a3,a4
    c494:	28800713          	li	a4,648
    c498:	00070613          	mv	a2,a4
    c49c:	00068593          	mv	a1,a3
    c4a0:	00078513          	mv	a0,a5
    c4a4:	d6df30ef          	jal	210 <memcpy>
    c4a8:	ac040793          	add	a5,s0,-1344
    c4ac:	00078513          	mv	a0,a5
    c4b0:	1e8010ef          	jal	d698 <chess_render>
    c4b4:	00c0006f          	j	c4c0 <chess_handle_interrupt+0x148>
    c4b8:	00000013          	nop
    c4bc:	0080006f          	j	c4c4 <chess_handle_interrupt+0x14c>
    c4c0:	00000013          	nop
    c4c4:	00000793          	li	a5,0
    c4c8:	00078513          	mv	a0,a5
    c4cc:	53c12083          	lw	ra,1340(sp)
    c4d0:	53812403          	lw	s0,1336(sp)
    c4d4:	54010113          	add	sp,sp,1344
    c4d8:	00008067          	ret

0000c4dc <chess_handler_reset>:
    c4dc:	d6010113          	add	sp,sp,-672
    c4e0:	28112e23          	sw	ra,668(sp)
    c4e4:	28812c23          	sw	s0,664(sp)
    c4e8:	2a010413          	add	s0,sp,672
    c4ec:	d6040793          	add	a5,s0,-672
    c4f0:	00078513          	mv	a0,a5
    c4f4:	dd5ff0ef          	jal	c2c8 <chess_set_start_position>
    c4f8:	00100793          	li	a5,1
    c4fc:	fcf42e23          	sw	a5,-36(s0)
    c500:	fff00793          	li	a5,-1
    c504:	fef42023          	sw	a5,-32(s0)
    c508:	fc042a23          	sw	zero,-44(s0)
    c50c:	fff00793          	li	a5,-1
    c510:	fcf42c23          	sw	a5,-40(s0)
    c514:	fff00793          	li	a5,-1
    c518:	fcf42023          	sw	a5,-64(s0)
    c51c:	fe042623          	sw	zero,-20(s0)
    c520:	02c0006f          	j	c54c <chess_handler_reset+0x70>
    c524:	fec42783          	lw	a5,-20(s0)
    c528:	09878793          	add	a5,a5,152
    c52c:	00279793          	sll	a5,a5,0x2
    c530:	ff078793          	add	a5,a5,-16
    c534:	008787b3          	add	a5,a5,s0
    c538:	00100713          	li	a4,1
    c53c:	d6e7aa23          	sw	a4,-652(a5)
    c540:	fec42783          	lw	a5,-20(s0)
    c544:	00178793          	add	a5,a5,1
    c548:	fef42623          	sw	a5,-20(s0)
    c54c:	fec42703          	lw	a4,-20(s0)
    c550:	00300793          	li	a5,3
    c554:	fce7d8e3          	bge	a5,a4,c524 <chess_handler_reset+0x48>
    c558:	d6040793          	add	a5,s0,-672
    c55c:	00078513          	mv	a0,a5
    c560:	85dff0ef          	jal	bdbc <chess_generate_available_moves>
    c564:	0000f7b7          	lui	a5,0xf
    c568:	ae078793          	add	a5,a5,-1312 # eae0 <board>
    c56c:	00078693          	mv	a3,a5
    c570:	d6040793          	add	a5,s0,-672
    c574:	28800713          	li	a4,648
    c578:	00070613          	mv	a2,a4
    c57c:	00078593          	mv	a1,a5
    c580:	00068513          	mv	a0,a3
    c584:	c8df30ef          	jal	210 <memcpy>
    c588:	0000f7b7          	lui	a5,0xf
    c58c:	d607a423          	sw	zero,-664(a5) # ed68 <has_rendered>
    c590:	0e4010ef          	jal	d674 <chess_render_reset>
    c594:	00000013          	nop
    c598:	29c12083          	lw	ra,668(sp)
    c59c:	29812403          	lw	s0,664(sp)
    c5a0:	2a010113          	add	sp,sp,672
    c5a4:	00008067          	ret

0000c5a8 <chess_handler_render>:
    c5a8:	d6010113          	add	sp,sp,-672
    c5ac:	28112e23          	sw	ra,668(sp)
    c5b0:	28812c23          	sw	s0,664(sp)
    c5b4:	2a010413          	add	s0,sp,672
    c5b8:	0000f7b7          	lui	a5,0xf
    c5bc:	d687a783          	lw	a5,-664(a5) # ed68 <has_rendered>
    c5c0:	04079063          	bnez	a5,c600 <chess_handler_render+0x58>
    c5c4:	0000f7b7          	lui	a5,0xf
    c5c8:	ae078713          	add	a4,a5,-1312 # eae0 <board>
    c5cc:	d6040793          	add	a5,s0,-672
    c5d0:	00070693          	mv	a3,a4
    c5d4:	28800713          	li	a4,648
    c5d8:	00070613          	mv	a2,a4
    c5dc:	00068593          	mv	a1,a3
    c5e0:	00078513          	mv	a0,a5
    c5e4:	c2df30ef          	jal	210 <memcpy>
    c5e8:	d6040793          	add	a5,s0,-672
    c5ec:	00078513          	mv	a0,a5
    c5f0:	0a8010ef          	jal	d698 <chess_render>
    c5f4:	0000f7b7          	lui	a5,0xf
    c5f8:	00100713          	li	a4,1
    c5fc:	d6e7a423          	sw	a4,-664(a5) # ed68 <has_rendered>
    c600:	00000013          	nop
    c604:	29c12083          	lw	ra,668(sp)
    c608:	29812403          	lw	s0,664(sp)
    c60c:	2a010113          	add	sp,sp,672
    c610:	00008067          	ret

0000c614 <render_16x16_chess_sprite>:
    c614:	fd010113          	add	sp,sp,-48
    c618:	02112623          	sw	ra,44(sp)
    c61c:	02812423          	sw	s0,40(sp)
    c620:	03010413          	add	s0,sp,48
    c624:	fca42e23          	sw	a0,-36(s0)
    c628:	fcb42c23          	sw	a1,-40(s0)
    c62c:	fcc42a23          	sw	a2,-44(s0)
    c630:	fcd42823          	sw	a3,-48(s0)
    c634:	fd042703          	lw	a4,-48(s0)
    c638:	00100793          	li	a5,1
    c63c:	00f71663          	bne	a4,a5,c648 <render_16x16_chess_sprite+0x34>
    c640:	0ff00793          	li	a5,255
    c644:	0080006f          	j	c64c <render_16x16_chess_sprite+0x38>
    c648:	04900793          	li	a5,73
    c64c:	fef405a3          	sb	a5,-21(s0)
    c650:	fd042703          	lw	a4,-48(s0)
    c654:	00100793          	li	a5,1
    c658:	00f71663          	bne	a4,a5,c664 <render_16x16_chess_sprite+0x50>
    c65c:	0b700793          	li	a5,183
    c660:	0080006f          	j	c668 <render_16x16_chess_sprite+0x54>
    c664:	00000793          	li	a5,0
    c668:	fef40523          	sb	a5,-22(s0)
    c66c:	fd442703          	lw	a4,-44(s0)
    c670:	00500793          	li	a5,5
    c674:	06e7e463          	bltu	a5,a4,c6dc <render_16x16_chess_sprite+0xc8>
    c678:	fd442783          	lw	a5,-44(s0)
    c67c:	00279713          	sll	a4,a5,0x2
    c680:	000117b7          	lui	a5,0x11
    c684:	dc878793          	add	a5,a5,-568 # 10dc8 <white_start_position+0x30>
    c688:	00f707b3          	add	a5,a4,a5
    c68c:	0007a783          	lw	a5,0(a5)
    c690:	00078067          	jr	a5
    c694:	00100793          	li	a5,1
    c698:	fef42623          	sw	a5,-20(s0)
    c69c:	0400006f          	j	c6dc <render_16x16_chess_sprite+0xc8>
    c6a0:	00200793          	li	a5,2
    c6a4:	fef42623          	sw	a5,-20(s0)
    c6a8:	0340006f          	j	c6dc <render_16x16_chess_sprite+0xc8>
    c6ac:	00500793          	li	a5,5
    c6b0:	fef42623          	sw	a5,-20(s0)
    c6b4:	0280006f          	j	c6dc <render_16x16_chess_sprite+0xc8>
    c6b8:	00b00793          	li	a5,11
    c6bc:	fef42623          	sw	a5,-20(s0)
    c6c0:	01c0006f          	j	c6dc <render_16x16_chess_sprite+0xc8>
    c6c4:	00300793          	li	a5,3
    c6c8:	fef42623          	sw	a5,-20(s0)
    c6cc:	0100006f          	j	c6dc <render_16x16_chess_sprite+0xc8>
    c6d0:	00400793          	li	a5,4
    c6d4:	fef42623          	sw	a5,-20(s0)
    c6d8:	00000013          	nop
    c6dc:	feb44783          	lbu	a5,-21(s0)
    c6e0:	fef40423          	sb	a5,-24(s0)
    c6e4:	fea44783          	lbu	a5,-22(s0)
    c6e8:	fef404a3          	sb	a5,-23(s0)
    c6ec:	fe840793          	add	a5,s0,-24
    c6f0:	00200713          	li	a4,2
    c6f4:	00078693          	mv	a3,a5
    c6f8:	fec42603          	lw	a2,-20(s0)
    c6fc:	fd842583          	lw	a1,-40(s0)
    c700:	fdc42503          	lw	a0,-36(s0)
    c704:	f3cf40ef          	jal	e40 <render_sprite>
    c708:	00000013          	nop
    c70c:	02c12083          	lw	ra,44(sp)
    c710:	02812403          	lw	s0,40(sp)
    c714:	03010113          	add	sp,sp,48
    c718:	00008067          	ret

0000c71c <get_color>:
    c71c:	fe010113          	add	sp,sp,-32
    c720:	00112e23          	sw	ra,28(sp)
    c724:	00812c23          	sw	s0,24(sp)
    c728:	02010413          	add	s0,sp,32
    c72c:	fea42623          	sw	a0,-20(s0)
    c730:	feb42423          	sw	a1,-24(s0)
    c734:	fec42223          	sw	a2,-28(s0)
    c738:	fec42783          	lw	a5,-20(s0)
    c73c:	04078863          	beqz	a5,c78c <get_color+0x70>
    c740:	fec42503          	lw	a0,-20(s0)
    c744:	915ff0ef          	jal	c058 <chess_get_promoting_pawn>
    c748:	00050693          	mv	a3,a0
    c74c:	00800713          	li	a4,8
    c750:	fe442783          	lw	a5,-28(s0)
    c754:	02f70733          	mul	a4,a4,a5
    c758:	fe842783          	lw	a5,-24(s0)
    c75c:	00f707b3          	add	a5,a4,a5
    c760:	02f68263          	beq	a3,a5,c784 <get_color+0x68>
    c764:	fec42783          	lw	a5,-20(s0)
    c768:	2787a703          	lw	a4,632(a5)
    c76c:	00800693          	li	a3,8
    c770:	fe442783          	lw	a5,-28(s0)
    c774:	02f686b3          	mul	a3,a3,a5
    c778:	fe842783          	lw	a5,-24(s0)
    c77c:	00f687b3          	add	a5,a3,a5
    c780:	00f71663          	bne	a4,a5,c78c <get_color+0x70>
    c784:	0d900793          	li	a5,217
    c788:	0240006f          	j	c7ac <get_color+0x90>
    c78c:	fe442703          	lw	a4,-28(s0)
    c790:	fe842783          	lw	a5,-24(s0)
    c794:	00f747b3          	xor	a5,a4,a5
    c798:	0017f793          	and	a5,a5,1
    c79c:	00079663          	bnez	a5,c7a8 <get_color+0x8c>
    c7a0:	0da00793          	li	a5,218
    c7a4:	0080006f          	j	c7ac <get_color+0x90>
    c7a8:	06d00793          	li	a5,109
    c7ac:	00078513          	mv	a0,a5
    c7b0:	01c12083          	lw	ra,28(sp)
    c7b4:	01812403          	lw	s0,24(sp)
    c7b8:	02010113          	add	sp,sp,32
    c7bc:	00008067          	ret

0000c7c0 <get_background_color>:
    c7c0:	fe010113          	add	sp,sp,-32
    c7c4:	00112e23          	sw	ra,28(sp)
    c7c8:	00812c23          	sw	s0,24(sp)
    c7cc:	02010413          	add	s0,sp,32
    c7d0:	fea42623          	sw	a0,-20(s0)
    c7d4:	feb42423          	sw	a1,-24(s0)
    c7d8:	04000793          	li	a5,64
    c7dc:	fec42703          	lw	a4,-20(s0)
    c7e0:	06f74c63          	blt	a4,a5,c858 <get_background_color+0x98>
    c7e4:	04000713          	li	a4,64
    c7e8:	0c000793          	li	a5,192
    c7ec:	00f707b3          	add	a5,a4,a5
    c7f0:	fec42703          	lw	a4,-20(s0)
    c7f4:	06f75263          	bge	a4,a5,c858 <get_background_color+0x98>
    c7f8:	01800793          	li	a5,24
    c7fc:	fe842703          	lw	a4,-24(s0)
    c800:	04f74c63          	blt	a4,a5,c858 <get_background_color+0x98>
    c804:	01800713          	li	a4,24
    c808:	0c000793          	li	a5,192
    c80c:	00f707b3          	add	a5,a4,a5
    c810:	fe842703          	lw	a4,-24(s0)
    c814:	04f75263          	bge	a4,a5,c858 <get_background_color+0x98>
    c818:	04000793          	li	a5,64
    c81c:	fec42703          	lw	a4,-20(s0)
    c820:	40f70733          	sub	a4,a4,a5
    c824:	01800793          	li	a5,24
    c828:	02f746b3          	div	a3,a4,a5
    c82c:	01800793          	li	a5,24
    c830:	fe842703          	lw	a4,-24(s0)
    c834:	40f70733          	sub	a4,a4,a5
    c838:	01800793          	li	a5,24
    c83c:	02f747b3          	div	a5,a4,a5
    c840:	00078613          	mv	a2,a5
    c844:	00068593          	mv	a1,a3
    c848:	00000513          	li	a0,0
    c84c:	ed1ff0ef          	jal	c71c <get_color>
    c850:	00050793          	mv	a5,a0
    c854:	0080006f          	j	c85c <get_background_color+0x9c>
    c858:	09100793          	li	a5,145
    c85c:	00078513          	mv	a0,a5
    c860:	01c12083          	lw	ra,28(sp)
    c864:	01812403          	lw	s0,24(sp)
    c868:	02010113          	add	sp,sp,32
    c86c:	00008067          	ret

0000c870 <render_piece>:
    c870:	fc010113          	add	sp,sp,-64
    c874:	02112e23          	sw	ra,60(sp)
    c878:	02812c23          	sw	s0,56(sp)
    c87c:	04010413          	add	s0,sp,64
    c880:	fca42e23          	sw	a0,-36(s0)
    c884:	fcb42c23          	sw	a1,-40(s0)
    c888:	00060793          	mv	a5,a2
    c88c:	fcd42823          	sw	a3,-48(s0)
    c890:	fce42623          	sw	a4,-52(s0)
    c894:	fcf40ba3          	sb	a5,-41(s0)
    c898:	01800713          	li	a4,24
    c89c:	fd042783          	lw	a5,-48(s0)
    c8a0:	02f70733          	mul	a4,a4,a5
    c8a4:	04000793          	li	a5,64
    c8a8:	00f707b3          	add	a5,a4,a5
    c8ac:	00478793          	add	a5,a5,4
    c8b0:	fef42623          	sw	a5,-20(s0)
    c8b4:	01800713          	li	a4,24
    c8b8:	fcc42783          	lw	a5,-52(s0)
    c8bc:	02f70733          	mul	a4,a4,a5
    c8c0:	01800793          	li	a5,24
    c8c4:	00f707b3          	add	a5,a4,a5
    c8c8:	00478793          	add	a5,a5,4
    c8cc:	fef42423          	sw	a5,-24(s0)
    c8d0:	fd842683          	lw	a3,-40(s0)
    c8d4:	fdc42603          	lw	a2,-36(s0)
    c8d8:	fe842583          	lw	a1,-24(s0)
    c8dc:	fec42503          	lw	a0,-20(s0)
    c8e0:	d35ff0ef          	jal	c614 <render_16x16_chess_sprite>
    c8e4:	00000013          	nop
    c8e8:	03c12083          	lw	ra,60(sp)
    c8ec:	03812403          	lw	s0,56(sp)
    c8f0:	04010113          	add	sp,sp,64
    c8f4:	00008067          	ret

0000c8f8 <render_tile>:
    c8f8:	f8010113          	add	sp,sp,-128
    c8fc:	06112e23          	sw	ra,124(sp)
    c900:	06812c23          	sw	s0,120(sp)
    c904:	06912a23          	sw	s1,116(sp)
    c908:	07212823          	sw	s2,112(sp)
    c90c:	07312623          	sw	s3,108(sp)
    c910:	07412423          	sw	s4,104(sp)
    c914:	07512223          	sw	s5,100(sp)
    c918:	07612023          	sw	s6,96(sp)
    c91c:	05712e23          	sw	s7,92(sp)
    c920:	05812c23          	sw	s8,88(sp)
    c924:	05912a23          	sw	s9,84(sp)
    c928:	05a12823          	sw	s10,80(sp)
    c92c:	05b12623          	sw	s11,76(sp)
    c930:	08010413          	add	s0,sp,128
    c934:	f8a42e23          	sw	a0,-100(s0)
    c938:	f8b42c23          	sw	a1,-104(s0)
    c93c:	f8c42a23          	sw	a2,-108(s0)
    c940:	f9442603          	lw	a2,-108(s0)
    c944:	f9842583          	lw	a1,-104(s0)
    c948:	f9c42503          	lw	a0,-100(s0)
    c94c:	dd1ff0ef          	jal	c71c <get_color>
    c950:	00050793          	mv	a5,a0
    c954:	faf40ba3          	sb	a5,-73(s0)
    c958:	01800713          	li	a4,24
    c95c:	f9842783          	lw	a5,-104(s0)
    c960:	02f70733          	mul	a4,a4,a5
    c964:	04000793          	li	a5,64
    c968:	00f707b3          	add	a5,a4,a5
    c96c:	faf42823          	sw	a5,-80(s0)
    c970:	01800713          	li	a4,24
    c974:	f9442783          	lw	a5,-108(s0)
    c978:	02f70733          	mul	a4,a4,a5
    c97c:	01800793          	li	a5,24
    c980:	00f707b3          	add	a5,a4,a5
    c984:	faf42623          	sw	a5,-84(s0)
    c988:	01800793          	li	a5,24
    c98c:	01800693          	li	a3,24
    c990:	fb744703          	lbu	a4,-73(s0)
    c994:	00078613          	mv	a2,a5
    c998:	fac42583          	lw	a1,-84(s0)
    c99c:	fb042503          	lw	a0,-80(s0)
    c9a0:	b61f40ef          	jal	1500 <render_rect_fill>
    c9a4:	f9c42783          	lw	a5,-100(s0)
    c9a8:	2787a703          	lw	a4,632(a5)
    c9ac:	fff00793          	li	a5,-1
    c9b0:	0cf70463          	beq	a4,a5,ca78 <render_tile+0x180>
    c9b4:	f9c42783          	lw	a5,-100(s0)
    c9b8:	2787a783          	lw	a5,632(a5)
    c9bc:	f9c42703          	lw	a4,-100(s0)
    c9c0:	00c78793          	add	a5,a5,12
    c9c4:	00379793          	sll	a5,a5,0x3
    c9c8:	00f707b3          	add	a5,a4,a5
    c9cc:	0007a703          	lw	a4,0(a5)
    c9d0:	0047a783          	lw	a5,4(a5)
    c9d4:	f9442683          	lw	a3,-108(s0)
    c9d8:	00800613          	li	a2,8
    c9dc:	02c68633          	mul	a2,a3,a2
    c9e0:	f9842683          	lw	a3,-104(s0)
    c9e4:	00d606b3          	add	a3,a2,a3
    c9e8:	fe068613          	add	a2,a3,-32
    c9ec:	00064863          	bltz	a2,c9fc <render_tile+0x104>
    c9f0:	00c7db33          	srl	s6,a5,a2
    c9f4:	00000b93          	li	s7,0
    c9f8:	0200006f          	j	ca18 <render_tile+0x120>
    c9fc:	00179593          	sll	a1,a5,0x1
    ca00:	01f00613          	li	a2,31
    ca04:	40d60633          	sub	a2,a2,a3
    ca08:	00c59633          	sll	a2,a1,a2
    ca0c:	00d75b33          	srl	s6,a4,a3
    ca10:	01666b33          	or	s6,a2,s6
    ca14:	00d7dbb3          	srl	s7,a5,a3
    ca18:	001b7793          	and	a5,s6,1
    ca1c:	f8f42423          	sw	a5,-120(s0)
    ca20:	000bf793          	and	a5,s7,0
    ca24:	f8f42623          	sw	a5,-116(s0)
    ca28:	f8842683          	lw	a3,-120(s0)
    ca2c:	f8c42703          	lw	a4,-116(s0)
    ca30:	00068793          	mv	a5,a3
    ca34:	00e7e7b3          	or	a5,a5,a4
    ca38:	04078063          	beqz	a5,ca78 <render_tile+0x180>
    ca3c:	fb042783          	lw	a5,-80(s0)
    ca40:	00878693          	add	a3,a5,8
    ca44:	fac42783          	lw	a5,-84(s0)
    ca48:	00878593          	add	a1,a5,8
    ca4c:	f9442703          	lw	a4,-108(s0)
    ca50:	f9842783          	lw	a5,-104(s0)
    ca54:	00f747b3          	xor	a5,a4,a5
    ca58:	0017f793          	and	a5,a5,1
    ca5c:	00079663          	bnez	a5,ca68 <render_tile+0x170>
    ca60:	04900793          	li	a5,73
    ca64:	0080006f          	j	ca6c <render_tile+0x174>
    ca68:	09200793          	li	a5,146
    ca6c:	00078613          	mv	a2,a5
    ca70:	00068513          	mv	a0,a3
    ca74:	de9f40ef          	jal	185c <render_8x8_circle>
    ca78:	f9c42783          	lw	a5,-100(s0)
    ca7c:	2807a783          	lw	a5,640(a5)
    ca80:	ffd78793          	add	a5,a5,-3
    ca84:	0017b793          	seqz	a5,a5
    ca88:	0ff7f793          	zext.b	a5,a5
    ca8c:	faf42423          	sw	a5,-88(s0)
    ca90:	fa842783          	lw	a5,-88(s0)
    ca94:	02078463          	beqz	a5,cabc <render_tile+0x1c4>
    ca98:	00800713          	li	a4,8
    ca9c:	f9442783          	lw	a5,-108(s0)
    caa0:	02f70733          	mul	a4,a4,a5
    caa4:	f9842783          	lw	a5,-104(s0)
    caa8:	00f704b3          	add	s1,a4,a5
    caac:	f9c42503          	lw	a0,-100(s0)
    cab0:	da8ff0ef          	jal	c058 <chess_get_promoting_pawn>
    cab4:	00050793          	mv	a5,a0
    cab8:	02f48663          	beq	s1,a5,cae4 <render_tile+0x1ec>
    cabc:	fa842783          	lw	a5,-88(s0)
    cac0:	14079663          	bnez	a5,cc0c <render_tile+0x314>
    cac4:	f9c42783          	lw	a5,-100(s0)
    cac8:	2747a703          	lw	a4,628(a5)
    cacc:	00800693          	li	a3,8
    cad0:	f9442783          	lw	a5,-108(s0)
    cad4:	02f686b3          	mul	a3,a3,a5
    cad8:	f9842783          	lw	a5,-104(s0)
    cadc:	00f687b3          	add	a5,a3,a5
    cae0:	12f71663          	bne	a4,a5,cc0c <render_tile+0x314>
    cae4:	00600793          	li	a5,6
    cae8:	faf42223          	sw	a5,-92(s0)
    caec:	01800793          	li	a5,24
    caf0:	01800693          	li	a3,24
    caf4:	0c400713          	li	a4,196
    caf8:	00078613          	mv	a2,a5
    cafc:	fac42583          	lw	a1,-84(s0)
    cb00:	fb042503          	lw	a0,-80(s0)
    cb04:	8ddf40ef          	jal	13e0 <render_rect_border>
    cb08:	fb042783          	lw	a5,-80(s0)
    cb0c:	00178513          	add	a0,a5,1
    cb10:	fac42783          	lw	a5,-84(s0)
    cb14:	00178593          	add	a1,a5,1
    cb18:	01800793          	li	a5,24
    cb1c:	ffe78613          	add	a2,a5,-2
    cb20:	01800793          	li	a5,24
    cb24:	ffe78793          	add	a5,a5,-2
    cb28:	0c400713          	li	a4,196
    cb2c:	00078693          	mv	a3,a5
    cb30:	8b1f40ef          	jal	13e0 <render_rect_border>
    cb34:	fac42703          	lw	a4,-84(s0)
    cb38:	fa442783          	lw	a5,-92(s0)
    cb3c:	00f705b3          	add	a1,a4,a5
    cb40:	01800713          	li	a4,24
    cb44:	fa442783          	lw	a5,-92(s0)
    cb48:	00179793          	sll	a5,a5,0x1
    cb4c:	40f707b3          	sub	a5,a4,a5
    cb50:	fb744703          	lbu	a4,-73(s0)
    cb54:	00078693          	mv	a3,a5
    cb58:	00200613          	li	a2,2
    cb5c:	fb042503          	lw	a0,-80(s0)
    cb60:	9a1f40ef          	jal	1500 <render_rect_fill>
    cb64:	fb042703          	lw	a4,-80(s0)
    cb68:	fa442783          	lw	a5,-92(s0)
    cb6c:	00f70533          	add	a0,a4,a5
    cb70:	01800713          	li	a4,24
    cb74:	fa442783          	lw	a5,-92(s0)
    cb78:	00179793          	sll	a5,a5,0x1
    cb7c:	40f707b3          	sub	a5,a4,a5
    cb80:	fb744703          	lbu	a4,-73(s0)
    cb84:	00200693          	li	a3,2
    cb88:	00078613          	mv	a2,a5
    cb8c:	fac42583          	lw	a1,-84(s0)
    cb90:	971f40ef          	jal	1500 <render_rect_fill>
    cb94:	01800713          	li	a4,24
    cb98:	fb042783          	lw	a5,-80(s0)
    cb9c:	00f707b3          	add	a5,a4,a5
    cba0:	ffe78513          	add	a0,a5,-2
    cba4:	fac42703          	lw	a4,-84(s0)
    cba8:	fa442783          	lw	a5,-92(s0)
    cbac:	00f705b3          	add	a1,a4,a5
    cbb0:	01800713          	li	a4,24
    cbb4:	fa442783          	lw	a5,-92(s0)
    cbb8:	00179793          	sll	a5,a5,0x1
    cbbc:	40f707b3          	sub	a5,a4,a5
    cbc0:	fb744703          	lbu	a4,-73(s0)
    cbc4:	00078693          	mv	a3,a5
    cbc8:	00200613          	li	a2,2
    cbcc:	935f40ef          	jal	1500 <render_rect_fill>
    cbd0:	fb042703          	lw	a4,-80(s0)
    cbd4:	fa442783          	lw	a5,-92(s0)
    cbd8:	00f70533          	add	a0,a4,a5
    cbdc:	01800713          	li	a4,24
    cbe0:	fac42783          	lw	a5,-84(s0)
    cbe4:	00f707b3          	add	a5,a4,a5
    cbe8:	ffe78593          	add	a1,a5,-2
    cbec:	01800713          	li	a4,24
    cbf0:	fa442783          	lw	a5,-92(s0)
    cbf4:	00179793          	sll	a5,a5,0x1
    cbf8:	40f707b3          	sub	a5,a4,a5
    cbfc:	fb744703          	lbu	a4,-73(s0)
    cc00:	00200693          	li	a3,2
    cc04:	00078613          	mv	a2,a5
    cc08:	8f9f40ef          	jal	1500 <render_rect_fill>
    cc0c:	fa042e23          	sw	zero,-68(s0)
    cc10:	1c40006f          	j	cdd4 <render_tile+0x4dc>
    cc14:	00800713          	li	a4,8
    cc18:	f9442783          	lw	a5,-108(s0)
    cc1c:	02f707b3          	mul	a5,a4,a5
    cc20:	f9842703          	lw	a4,-104(s0)
    cc24:	00f707b3          	add	a5,a4,a5
    cc28:	faf42023          	sw	a5,-96(s0)
    cc2c:	fbc42783          	lw	a5,-68(s0)
    cc30:	faf42c23          	sw	a5,-72(s0)
    cc34:	f9c42703          	lw	a4,-100(s0)
    cc38:	fbc42783          	lw	a5,-68(s0)
    cc3c:	00379793          	sll	a5,a5,0x3
    cc40:	00f707b3          	add	a5,a4,a5
    cc44:	0007a703          	lw	a4,0(a5)
    cc48:	0047a783          	lw	a5,4(a5)
    cc4c:	fa042683          	lw	a3,-96(s0)
    cc50:	fe068613          	add	a2,a3,-32
    cc54:	00064863          	bltz	a2,cc64 <render_tile+0x36c>
    cc58:	00c7d933          	srl	s2,a5,a2
    cc5c:	00000993          	li	s3,0
    cc60:	0200006f          	j	cc80 <render_tile+0x388>
    cc64:	00179593          	sll	a1,a5,0x1
    cc68:	01f00613          	li	a2,31
    cc6c:	40d60633          	sub	a2,a2,a3
    cc70:	00c59633          	sll	a2,a1,a2
    cc74:	00d75933          	srl	s2,a4,a3
    cc78:	01266933          	or	s2,a2,s2
    cc7c:	00d7d9b3          	srl	s3,a5,a3
    cc80:	00197c13          	and	s8,s2,1
    cc84:	0009fc93          	and	s9,s3,0
    cc88:	000c0793          	mv	a5,s8
    cc8c:	0197e7b3          	or	a5,a5,s9
    cc90:	06078663          	beqz	a5,ccfc <render_tile+0x404>
    cc94:	f9c42503          	lw	a0,-100(s0)
    cc98:	bc0ff0ef          	jal	c058 <chess_get_promoting_pawn>
    cc9c:	00050713          	mv	a4,a0
    cca0:	fa042783          	lw	a5,-96(s0)
    cca4:	02e79e63          	bne	a5,a4,cce0 <render_tile+0x3e8>
    cca8:	f9c42783          	lw	a5,-100(s0)
    ccac:	2747a703          	lw	a4,628(a5)
    ccb0:	41f75793          	sra	a5,a4,0x1f
    ccb4:	01e7d793          	srl	a5,a5,0x1e
    ccb8:	00f70733          	add	a4,a4,a5
    ccbc:	00377713          	and	a4,a4,3
    ccc0:	40f707b3          	sub	a5,a4,a5
    ccc4:	00078693          	mv	a3,a5
    ccc8:	0000f7b7          	lui	a5,0xf
    cccc:	89478713          	add	a4,a5,-1900 # e894 <chess_promotions>
    ccd0:	00269793          	sll	a5,a3,0x2
    ccd4:	00f707b3          	add	a5,a4,a5
    ccd8:	0007a783          	lw	a5,0(a5)
    ccdc:	faf42c23          	sw	a5,-72(s0)
    cce0:	fb744783          	lbu	a5,-73(s0)
    cce4:	f9442703          	lw	a4,-108(s0)
    cce8:	f9842683          	lw	a3,-104(s0)
    ccec:	00078613          	mv	a2,a5
    ccf0:	00000593          	li	a1,0
    ccf4:	fb842503          	lw	a0,-72(s0)
    ccf8:	b79ff0ef          	jal	c870 <render_piece>
    ccfc:	f9c42703          	lw	a4,-100(s0)
    cd00:	fbc42783          	lw	a5,-68(s0)
    cd04:	00678793          	add	a5,a5,6
    cd08:	00379793          	sll	a5,a5,0x3
    cd0c:	00f707b3          	add	a5,a4,a5
    cd10:	0007a703          	lw	a4,0(a5)
    cd14:	0047a783          	lw	a5,4(a5)
    cd18:	fa042683          	lw	a3,-96(s0)
    cd1c:	fe068613          	add	a2,a3,-32
    cd20:	00064863          	bltz	a2,cd30 <render_tile+0x438>
    cd24:	00c7da33          	srl	s4,a5,a2
    cd28:	00000a93          	li	s5,0
    cd2c:	0200006f          	j	cd4c <render_tile+0x454>
    cd30:	00179593          	sll	a1,a5,0x1
    cd34:	01f00613          	li	a2,31
    cd38:	40d60633          	sub	a2,a2,a3
    cd3c:	00c59633          	sll	a2,a1,a2
    cd40:	00d75a33          	srl	s4,a4,a3
    cd44:	01466a33          	or	s4,a2,s4
    cd48:	00d7dab3          	srl	s5,a5,a3
    cd4c:	001a7d13          	and	s10,s4,1
    cd50:	000afd93          	and	s11,s5,0
    cd54:	000d0793          	mv	a5,s10
    cd58:	01b7e7b3          	or	a5,a5,s11
    cd5c:	06078663          	beqz	a5,cdc8 <render_tile+0x4d0>
    cd60:	f9c42503          	lw	a0,-100(s0)
    cd64:	af4ff0ef          	jal	c058 <chess_get_promoting_pawn>
    cd68:	00050713          	mv	a4,a0
    cd6c:	fa042783          	lw	a5,-96(s0)
    cd70:	02e79e63          	bne	a5,a4,cdac <render_tile+0x4b4>
    cd74:	f9c42783          	lw	a5,-100(s0)
    cd78:	2747a703          	lw	a4,628(a5)
    cd7c:	41f75793          	sra	a5,a4,0x1f
    cd80:	01e7d793          	srl	a5,a5,0x1e
    cd84:	00f70733          	add	a4,a4,a5
    cd88:	00377713          	and	a4,a4,3
    cd8c:	40f707b3          	sub	a5,a4,a5
    cd90:	00078693          	mv	a3,a5
    cd94:	0000f7b7          	lui	a5,0xf
    cd98:	89478713          	add	a4,a5,-1900 # e894 <chess_promotions>
    cd9c:	00269793          	sll	a5,a3,0x2
    cda0:	00f707b3          	add	a5,a4,a5
    cda4:	0007a783          	lw	a5,0(a5)
    cda8:	faf42c23          	sw	a5,-72(s0)
    cdac:	fb744783          	lbu	a5,-73(s0)
    cdb0:	f9442703          	lw	a4,-108(s0)
    cdb4:	f9842683          	lw	a3,-104(s0)
    cdb8:	00078613          	mv	a2,a5
    cdbc:	00100593          	li	a1,1
    cdc0:	fb842503          	lw	a0,-72(s0)
    cdc4:	aadff0ef          	jal	c870 <render_piece>
    cdc8:	fbc42783          	lw	a5,-68(s0)
    cdcc:	00178793          	add	a5,a5,1
    cdd0:	faf42e23          	sw	a5,-68(s0)
    cdd4:	fbc42703          	lw	a4,-68(s0)
    cdd8:	00500793          	li	a5,5
    cddc:	e2e7fce3          	bgeu	a5,a4,cc14 <render_tile+0x31c>
    cde0:	00000013          	nop
    cde4:	00000013          	nop
    cde8:	07c12083          	lw	ra,124(sp)
    cdec:	07812403          	lw	s0,120(sp)
    cdf0:	07412483          	lw	s1,116(sp)
    cdf4:	07012903          	lw	s2,112(sp)
    cdf8:	06c12983          	lw	s3,108(sp)
    cdfc:	06812a03          	lw	s4,104(sp)
    ce00:	06412a83          	lw	s5,100(sp)
    ce04:	06012b03          	lw	s6,96(sp)
    ce08:	05c12b83          	lw	s7,92(sp)
    ce0c:	05812c03          	lw	s8,88(sp)
    ce10:	05412c83          	lw	s9,84(sp)
    ce14:	05012d03          	lw	s10,80(sp)
    ce18:	04c12d83          	lw	s11,76(sp)
    ce1c:	08010113          	add	sp,sp,128
    ce20:	00008067          	ret

0000ce24 <render_tiles>:
    ce24:	fc010113          	add	sp,sp,-64
    ce28:	02112e23          	sw	ra,60(sp)
    ce2c:	02812c23          	sw	s0,56(sp)
    ce30:	03212a23          	sw	s2,52(sp)
    ce34:	03312823          	sw	s3,48(sp)
    ce38:	03412623          	sw	s4,44(sp)
    ce3c:	03512423          	sw	s5,40(sp)
    ce40:	04010413          	add	s0,sp,64
    ce44:	fca42623          	sw	a0,-52(s0)
    ce48:	fcb42023          	sw	a1,-64(s0)
    ce4c:	fcc42223          	sw	a2,-60(s0)
    ce50:	fc042e23          	sw	zero,-36(s0)
    ce54:	0900006f          	j	cee4 <render_tiles+0xc0>
    ce58:	00800793          	li	a5,8
    ce5c:	fdc42703          	lw	a4,-36(s0)
    ce60:	02f747b3          	div	a5,a4,a5
    ce64:	fcf42c23          	sw	a5,-40(s0)
    ce68:	00800793          	li	a5,8
    ce6c:	fdc42703          	lw	a4,-36(s0)
    ce70:	02f767b3          	rem	a5,a4,a5
    ce74:	fcf42a23          	sw	a5,-44(s0)
    ce78:	fc042703          	lw	a4,-64(s0)
    ce7c:	fc442783          	lw	a5,-60(s0)
    ce80:	fdc42683          	lw	a3,-36(s0)
    ce84:	fe068613          	add	a2,a3,-32
    ce88:	00064863          	bltz	a2,ce98 <render_tiles+0x74>
    ce8c:	00c7d933          	srl	s2,a5,a2
    ce90:	00000993          	li	s3,0
    ce94:	0200006f          	j	ceb4 <render_tiles+0x90>
    ce98:	00179593          	sll	a1,a5,0x1
    ce9c:	01f00613          	li	a2,31
    cea0:	40d60633          	sub	a2,a2,a3
    cea4:	00c59633          	sll	a2,a1,a2
    cea8:	00d75933          	srl	s2,a4,a3
    ceac:	01266933          	or	s2,a2,s2
    ceb0:	00d7d9b3          	srl	s3,a5,a3
    ceb4:	00197a13          	and	s4,s2,1
    ceb8:	0009fa93          	and	s5,s3,0
    cebc:	000a0793          	mv	a5,s4
    cec0:	0157e7b3          	or	a5,a5,s5
    cec4:	00078a63          	beqz	a5,ced8 <render_tiles+0xb4>
    cec8:	fd842603          	lw	a2,-40(s0)
    cecc:	fd442583          	lw	a1,-44(s0)
    ced0:	fcc42503          	lw	a0,-52(s0)
    ced4:	a25ff0ef          	jal	c8f8 <render_tile>
    ced8:	fdc42783          	lw	a5,-36(s0)
    cedc:	00178793          	add	a5,a5,1
    cee0:	fcf42e23          	sw	a5,-36(s0)
    cee4:	fdc42703          	lw	a4,-36(s0)
    cee8:	03f00793          	li	a5,63
    ceec:	f6e7d6e3          	bge	a5,a4,ce58 <render_tiles+0x34>
    cef0:	00000013          	nop
    cef4:	00000013          	nop
    cef8:	03c12083          	lw	ra,60(sp)
    cefc:	03812403          	lw	s0,56(sp)
    cf00:	03412903          	lw	s2,52(sp)
    cf04:	03012983          	lw	s3,48(sp)
    cf08:	02c12a03          	lw	s4,44(sp)
    cf0c:	02812a83          	lw	s5,40(sp)
    cf10:	04010113          	add	sp,sp,64
    cf14:	00008067          	ret

0000cf18 <get_tile_render_mask>:
    cf18:	f7010113          	add	sp,sp,-144
    cf1c:	08112623          	sw	ra,140(sp)
    cf20:	08812423          	sw	s0,136(sp)
    cf24:	09212223          	sw	s2,132(sp)
    cf28:	09312023          	sw	s3,128(sp)
    cf2c:	07412e23          	sw	s4,124(sp)
    cf30:	07512c23          	sw	s5,120(sp)
    cf34:	07612a23          	sw	s6,116(sp)
    cf38:	07712823          	sw	s7,112(sp)
    cf3c:	07812623          	sw	s8,108(sp)
    cf40:	07912423          	sw	s9,104(sp)
    cf44:	07a12223          	sw	s10,100(sp)
    cf48:	07b12023          	sw	s11,96(sp)
    cf4c:	09010413          	add	s0,sp,144
    cf50:	faa42e23          	sw	a0,-68(s0)
    cf54:	fab42c23          	sw	a1,-72(s0)
    cf58:	fac42a23          	sw	a2,-76(s0)
    cf5c:	fb842783          	lw	a5,-72(s0)
    cf60:	00000693          	li	a3,0
    cf64:	00000713          	li	a4,0
    cf68:	00d7a023          	sw	a3,0(a5)
    cf6c:	00e7a223          	sw	a4,4(a5)
    cf70:	fc042623          	sw	zero,-52(s0)
    cf74:	0e00006f          	j	d054 <get_tile_render_mask+0x13c>
    cf78:	fb842783          	lw	a5,-72(s0)
    cf7c:	0007a503          	lw	a0,0(a5)
    cf80:	0047a583          	lw	a1,4(a5)
    cf84:	fbc42703          	lw	a4,-68(s0)
    cf88:	fcc42783          	lw	a5,-52(s0)
    cf8c:	00678793          	add	a5,a5,6
    cf90:	00379793          	sll	a5,a5,0x3
    cf94:	00f707b3          	add	a5,a4,a5
    cf98:	0007a603          	lw	a2,0(a5)
    cf9c:	0047a683          	lw	a3,4(a5)
    cfa0:	0000f7b7          	lui	a5,0xf
    cfa4:	d7878713          	add	a4,a5,-648 # ed78 <last_board>
    cfa8:	fcc42783          	lw	a5,-52(s0)
    cfac:	00678793          	add	a5,a5,6
    cfb0:	00379793          	sll	a5,a5,0x3
    cfb4:	00f707b3          	add	a5,a4,a5
    cfb8:	0007a703          	lw	a4,0(a5)
    cfbc:	0047a783          	lw	a5,4(a5)
    cfc0:	00e64b33          	xor	s6,a2,a4
    cfc4:	00f6cbb3          	xor	s7,a3,a5
    cfc8:	016567b3          	or	a5,a0,s6
    cfcc:	faf42423          	sw	a5,-88(s0)
    cfd0:	0175e7b3          	or	a5,a1,s7
    cfd4:	faf42623          	sw	a5,-84(s0)
    cfd8:	fb842783          	lw	a5,-72(s0)
    cfdc:	fa842683          	lw	a3,-88(s0)
    cfe0:	fac42703          	lw	a4,-84(s0)
    cfe4:	00d7a023          	sw	a3,0(a5)
    cfe8:	00e7a223          	sw	a4,4(a5)
    cfec:	fb842783          	lw	a5,-72(s0)
    cff0:	0007a503          	lw	a0,0(a5)
    cff4:	0047a583          	lw	a1,4(a5)
    cff8:	fbc42703          	lw	a4,-68(s0)
    cffc:	fcc42783          	lw	a5,-52(s0)
    d000:	00379793          	sll	a5,a5,0x3
    d004:	00f707b3          	add	a5,a4,a5
    d008:	0007a603          	lw	a2,0(a5)
    d00c:	0047a683          	lw	a3,4(a5)
    d010:	0000f7b7          	lui	a5,0xf
    d014:	d7878713          	add	a4,a5,-648 # ed78 <last_board>
    d018:	fcc42783          	lw	a5,-52(s0)
    d01c:	00379793          	sll	a5,a5,0x3
    d020:	00f707b3          	add	a5,a4,a5
    d024:	0007a703          	lw	a4,0(a5)
    d028:	0047a783          	lw	a5,4(a5)
    d02c:	00e64a33          	xor	s4,a2,a4
    d030:	00f6cab3          	xor	s5,a3,a5
    d034:	01456d33          	or	s10,a0,s4
    d038:	0155edb3          	or	s11,a1,s5
    d03c:	fb842783          	lw	a5,-72(s0)
    d040:	01a7a023          	sw	s10,0(a5)
    d044:	01b7a223          	sw	s11,4(a5)
    d048:	fcc42783          	lw	a5,-52(s0)
    d04c:	00178793          	add	a5,a5,1
    d050:	fcf42623          	sw	a5,-52(s0)
    d054:	fcc42703          	lw	a4,-52(s0)
    d058:	00500793          	li	a5,5
    d05c:	f0e7fee3          	bgeu	a5,a4,cf78 <get_tile_render_mask+0x60>
    d060:	fb842783          	lw	a5,-72(s0)
    d064:	0007a703          	lw	a4,0(a5)
    d068:	0047a783          	lw	a5,4(a5)
    d06c:	00f767b3          	or	a5,a4,a5
    d070:	00f037b3          	snez	a5,a5
    d074:	0ff7f793          	zext.b	a5,a5
    d078:	00078713          	mv	a4,a5
    d07c:	fb442783          	lw	a5,-76(s0)
    d080:	00e7a023          	sw	a4,0(a5)
    d084:	fbc42783          	lw	a5,-68(s0)
    d088:	2787a703          	lw	a4,632(a5)
    d08c:	0000f7b7          	lui	a5,0xf
    d090:	d7878793          	add	a5,a5,-648 # ed78 <last_board>
    d094:	2787a783          	lw	a5,632(a5)
    d098:	20f70263          	beq	a4,a5,d29c <get_tile_render_mask+0x384>
    d09c:	fbc42783          	lw	a5,-68(s0)
    d0a0:	2787a703          	lw	a4,632(a5)
    d0a4:	fff00793          	li	a5,-1
    d0a8:	10f70263          	beq	a4,a5,d1ac <get_tile_render_mask+0x294>
    d0ac:	fb842783          	lw	a5,-72(s0)
    d0b0:	0007a703          	lw	a4,0(a5)
    d0b4:	0047a783          	lw	a5,4(a5)
    d0b8:	00070513          	mv	a0,a4
    d0bc:	00078593          	mv	a1,a5
    d0c0:	fbc42783          	lw	a5,-68(s0)
    d0c4:	2787a783          	lw	a5,632(a5)
    d0c8:	00078693          	mv	a3,a5
    d0cc:	fe068713          	add	a4,a3,-32
    d0d0:	00074a63          	bltz	a4,d0e4 <get_tile_render_mask+0x1cc>
    d0d4:	00100793          	li	a5,1
    d0d8:	00e798b3          	sll	a7,a5,a4
    d0dc:	00000813          	li	a6,0
    d0e0:	02c0006f          	j	d10c <get_tile_render_mask+0x1f4>
    d0e4:	00100793          	li	a5,1
    d0e8:	0017d713          	srl	a4,a5,0x1
    d0ec:	01f00793          	li	a5,31
    d0f0:	40d787b3          	sub	a5,a5,a3
    d0f4:	00f75733          	srl	a4,a4,a5
    d0f8:	00000793          	li	a5,0
    d0fc:	00d798b3          	sll	a7,a5,a3
    d100:	011768b3          	or	a7,a4,a7
    d104:	00100793          	li	a5,1
    d108:	00d79833          	sll	a6,a5,a3
    d10c:	010567b3          	or	a5,a0,a6
    d110:	faf42023          	sw	a5,-96(s0)
    d114:	0115e7b3          	or	a5,a1,a7
    d118:	faf42223          	sw	a5,-92(s0)
    d11c:	fa042703          	lw	a4,-96(s0)
    d120:	fa442783          	lw	a5,-92(s0)
    d124:	fb842683          	lw	a3,-72(s0)
    d128:	00e6a023          	sw	a4,0(a3)
    d12c:	00f6a223          	sw	a5,4(a3)
    d130:	fb842783          	lw	a5,-72(s0)
    d134:	0007a603          	lw	a2,0(a5)
    d138:	0047a683          	lw	a3,4(a5)
    d13c:	fbc42783          	lw	a5,-68(s0)
    d140:	2787a783          	lw	a5,632(a5)
    d144:	fbc42703          	lw	a4,-68(s0)
    d148:	00c78793          	add	a5,a5,12
    d14c:	00379793          	sll	a5,a5,0x3
    d150:	00f707b3          	add	a5,a4,a5
    d154:	0007a503          	lw	a0,0(a5)
    d158:	0047a583          	lw	a1,4(a5)
    d15c:	fbc42783          	lw	a5,-68(s0)
    d160:	2787a803          	lw	a6,632(a5)
    d164:	0000f7b7          	lui	a5,0xf
    d168:	d7878713          	add	a4,a5,-648 # ed78 <last_board>
    d16c:	00c80793          	add	a5,a6,12
    d170:	00379793          	sll	a5,a5,0x3
    d174:	00f707b3          	add	a5,a4,a5
    d178:	0007a703          	lw	a4,0(a5)
    d17c:	0047a783          	lw	a5,4(a5)
    d180:	00e56c33          	or	s8,a0,a4
    d184:	00f5ecb3          	or	s9,a1,a5
    d188:	018667b3          	or	a5,a2,s8
    d18c:	f8f42c23          	sw	a5,-104(s0)
    d190:	0196e7b3          	or	a5,a3,s9
    d194:	f8f42e23          	sw	a5,-100(s0)
    d198:	fb842783          	lw	a5,-72(s0)
    d19c:	f9842683          	lw	a3,-104(s0)
    d1a0:	f9c42703          	lw	a4,-100(s0)
    d1a4:	00d7a023          	sw	a3,0(a5)
    d1a8:	00e7a223          	sw	a4,4(a5)
    d1ac:	0000f7b7          	lui	a5,0xf
    d1b0:	d7878793          	add	a5,a5,-648 # ed78 <last_board>
    d1b4:	2787a703          	lw	a4,632(a5)
    d1b8:	fff00793          	li	a5,-1
    d1bc:	0ef70063          	beq	a4,a5,d29c <get_tile_render_mask+0x384>
    d1c0:	fb842783          	lw	a5,-72(s0)
    d1c4:	0007a703          	lw	a4,0(a5)
    d1c8:	0047a783          	lw	a5,4(a5)
    d1cc:	00070613          	mv	a2,a4
    d1d0:	00078693          	mv	a3,a5
    d1d4:	0000f7b7          	lui	a5,0xf
    d1d8:	d7878793          	add	a5,a5,-648 # ed78 <last_board>
    d1dc:	2787a783          	lw	a5,632(a5)
    d1e0:	fe078713          	add	a4,a5,-32
    d1e4:	00074a63          	bltz	a4,d1f8 <get_tile_render_mask+0x2e0>
    d1e8:	00100793          	li	a5,1
    d1ec:	00e79fb3          	sll	t6,a5,a4
    d1f0:	00000f13          	li	t5,0
    d1f4:	02c0006f          	j	d220 <get_tile_render_mask+0x308>
    d1f8:	00100713          	li	a4,1
    d1fc:	00175593          	srl	a1,a4,0x1
    d200:	01f00713          	li	a4,31
    d204:	40f70733          	sub	a4,a4,a5
    d208:	00e5d733          	srl	a4,a1,a4
    d20c:	00000593          	li	a1,0
    d210:	00f59fb3          	sll	t6,a1,a5
    d214:	01f76fb3          	or	t6,a4,t6
    d218:	00100713          	li	a4,1
    d21c:	00f71f33          	sll	t5,a4,a5
    d220:	01e667b3          	or	a5,a2,t5
    d224:	f8f42823          	sw	a5,-112(s0)
    d228:	01f6e7b3          	or	a5,a3,t6
    d22c:	f8f42a23          	sw	a5,-108(s0)
    d230:	f9042703          	lw	a4,-112(s0)
    d234:	f9442783          	lw	a5,-108(s0)
    d238:	fb842683          	lw	a3,-72(s0)
    d23c:	00e6a023          	sw	a4,0(a3)
    d240:	00f6a223          	sw	a5,4(a3)
    d244:	fb842783          	lw	a5,-72(s0)
    d248:	0007a603          	lw	a2,0(a5)
    d24c:	0047a683          	lw	a3,4(a5)
    d250:	0000f7b7          	lui	a5,0xf
    d254:	d7878793          	add	a5,a5,-648 # ed78 <last_board>
    d258:	2787a783          	lw	a5,632(a5)
    d25c:	0000f737          	lui	a4,0xf
    d260:	d7870713          	add	a4,a4,-648 # ed78 <last_board>
    d264:	00c78793          	add	a5,a5,12
    d268:	00379793          	sll	a5,a5,0x3
    d26c:	00f707b3          	add	a5,a4,a5
    d270:	0007a703          	lw	a4,0(a5)
    d274:	0047a783          	lw	a5,4(a5)
    d278:	00e665b3          	or	a1,a2,a4
    d27c:	f8b42423          	sw	a1,-120(s0)
    d280:	00f6e7b3          	or	a5,a3,a5
    d284:	f8f42623          	sw	a5,-116(s0)
    d288:	fb842783          	lw	a5,-72(s0)
    d28c:	f8842683          	lw	a3,-120(s0)
    d290:	f8c42703          	lw	a4,-116(s0)
    d294:	00d7a023          	sw	a3,0(a5)
    d298:	00e7a223          	sw	a4,4(a5)
    d29c:	fbc42783          	lw	a5,-68(s0)
    d2a0:	2807a703          	lw	a4,640(a5)
    d2a4:	00300793          	li	a5,3
    d2a8:	08f71263          	bne	a4,a5,d32c <get_tile_render_mask+0x414>
    d2ac:	fbc42503          	lw	a0,-68(s0)
    d2b0:	da9fe0ef          	jal	c058 <chess_get_promoting_pawn>
    d2b4:	00050793          	mv	a5,a0
    d2b8:	fe078713          	add	a4,a5,-32
    d2bc:	00074a63          	bltz	a4,d2d0 <get_tile_render_mask+0x3b8>
    d2c0:	00100793          	li	a5,1
    d2c4:	00e799b3          	sll	s3,a5,a4
    d2c8:	00000913          	li	s2,0
    d2cc:	02c0006f          	j	d2f8 <get_tile_render_mask+0x3e0>
    d2d0:	00100713          	li	a4,1
    d2d4:	00175693          	srl	a3,a4,0x1
    d2d8:	01f00713          	li	a4,31
    d2dc:	40f70733          	sub	a4,a4,a5
    d2e0:	00e6d733          	srl	a4,a3,a4
    d2e4:	00000693          	li	a3,0
    d2e8:	00f699b3          	sll	s3,a3,a5
    d2ec:	013769b3          	or	s3,a4,s3
    d2f0:	00100713          	li	a4,1
    d2f4:	00f71933          	sll	s2,a4,a5
    d2f8:	fb842783          	lw	a5,-72(s0)
    d2fc:	0007a703          	lw	a4,0(a5)
    d300:	0047a783          	lw	a5,4(a5)
    d304:	00e966b3          	or	a3,s2,a4
    d308:	f8d42023          	sw	a3,-128(s0)
    d30c:	00f9e7b3          	or	a5,s3,a5
    d310:	f8f42223          	sw	a5,-124(s0)
    d314:	f8042703          	lw	a4,-128(s0)
    d318:	f8442783          	lw	a5,-124(s0)
    d31c:	fb842683          	lw	a3,-72(s0)
    d320:	00e6a023          	sw	a4,0(a3)
    d324:	00f6a223          	sw	a5,4(a3)
    d328:	1200006f          	j	d448 <get_tile_render_mask+0x530>
    d32c:	fbc42783          	lw	a5,-68(s0)
    d330:	2747a703          	lw	a4,628(a5)
    d334:	0000f7b7          	lui	a5,0xf
    d338:	d7878793          	add	a5,a5,-648 # ed78 <last_board>
    d33c:	2747a783          	lw	a5,628(a5)
    d340:	10f70463          	beq	a4,a5,d448 <get_tile_render_mask+0x530>
    d344:	fb842783          	lw	a5,-72(s0)
    d348:	0007a703          	lw	a4,0(a5)
    d34c:	0047a783          	lw	a5,4(a5)
    d350:	00070613          	mv	a2,a4
    d354:	00078693          	mv	a3,a5
    d358:	fbc42783          	lw	a5,-68(s0)
    d35c:	2747a783          	lw	a5,628(a5)
    d360:	fe078713          	add	a4,a5,-32
    d364:	00074a63          	bltz	a4,d378 <get_tile_render_mask+0x460>
    d368:	00100793          	li	a5,1
    d36c:	00e79eb3          	sll	t4,a5,a4
    d370:	00000e13          	li	t3,0
    d374:	02c0006f          	j	d3a0 <get_tile_render_mask+0x488>
    d378:	00100713          	li	a4,1
    d37c:	00175593          	srl	a1,a4,0x1
    d380:	01f00713          	li	a4,31
    d384:	40f70733          	sub	a4,a4,a5
    d388:	00e5d733          	srl	a4,a1,a4
    d38c:	00000593          	li	a1,0
    d390:	00f59eb3          	sll	t4,a1,a5
    d394:	01d76eb3          	or	t4,a4,t4
    d398:	00100713          	li	a4,1
    d39c:	00f71e33          	sll	t3,a4,a5
    d3a0:	01c667b3          	or	a5,a2,t3
    d3a4:	f6f42c23          	sw	a5,-136(s0)
    d3a8:	01d6e7b3          	or	a5,a3,t4
    d3ac:	f6f42e23          	sw	a5,-132(s0)
    d3b0:	f7842703          	lw	a4,-136(s0)
    d3b4:	f7c42783          	lw	a5,-132(s0)
    d3b8:	fb842683          	lw	a3,-72(s0)
    d3bc:	00e6a023          	sw	a4,0(a3)
    d3c0:	00f6a223          	sw	a5,4(a3)
    d3c4:	fb842783          	lw	a5,-72(s0)
    d3c8:	0007a703          	lw	a4,0(a5)
    d3cc:	0047a783          	lw	a5,4(a5)
    d3d0:	00070613          	mv	a2,a4
    d3d4:	00078693          	mv	a3,a5
    d3d8:	0000f7b7          	lui	a5,0xf
    d3dc:	d7878793          	add	a5,a5,-648 # ed78 <last_board>
    d3e0:	2747a783          	lw	a5,628(a5)
    d3e4:	fe078713          	add	a4,a5,-32
    d3e8:	00074a63          	bltz	a4,d3fc <get_tile_render_mask+0x4e4>
    d3ec:	00100793          	li	a5,1
    d3f0:	00e793b3          	sll	t2,a5,a4
    d3f4:	00000313          	li	t1,0
    d3f8:	02c0006f          	j	d424 <get_tile_render_mask+0x50c>
    d3fc:	00100713          	li	a4,1
    d400:	00175593          	srl	a1,a4,0x1
    d404:	01f00713          	li	a4,31
    d408:	40f70733          	sub	a4,a4,a5
    d40c:	00e5d733          	srl	a4,a1,a4
    d410:	00000593          	li	a1,0
    d414:	00f593b3          	sll	t2,a1,a5
    d418:	007763b3          	or	t2,a4,t2
    d41c:	00100713          	li	a4,1
    d420:	00f71333          	sll	t1,a4,a5
    d424:	006667b3          	or	a5,a2,t1
    d428:	f6f42823          	sw	a5,-144(s0)
    d42c:	0076e7b3          	or	a5,a3,t2
    d430:	f6f42a23          	sw	a5,-140(s0)
    d434:	f7042703          	lw	a4,-144(s0)
    d438:	f7442783          	lw	a5,-140(s0)
    d43c:	fb842683          	lw	a3,-72(s0)
    d440:	00e6a023          	sw	a4,0(a3)
    d444:	00f6a223          	sw	a5,4(a3)
    d448:	00000013          	nop
    d44c:	08c12083          	lw	ra,140(sp)
    d450:	08812403          	lw	s0,136(sp)
    d454:	08412903          	lw	s2,132(sp)
    d458:	08012983          	lw	s3,128(sp)
    d45c:	07c12a03          	lw	s4,124(sp)
    d460:	07812a83          	lw	s5,120(sp)
    d464:	07412b03          	lw	s6,116(sp)
    d468:	07012b83          	lw	s7,112(sp)
    d46c:	06c12c03          	lw	s8,108(sp)
    d470:	06812c83          	lw	s9,104(sp)
    d474:	06412d03          	lw	s10,100(sp)
    d478:	06012d83          	lw	s11,96(sp)
    d47c:	09010113          	add	sp,sp,144
    d480:	00008067          	ret

0000d484 <render_game_state_text>:
    d484:	fc010113          	add	sp,sp,-64
    d488:	02112e23          	sw	ra,60(sp)
    d48c:	02812c23          	sw	s0,56(sp)
    d490:	04010413          	add	s0,sp,64
    d494:	fca42623          	sw	a0,-52(s0)
    d498:	00400793          	li	a5,4
    d49c:	fef42623          	sw	a5,-20(s0)
    d4a0:	0000f7b7          	lui	a5,0xf
    d4a4:	d707a783          	lw	a5,-656(a5) # ed70 <has_last_board>
    d4a8:	02078263          	beqz	a5,d4cc <render_game_state_text+0x48>
    d4ac:	09100793          	li	a5,145
    d4b0:	00000713          	li	a4,0
    d4b4:	fec42683          	lw	a3,-20(s0)
    d4b8:	fec42603          	lw	a2,-20(s0)
    d4bc:	00078593          	mv	a1,a5
    d4c0:	0000f7b7          	lui	a5,0xf
    d4c4:	00078513          	mv	a0,a5
    d4c8:	d05f40ef          	jal	21cc <render_text_clear>
    d4cc:	fcc42783          	lw	a5,-52(s0)
    d4d0:	2807a783          	lw	a5,640(a5) # f280 <__global_pointer+0x1dc>
    d4d4:	00178793          	add	a5,a5,1
    d4d8:	00400713          	li	a4,4
    d4dc:	18f76063          	bltu	a4,a5,d65c <render_game_state_text+0x1d8>
    d4e0:	00279713          	sll	a4,a5,0x2
    d4e4:	000117b7          	lui	a5,0x11
    d4e8:	e3878793          	add	a5,a5,-456 # 10e38 <white_start_position+0xa0>
    d4ec:	00f707b3          	add	a5,a4,a5
    d4f0:	0007a783          	lw	a5,0(a5)
    d4f4:	00078067          	jr	a5
    d4f8:	fcc42783          	lw	a5,-52(s0)
    d4fc:	27c7a703          	lw	a4,636(a5)
    d500:	00100793          	li	a5,1
    d504:	00f71863          	bne	a4,a5,d514 <render_game_state_text+0x90>
    d508:	000117b7          	lui	a5,0x11
    d50c:	de078793          	add	a5,a5,-544 # 10de0 <white_start_position+0x48>
    d510:	00c0006f          	j	d51c <render_game_state_text+0x98>
    d514:	000117b7          	lui	a5,0x11
    d518:	dec78793          	add	a5,a5,-532 # 10dec <white_start_position+0x54>
    d51c:	fcf42c23          	sw	a5,-40(s0)
    d520:	00000593          	li	a1,0
    d524:	09100613          	li	a2,145
    d528:	00000793          	li	a5,0
    d52c:	fec42703          	lw	a4,-20(s0)
    d530:	fec42683          	lw	a3,-20(s0)
    d534:	fd842503          	lw	a0,-40(s0)
    d538:	9e5f40ef          	jal	1f1c <render_text>
    d53c:	fd842583          	lw	a1,-40(s0)
    d540:	0000f7b7          	lui	a5,0xf
    d544:	00078513          	mv	a0,a5
    d548:	c49f20ef          	jal	190 <strcpy>
    d54c:	1140006f          	j	d660 <render_game_state_text+0x1dc>
    d550:	fcc42783          	lw	a5,-52(s0)
    d554:	27c7a703          	lw	a4,636(a5) # f27c <__global_pointer+0x1d8>
    d558:	00100793          	li	a5,1
    d55c:	00f71863          	bne	a4,a5,d56c <render_game_state_text+0xe8>
    d560:	000117b7          	lui	a5,0x11
    d564:	df878793          	add	a5,a5,-520 # 10df8 <white_start_position+0x60>
    d568:	00c0006f          	j	d574 <render_game_state_text+0xf0>
    d56c:	000117b7          	lui	a5,0x11
    d570:	e0878793          	add	a5,a5,-504 # 10e08 <white_start_position+0x70>
    d574:	fef42423          	sw	a5,-24(s0)
    d578:	00000593          	li	a1,0
    d57c:	09100613          	li	a2,145
    d580:	00000793          	li	a5,0
    d584:	fec42703          	lw	a4,-20(s0)
    d588:	fec42683          	lw	a3,-20(s0)
    d58c:	fe842503          	lw	a0,-24(s0)
    d590:	98df40ef          	jal	1f1c <render_text>
    d594:	fe842583          	lw	a1,-24(s0)
    d598:	0000f7b7          	lui	a5,0xf
    d59c:	00078513          	mv	a0,a5
    d5a0:	bf1f20ef          	jal	190 <strcpy>
    d5a4:	0bc0006f          	j	d660 <render_game_state_text+0x1dc>
    d5a8:	000117b7          	lui	a5,0x11
    d5ac:	e1878793          	add	a5,a5,-488 # 10e18 <white_start_position+0x80>
    d5b0:	fef42023          	sw	a5,-32(s0)
    d5b4:	00000593          	li	a1,0
    d5b8:	09100613          	li	a2,145
    d5bc:	00000793          	li	a5,0
    d5c0:	fec42703          	lw	a4,-20(s0)
    d5c4:	fec42683          	lw	a3,-20(s0)
    d5c8:	fe042503          	lw	a0,-32(s0)
    d5cc:	951f40ef          	jal	1f1c <render_text>
    d5d0:	fe042583          	lw	a1,-32(s0)
    d5d4:	0000f7b7          	lui	a5,0xf
    d5d8:	00078513          	mv	a0,a5
    d5dc:	bb5f20ef          	jal	190 <strcpy>
    d5e0:	0800006f          	j	d660 <render_game_state_text+0x1dc>
    d5e4:	000117b7          	lui	a5,0x11
    d5e8:	e2478793          	add	a5,a5,-476 # 10e24 <white_start_position+0x8c>
    d5ec:	fcf42e23          	sw	a5,-36(s0)
    d5f0:	00000593          	li	a1,0
    d5f4:	09100613          	li	a2,145
    d5f8:	00000793          	li	a5,0
    d5fc:	fec42703          	lw	a4,-20(s0)
    d600:	fec42683          	lw	a3,-20(s0)
    d604:	fdc42503          	lw	a0,-36(s0)
    d608:	915f40ef          	jal	1f1c <render_text>
    d60c:	fdc42583          	lw	a1,-36(s0)
    d610:	0000f7b7          	lui	a5,0xf
    d614:	00078513          	mv	a0,a5
    d618:	b79f20ef          	jal	190 <strcpy>
    d61c:	0440006f          	j	d660 <render_game_state_text+0x1dc>
    d620:	000117b7          	lui	a5,0x11
    d624:	e3078793          	add	a5,a5,-464 # 10e30 <white_start_position+0x98>
    d628:	fef42223          	sw	a5,-28(s0)
    d62c:	00000593          	li	a1,0
    d630:	09100613          	li	a2,145
    d634:	00000793          	li	a5,0
    d638:	fec42703          	lw	a4,-20(s0)
    d63c:	fec42683          	lw	a3,-20(s0)
    d640:	fe442503          	lw	a0,-28(s0)
    d644:	8d9f40ef          	jal	1f1c <render_text>
    d648:	fe442583          	lw	a1,-28(s0)
    d64c:	0000f7b7          	lui	a5,0xf
    d650:	00078513          	mv	a0,a5
    d654:	b3df20ef          	jal	190 <strcpy>
    d658:	0080006f          	j	d660 <render_game_state_text+0x1dc>
    d65c:	00000013          	nop
    d660:	00000013          	nop
    d664:	03c12083          	lw	ra,60(sp)
    d668:	03812403          	lw	s0,56(sp)
    d66c:	04010113          	add	sp,sp,64
    d670:	00008067          	ret

0000d674 <chess_render_reset>:
    d674:	ff010113          	add	sp,sp,-16
    d678:	00812623          	sw	s0,12(sp)
    d67c:	01010413          	add	s0,sp,16
    d680:	0000f7b7          	lui	a5,0xf
    d684:	d607a823          	sw	zero,-656(a5) # ed70 <has_last_board>
    d688:	00000013          	nop
    d68c:	00c12403          	lw	s0,12(sp)
    d690:	01010113          	add	sp,sp,16
    d694:	00008067          	ret

0000d698 <chess_render>:
    d698:	fe010113          	add	sp,sp,-32
    d69c:	00112e23          	sw	ra,28(sp)
    d6a0:	00812c23          	sw	s0,24(sp)
    d6a4:	00912a23          	sw	s1,20(sp)
    d6a8:	02010413          	add	s0,sp,32
    d6ac:	00050493          	mv	s1,a0
    d6b0:	00010737          	lui	a4,0x10
    d6b4:	fff70713          	add	a4,a4,-1 # ffff <SPRITE_CARD_HEARTS+0x7>
    d6b8:	ffff07b7          	lui	a5,0xffff0
    d6bc:	fee42423          	sw	a4,-24(s0)
    d6c0:	fef42623          	sw	a5,-20(s0)
    d6c4:	00100793          	li	a5,1
    d6c8:	fef42223          	sw	a5,-28(s0)
    d6cc:	0000f7b7          	lui	a5,0xf
    d6d0:	d707a783          	lw	a5,-656(a5) # ed70 <has_last_board>
    d6d4:	06079e63          	bnez	a5,d750 <chess_render+0xb8>
    d6d8:	0000c7b7          	lui	a5,0xc
    d6dc:	7c078513          	add	a0,a5,1984 # c7c0 <get_background_color>
    d6e0:	c2df40ef          	jal	230c <render_background>
    d6e4:	04000793          	li	a5,64
    d6e8:	fff78513          	add	a0,a5,-1
    d6ec:	01800793          	li	a5,24
    d6f0:	fff78593          	add	a1,a5,-1
    d6f4:	01800793          	li	a5,24
    d6f8:	00379793          	sll	a5,a5,0x3
    d6fc:	00278613          	add	a2,a5,2
    d700:	01800793          	li	a5,24
    d704:	00379793          	sll	a5,a5,0x3
    d708:	00278793          	add	a5,a5,2
    d70c:	00000713          	li	a4,0
    d710:	00078693          	mv	a3,a5
    d714:	ccdf30ef          	jal	13e0 <render_rect_border>
    d718:	04000793          	li	a5,64
    d71c:	ffe78513          	add	a0,a5,-2
    d720:	01800793          	li	a5,24
    d724:	ffe78593          	add	a1,a5,-2
    d728:	01800793          	li	a5,24
    d72c:	00379793          	sll	a5,a5,0x3
    d730:	00478613          	add	a2,a5,4
    d734:	01800793          	li	a5,24
    d738:	00379793          	sll	a5,a5,0x3
    d73c:	00478793          	add	a5,a5,4
    d740:	00000713          	li	a4,0
    d744:	00078693          	mv	a3,a5
    d748:	c99f30ef          	jal	13e0 <render_rect_border>
    d74c:	01c0006f          	j	d768 <chess_render+0xd0>
    d750:	fe440713          	add	a4,s0,-28
    d754:	fe840793          	add	a5,s0,-24
    d758:	00070613          	mv	a2,a4
    d75c:	00078593          	mv	a1,a5
    d760:	00048513          	mv	a0,s1
    d764:	fb4ff0ef          	jal	cf18 <get_tile_render_mask>
    d768:	fe842703          	lw	a4,-24(s0)
    d76c:	fec42783          	lw	a5,-20(s0)
    d770:	00070593          	mv	a1,a4
    d774:	00078613          	mv	a2,a5
    d778:	00048513          	mv	a0,s1
    d77c:	ea8ff0ef          	jal	ce24 <render_tiles>
    d780:	fe442783          	lw	a5,-28(s0)
    d784:	00078663          	beqz	a5,d790 <chess_render+0xf8>
    d788:	00048513          	mv	a0,s1
    d78c:	cf9ff0ef          	jal	d484 <render_game_state_text>
    d790:	0000f7b7          	lui	a5,0xf
    d794:	d7878793          	add	a5,a5,-648 # ed78 <last_board>
    d798:	00078713          	mv	a4,a5
    d79c:	00048693          	mv	a3,s1
    d7a0:	28800793          	li	a5,648
    d7a4:	00078613          	mv	a2,a5
    d7a8:	00068593          	mv	a1,a3
    d7ac:	00070513          	mv	a0,a4
    d7b0:	a61f20ef          	jal	210 <memcpy>
    d7b4:	0000f7b7          	lui	a5,0xf
    d7b8:	00100713          	li	a4,1
    d7bc:	d6e7a823          	sw	a4,-656(a5) # ed70 <has_last_board>
    d7c0:	b40f30ef          	jal	b00 <io_vga_flush_pixels>
    d7c4:	00000013          	nop
    d7c8:	01c12083          	lw	ra,28(sp)
    d7cc:	01812403          	lw	s0,24(sp)
    d7d0:	01412483          	lw	s1,20(sp)
    d7d4:	02010113          	add	sp,sp,32
    d7d8:	00008067          	ret

0000d7dc <idx>:
    d7dc:	fe010113          	add	sp,sp,-32
    d7e0:	00812e23          	sw	s0,28(sp)
    d7e4:	02010413          	add	s0,sp,32
    d7e8:	fea42623          	sw	a0,-20(s0)
    d7ec:	feb42423          	sw	a1,-24(s0)
    d7f0:	fe842703          	lw	a4,-24(s0)
    d7f4:	00070793          	mv	a5,a4
    d7f8:	00279793          	sll	a5,a5,0x2
    d7fc:	00e787b3          	add	a5,a5,a4
    d800:	00279793          	sll	a5,a5,0x2
    d804:	00078713          	mv	a4,a5
    d808:	fec42783          	lw	a5,-20(s0)
    d80c:	00f707b3          	add	a5,a4,a5
    d810:	00078513          	mv	a0,a5
    d814:	01c12403          	lw	s0,28(sp)
    d818:	02010113          	add	sp,sp,32
    d81c:	00008067          	ret

0000d820 <move_based_on_dir>:
    d820:	fe010113          	add	sp,sp,-32
    d824:	00812e23          	sw	s0,28(sp)
    d828:	02010413          	add	s0,sp,32
    d82c:	fea42623          	sw	a0,-20(s0)
    d830:	feb42423          	sw	a1,-24(s0)
    d834:	fec42223          	sw	a2,-28(s0)
    d838:	fec42703          	lw	a4,-20(s0)
    d83c:	00300793          	li	a5,3
    d840:	08f70463          	beq	a4,a5,d8c8 <move_based_on_dir+0xa8>
    d844:	fec42703          	lw	a4,-20(s0)
    d848:	00300793          	li	a5,3
    d84c:	08e7ea63          	bltu	a5,a4,d8e0 <move_based_on_dir+0xc0>
    d850:	fec42703          	lw	a4,-20(s0)
    d854:	00200793          	li	a5,2
    d858:	04f70063          	beq	a4,a5,d898 <move_based_on_dir+0x78>
    d85c:	fec42703          	lw	a4,-20(s0)
    d860:	00200793          	li	a5,2
    d864:	06e7ee63          	bltu	a5,a4,d8e0 <move_based_on_dir+0xc0>
    d868:	fec42783          	lw	a5,-20(s0)
    d86c:	00078a63          	beqz	a5,d880 <move_based_on_dir+0x60>
    d870:	fec42703          	lw	a4,-20(s0)
    d874:	00100793          	li	a5,1
    d878:	02f70c63          	beq	a4,a5,d8b0 <move_based_on_dir+0x90>
    d87c:	0640006f          	j	d8e0 <move_based_on_dir+0xc0>
    d880:	fe442783          	lw	a5,-28(s0)
    d884:	0007a783          	lw	a5,0(a5)
    d888:	fff78713          	add	a4,a5,-1
    d88c:	fe442783          	lw	a5,-28(s0)
    d890:	00e7a023          	sw	a4,0(a5)
    d894:	04c0006f          	j	d8e0 <move_based_on_dir+0xc0>
    d898:	fe442783          	lw	a5,-28(s0)
    d89c:	0007a783          	lw	a5,0(a5)
    d8a0:	00178713          	add	a4,a5,1
    d8a4:	fe442783          	lw	a5,-28(s0)
    d8a8:	00e7a023          	sw	a4,0(a5)
    d8ac:	0340006f          	j	d8e0 <move_based_on_dir+0xc0>
    d8b0:	fe842783          	lw	a5,-24(s0)
    d8b4:	0007a783          	lw	a5,0(a5)
    d8b8:	fff78713          	add	a4,a5,-1
    d8bc:	fe842783          	lw	a5,-24(s0)
    d8c0:	00e7a023          	sw	a4,0(a5)
    d8c4:	01c0006f          	j	d8e0 <move_based_on_dir+0xc0>
    d8c8:	fe842783          	lw	a5,-24(s0)
    d8cc:	0007a783          	lw	a5,0(a5)
    d8d0:	00178713          	add	a4,a5,1
    d8d4:	fe842783          	lw	a5,-24(s0)
    d8d8:	00e7a023          	sw	a4,0(a5)
    d8dc:	00000013          	nop
    d8e0:	00000013          	nop
    d8e4:	01c12403          	lw	s0,28(sp)
    d8e8:	02010113          	add	sp,sp,32
    d8ec:	00008067          	ret

0000d8f0 <snake_place_food_rand>:
    d8f0:	fd010113          	add	sp,sp,-48
    d8f4:	02112623          	sw	ra,44(sp)
    d8f8:	02812423          	sw	s0,40(sp)
    d8fc:	03010413          	add	s0,sp,48
    d900:	fca42e23          	sw	a0,-36(s0)
    d904:	a11f20ef          	jal	314 <rand>
    d908:	00050713          	mv	a4,a0
    d90c:	01400793          	li	a5,20
    d910:	02f767b3          	rem	a5,a4,a5
    d914:	fef42623          	sw	a5,-20(s0)
    d918:	9fdf20ef          	jal	314 <rand>
    d91c:	00050713          	mv	a4,a0
    d920:	01400793          	li	a5,20
    d924:	02f767b3          	rem	a5,a4,a5
    d928:	fef42423          	sw	a5,-24(s0)
    d92c:	fe842583          	lw	a1,-24(s0)
    d930:	fec42503          	lw	a0,-20(s0)
    d934:	ea9ff0ef          	jal	d7dc <idx>
    d938:	00050793          	mv	a5,a0
    d93c:	fdc42703          	lw	a4,-36(s0)
    d940:	00279793          	sll	a5,a5,0x2
    d944:	00f707b3          	add	a5,a4,a5
    d948:	0007a703          	lw	a4,0(a5)
    d94c:	fff00793          	li	a5,-1
    d950:	02f70263          	beq	a4,a5,d974 <snake_place_food_rand+0x84>
    d954:	fdc42783          	lw	a5,-36(s0)
    d958:	6447a783          	lw	a5,1604(a5)
    d95c:	fec42703          	lw	a4,-20(s0)
    d960:	faf712e3          	bne	a4,a5,d904 <snake_place_food_rand+0x14>
    d964:	fdc42783          	lw	a5,-36(s0)
    d968:	6487a783          	lw	a5,1608(a5)
    d96c:	fe842703          	lw	a4,-24(s0)
    d970:	f8f71ae3          	bne	a4,a5,d904 <snake_place_food_rand+0x14>
    d974:	fdc42783          	lw	a5,-36(s0)
    d978:	fec42703          	lw	a4,-20(s0)
    d97c:	64e7a223          	sw	a4,1604(a5)
    d980:	fdc42783          	lw	a5,-36(s0)
    d984:	fe842703          	lw	a4,-24(s0)
    d988:	64e7a423          	sw	a4,1608(a5)
    d98c:	00000013          	nop
    d990:	02c12083          	lw	ra,44(sp)
    d994:	02812403          	lw	s0,40(sp)
    d998:	03010113          	add	sp,sp,48
    d99c:	00008067          	ret

0000d9a0 <snake_init_game>:
    d9a0:	fd010113          	add	sp,sp,-48
    d9a4:	02112623          	sw	ra,44(sp)
    d9a8:	02812423          	sw	s0,40(sp)
    d9ac:	03010413          	add	s0,sp,48
    d9b0:	fca42e23          	sw	a0,-36(s0)
    d9b4:	fdc42783          	lw	a5,-36(s0)
    d9b8:	6607a023          	sw	zero,1632(a5)
    d9bc:	fdc42783          	lw	a5,-36(s0)
    d9c0:	00a00713          	li	a4,10
    d9c4:	64e7aa23          	sw	a4,1620(a5)
    d9c8:	fdc42783          	lw	a5,-36(s0)
    d9cc:	00a00713          	li	a4,10
    d9d0:	64e7ac23          	sw	a4,1624(a5)
    d9d4:	fdc42783          	lw	a5,-36(s0)
    d9d8:	6547a783          	lw	a5,1620(a5)
    d9dc:	00378713          	add	a4,a5,3
    d9e0:	fdc42783          	lw	a5,-36(s0)
    d9e4:	64e7a623          	sw	a4,1612(a5)
    d9e8:	fdc42783          	lw	a5,-36(s0)
    d9ec:	6587a703          	lw	a4,1624(a5)
    d9f0:	fdc42783          	lw	a5,-36(s0)
    d9f4:	64e7a823          	sw	a4,1616(a5)
    d9f8:	fdc42783          	lw	a5,-36(s0)
    d9fc:	00300713          	li	a4,3
    da00:	64e7ae23          	sw	a4,1628(a5)
    da04:	fdc42783          	lw	a5,-36(s0)
    da08:	6407a023          	sw	zero,1600(a5)
    da0c:	fe042623          	sw	zero,-20(s0)
    da10:	0280006f          	j	da38 <snake_init_game+0x98>
    da14:	fdc42703          	lw	a4,-36(s0)
    da18:	fec42783          	lw	a5,-20(s0)
    da1c:	00279793          	sll	a5,a5,0x2
    da20:	00f707b3          	add	a5,a4,a5
    da24:	fff00713          	li	a4,-1
    da28:	00e7a023          	sw	a4,0(a5)
    da2c:	fec42783          	lw	a5,-20(s0)
    da30:	00178793          	add	a5,a5,1
    da34:	fef42623          	sw	a5,-20(s0)
    da38:	fec42703          	lw	a4,-20(s0)
    da3c:	18f00793          	li	a5,399
    da40:	fce7dae3          	bge	a5,a4,da14 <snake_init_game+0x74>
    da44:	fdc42783          	lw	a5,-36(s0)
    da48:	6547a783          	lw	a5,1620(a5)
    da4c:	fef42423          	sw	a5,-24(s0)
    da50:	03c0006f          	j	da8c <snake_init_game+0xec>
    da54:	fdc42783          	lw	a5,-36(s0)
    da58:	6587a783          	lw	a5,1624(a5)
    da5c:	00078593          	mv	a1,a5
    da60:	fe842503          	lw	a0,-24(s0)
    da64:	d79ff0ef          	jal	d7dc <idx>
    da68:	00050793          	mv	a5,a0
    da6c:	fdc42703          	lw	a4,-36(s0)
    da70:	00279793          	sll	a5,a5,0x2
    da74:	00f707b3          	add	a5,a4,a5
    da78:	00300713          	li	a4,3
    da7c:	00e7a023          	sw	a4,0(a5)
    da80:	fe842783          	lw	a5,-24(s0)
    da84:	00178793          	add	a5,a5,1
    da88:	fef42423          	sw	a5,-24(s0)
    da8c:	fdc42783          	lw	a5,-36(s0)
    da90:	64c7a783          	lw	a5,1612(a5)
    da94:	fe842703          	lw	a4,-24(s0)
    da98:	fae7dee3          	bge	a5,a4,da54 <snake_init_game+0xb4>
    da9c:	fdc42503          	lw	a0,-36(s0)
    daa0:	e51ff0ef          	jal	d8f0 <snake_place_food_rand>
    daa4:	00000013          	nop
    daa8:	02c12083          	lw	ra,44(sp)
    daac:	02812403          	lw	s0,40(sp)
    dab0:	03010113          	add	sp,sp,48
    dab4:	00008067          	ret

0000dab8 <snake_move_forwards>:
    dab8:	fd010113          	add	sp,sp,-48
    dabc:	02112623          	sw	ra,44(sp)
    dac0:	02812423          	sw	s0,40(sp)
    dac4:	02912223          	sw	s1,36(sp)
    dac8:	03010413          	add	s0,sp,48
    dacc:	fca42e23          	sw	a0,-36(s0)
    dad0:	fdc42783          	lw	a5,-36(s0)
    dad4:	6607a783          	lw	a5,1632(a5)
    dad8:	1e079863          	bnez	a5,dcc8 <snake_move_forwards+0x210>
    dadc:	fdc42783          	lw	a5,-36(s0)
    dae0:	64c7a783          	lw	a5,1612(a5)
    dae4:	fef42623          	sw	a5,-20(s0)
    dae8:	fdc42783          	lw	a5,-36(s0)
    daec:	6507a783          	lw	a5,1616(a5)
    daf0:	fef42423          	sw	a5,-24(s0)
    daf4:	fdc42783          	lw	a5,-36(s0)
    daf8:	65c7a483          	lw	s1,1628(a5)
    dafc:	fdc42783          	lw	a5,-36(s0)
    db00:	64c7a703          	lw	a4,1612(a5)
    db04:	fdc42783          	lw	a5,-36(s0)
    db08:	6507a783          	lw	a5,1616(a5)
    db0c:	00078593          	mv	a1,a5
    db10:	00070513          	mv	a0,a4
    db14:	cc9ff0ef          	jal	d7dc <idx>
    db18:	00050793          	mv	a5,a0
    db1c:	00048693          	mv	a3,s1
    db20:	fdc42703          	lw	a4,-36(s0)
    db24:	00279793          	sll	a5,a5,0x2
    db28:	00f707b3          	add	a5,a4,a5
    db2c:	00d7a023          	sw	a3,0(a5)
    db30:	fdc42783          	lw	a5,-36(s0)
    db34:	65c7a703          	lw	a4,1628(a5)
    db38:	fdc42783          	lw	a5,-36(s0)
    db3c:	64c78693          	add	a3,a5,1612
    db40:	fdc42783          	lw	a5,-36(s0)
    db44:	65078793          	add	a5,a5,1616
    db48:	00078613          	mv	a2,a5
    db4c:	00068593          	mv	a1,a3
    db50:	00070513          	mv	a0,a4
    db54:	ccdff0ef          	jal	d820 <move_based_on_dir>
    db58:	fdc42783          	lw	a5,-36(s0)
    db5c:	64c7a703          	lw	a4,1612(a5)
    db60:	fdc42783          	lw	a5,-36(s0)
    db64:	6507a783          	lw	a5,1616(a5)
    db68:	00078593          	mv	a1,a5
    db6c:	00070513          	mv	a0,a4
    db70:	c6dff0ef          	jal	d7dc <idx>
    db74:	00050793          	mv	a5,a0
    db78:	fdc42703          	lw	a4,-36(s0)
    db7c:	00279793          	sll	a5,a5,0x2
    db80:	00f707b3          	add	a5,a4,a5
    db84:	0007a703          	lw	a4,0(a5)
    db88:	fff00793          	li	a5,-1
    db8c:	02f71e63          	bne	a4,a5,dbc8 <snake_move_forwards+0x110>
    db90:	fdc42783          	lw	a5,-36(s0)
    db94:	64c7a783          	lw	a5,1612(a5)
    db98:	0207c863          	bltz	a5,dbc8 <snake_move_forwards+0x110>
    db9c:	fdc42783          	lw	a5,-36(s0)
    dba0:	64c7a703          	lw	a4,1612(a5)
    dba4:	01300793          	li	a5,19
    dba8:	02e7c063          	blt	a5,a4,dbc8 <snake_move_forwards+0x110>
    dbac:	fdc42783          	lw	a5,-36(s0)
    dbb0:	6507a783          	lw	a5,1616(a5)
    dbb4:	0007ca63          	bltz	a5,dbc8 <snake_move_forwards+0x110>
    dbb8:	fdc42783          	lw	a5,-36(s0)
    dbbc:	6507a703          	lw	a4,1616(a5)
    dbc0:	01300793          	li	a5,19
    dbc4:	02e7d663          	bge	a5,a4,dbf0 <snake_move_forwards+0x138>
    dbc8:	fdc42783          	lw	a5,-36(s0)
    dbcc:	00100713          	li	a4,1
    dbd0:	66e7a023          	sw	a4,1632(a5)
    dbd4:	fdc42783          	lw	a5,-36(s0)
    dbd8:	fec42703          	lw	a4,-20(s0)
    dbdc:	64e7a623          	sw	a4,1612(a5)
    dbe0:	fdc42783          	lw	a5,-36(s0)
    dbe4:	fe842703          	lw	a4,-24(s0)
    dbe8:	64e7a823          	sw	a4,1616(a5)
    dbec:	0e00006f          	j	dccc <snake_move_forwards+0x214>
    dbf0:	fdc42783          	lw	a5,-36(s0)
    dbf4:	64c7a703          	lw	a4,1612(a5)
    dbf8:	fdc42783          	lw	a5,-36(s0)
    dbfc:	6447a783          	lw	a5,1604(a5)
    dc00:	02f71c63          	bne	a4,a5,dc38 <snake_move_forwards+0x180>
    dc04:	fdc42783          	lw	a5,-36(s0)
    dc08:	6507a703          	lw	a4,1616(a5)
    dc0c:	fdc42783          	lw	a5,-36(s0)
    dc10:	6487a783          	lw	a5,1608(a5)
    dc14:	02f71263          	bne	a4,a5,dc38 <snake_move_forwards+0x180>
    dc18:	fdc42783          	lw	a5,-36(s0)
    dc1c:	6407a783          	lw	a5,1600(a5)
    dc20:	00178713          	add	a4,a5,1
    dc24:	fdc42783          	lw	a5,-36(s0)
    dc28:	64e7a023          	sw	a4,1600(a5)
    dc2c:	fdc42503          	lw	a0,-36(s0)
    dc30:	cc1ff0ef          	jal	d8f0 <snake_place_food_rand>
    dc34:	0980006f          	j	dccc <snake_move_forwards+0x214>
    dc38:	fdc42783          	lw	a5,-36(s0)
    dc3c:	6547a703          	lw	a4,1620(a5)
    dc40:	fdc42783          	lw	a5,-36(s0)
    dc44:	6587a783          	lw	a5,1624(a5)
    dc48:	00078593          	mv	a1,a5
    dc4c:	00070513          	mv	a0,a4
    dc50:	b8dff0ef          	jal	d7dc <idx>
    dc54:	fea42223          	sw	a0,-28(s0)
    dc58:	fdc42783          	lw	a5,-36(s0)
    dc5c:	6547a703          	lw	a4,1620(a5)
    dc60:	fdc42783          	lw	a5,-36(s0)
    dc64:	6587a783          	lw	a5,1624(a5)
    dc68:	00078593          	mv	a1,a5
    dc6c:	00070513          	mv	a0,a4
    dc70:	b6dff0ef          	jal	d7dc <idx>
    dc74:	00050793          	mv	a5,a0
    dc78:	fdc42703          	lw	a4,-36(s0)
    dc7c:	00279793          	sll	a5,a5,0x2
    dc80:	00f707b3          	add	a5,a4,a5
    dc84:	0007a783          	lw	a5,0(a5)
    dc88:	00078693          	mv	a3,a5
    dc8c:	fdc42783          	lw	a5,-36(s0)
    dc90:	65478713          	add	a4,a5,1620
    dc94:	fdc42783          	lw	a5,-36(s0)
    dc98:	65878793          	add	a5,a5,1624
    dc9c:	00078613          	mv	a2,a5
    dca0:	00070593          	mv	a1,a4
    dca4:	00068513          	mv	a0,a3
    dca8:	b79ff0ef          	jal	d820 <move_based_on_dir>
    dcac:	fdc42703          	lw	a4,-36(s0)
    dcb0:	fe442783          	lw	a5,-28(s0)
    dcb4:	00279793          	sll	a5,a5,0x2
    dcb8:	00f707b3          	add	a5,a4,a5
    dcbc:	fff00713          	li	a4,-1
    dcc0:	00e7a023          	sw	a4,0(a5)
    dcc4:	0080006f          	j	dccc <snake_move_forwards+0x214>
    dcc8:	00000013          	nop
    dccc:	02c12083          	lw	ra,44(sp)
    dcd0:	02812403          	lw	s0,40(sp)
    dcd4:	02412483          	lw	s1,36(sp)
    dcd8:	03010113          	add	sp,sp,48
    dcdc:	00008067          	ret

0000dce0 <snake_turn>:
    dce0:	fe010113          	add	sp,sp,-32
    dce4:	00812e23          	sw	s0,28(sp)
    dce8:	02010413          	add	s0,sp,32
    dcec:	fea42623          	sw	a0,-20(s0)
    dcf0:	00058793          	mv	a5,a1
    dcf4:	fef405a3          	sb	a5,-21(s0)
    dcf8:	feb44783          	lbu	a5,-21(s0)
    dcfc:	02078063          	beqz	a5,dd1c <snake_turn+0x3c>
    dd00:	fec42783          	lw	a5,-20(s0)
    dd04:	65c7a783          	lw	a5,1628(a5)
    dd08:	00378793          	add	a5,a5,3
    dd0c:	0037f713          	and	a4,a5,3
    dd10:	fec42783          	lw	a5,-20(s0)
    dd14:	64e7ae23          	sw	a4,1628(a5)
    dd18:	01c0006f          	j	dd34 <snake_turn+0x54>
    dd1c:	fec42783          	lw	a5,-20(s0)
    dd20:	65c7a783          	lw	a5,1628(a5)
    dd24:	00178793          	add	a5,a5,1
    dd28:	0037f713          	and	a4,a5,3
    dd2c:	fec42783          	lw	a5,-20(s0)
    dd30:	64e7ae23          	sw	a4,1628(a5)
    dd34:	00000013          	nop
    dd38:	01c12403          	lw	s0,28(sp)
    dd3c:	02010113          	add	sp,sp,32
    dd40:	00008067          	ret

0000dd44 <snake_turn_left>:
    dd44:	fe010113          	add	sp,sp,-32
    dd48:	00112e23          	sw	ra,28(sp)
    dd4c:	00812c23          	sw	s0,24(sp)
    dd50:	02010413          	add	s0,sp,32
    dd54:	fea42623          	sw	a0,-20(s0)
    dd58:	00100593          	li	a1,1
    dd5c:	fec42503          	lw	a0,-20(s0)
    dd60:	f81ff0ef          	jal	dce0 <snake_turn>
    dd64:	00000013          	nop
    dd68:	01c12083          	lw	ra,28(sp)
    dd6c:	01812403          	lw	s0,24(sp)
    dd70:	02010113          	add	sp,sp,32
    dd74:	00008067          	ret

0000dd78 <snake_turn_right>:
    dd78:	fe010113          	add	sp,sp,-32
    dd7c:	00112e23          	sw	ra,28(sp)
    dd80:	00812c23          	sw	s0,24(sp)
    dd84:	02010413          	add	s0,sp,32
    dd88:	fea42623          	sw	a0,-20(s0)
    dd8c:	00000593          	li	a1,0
    dd90:	fec42503          	lw	a0,-20(s0)
    dd94:	f4dff0ef          	jal	dce0 <snake_turn>
    dd98:	00000013          	nop
    dd9c:	01c12083          	lw	ra,28(sp)
    dda0:	01812403          	lw	s0,24(sp)
    dda4:	02010113          	add	sp,sp,32
    dda8:	00008067          	ret

0000ddac <snake_handle_interrupt>:
    ddac:	fd010113          	add	sp,sp,-48
    ddb0:	02112623          	sw	ra,44(sp)
    ddb4:	02812423          	sw	s0,40(sp)
    ddb8:	03010413          	add	s0,sp,48
    ddbc:	fca42e23          	sw	a0,-36(s0)
    ddc0:	fdc42703          	lw	a4,-36(s0)
    ddc4:	01200793          	li	a5,18
    ddc8:	06f70a63          	beq	a4,a5,de3c <snake_handle_interrupt+0x90>
    ddcc:	fdc42703          	lw	a4,-36(s0)
    ddd0:	01200793          	li	a5,18
    ddd4:	0ee7ec63          	bltu	a5,a4,decc <snake_handle_interrupt+0x120>
    ddd8:	fdc42703          	lw	a4,-36(s0)
    dddc:	01000793          	li	a5,16
    dde0:	08f70a63          	beq	a4,a5,de74 <snake_handle_interrupt+0xc8>
    dde4:	fdc42703          	lw	a4,-36(s0)
    dde8:	01100793          	li	a5,17
    ddec:	0ef71063          	bne	a4,a5,decc <snake_handle_interrupt+0x120>
    ddf0:	000027b7          	lui	a5,0x2
    ddf4:	71078513          	add	a0,a5,1808 # 2710 <shuffle+0xe8>
    ddf8:	e04f40ef          	jal	23fc <delay>
    ddfc:	c01f20ef          	jal	9fc <io_switch>
    de00:	fea42623          	sw	a0,-20(s0)
    de04:	fec42783          	lw	a5,-20(s0)
    de08:	0017f793          	and	a5,a5,1
    de0c:	00078a63          	beqz	a5,de20 <snake_handle_interrupt+0x74>
    de10:	0000f7b7          	lui	a5,0xf
    de14:	00100713          	li	a4,1
    de18:	68e78223          	sb	a4,1668(a5) # f684 <left>
    de1c:	00c0006f          	j	de28 <snake_handle_interrupt+0x7c>
    de20:	0000f7b7          	lui	a5,0xf
    de24:	68078223          	sb	zero,1668(a5) # f684 <left>
    de28:	fec42783          	lw	a5,-20(s0)
    de2c:	2007f793          	and	a5,a5,512
    de30:	08078863          	beqz	a5,dec0 <snake_handle_interrupt+0x114>
    de34:	00100793          	li	a5,1
    de38:	0980006f          	j	ded0 <snake_handle_interrupt+0x124>
    de3c:	b39f20ef          	jal	974 <io_button>
    de40:	00050793          	mv	a5,a0
    de44:	08078263          	beqz	a5,dec8 <snake_handle_interrupt+0x11c>
    de48:	0000f7b7          	lui	a5,0xf
    de4c:	6847c783          	lbu	a5,1668(a5) # f684 <left>
    de50:	00078a63          	beqz	a5,de64 <snake_handle_interrupt+0xb8>
    de54:	0000f7b7          	lui	a5,0xf
    de58:	02078513          	add	a0,a5,32 # f020 <game>
    de5c:	f1dff0ef          	jal	dd78 <snake_turn_right>
    de60:	0680006f          	j	dec8 <snake_handle_interrupt+0x11c>
    de64:	0000f7b7          	lui	a5,0xf
    de68:	02078513          	add	a0,a5,32 # f020 <game>
    de6c:	ed9ff0ef          	jal	dd44 <snake_turn_left>
    de70:	0580006f          	j	dec8 <snake_handle_interrupt+0x11c>
    de74:	0000f7b7          	lui	a5,0xf
    de78:	8b07a783          	lw	a5,-1872(a5) # e8b0 <timer_delay>
    de7c:	02079663          	bnez	a5,dea8 <snake_handle_interrupt+0xfc>
    de80:	0000f7b7          	lui	a5,0xf
    de84:	02078513          	add	a0,a5,32 # f020 <game>
    de88:	c31ff0ef          	jal	dab8 <snake_move_forwards>
    de8c:	0000f7b7          	lui	a5,0xf
    de90:	02078513          	add	a0,a5,32 # f020 <game>
    de94:	284000ef          	jal	e118 <snake_render>
    de98:	0000f7b7          	lui	a5,0xf
    de9c:	00200713          	li	a4,2
    dea0:	8ae7a823          	sw	a4,-1872(a5) # e8b0 <timer_delay>
    dea4:	0280006f          	j	decc <snake_handle_interrupt+0x120>
    dea8:	0000f7b7          	lui	a5,0xf
    deac:	8b07a783          	lw	a5,-1872(a5) # e8b0 <timer_delay>
    deb0:	fff78713          	add	a4,a5,-1
    deb4:	0000f7b7          	lui	a5,0xf
    deb8:	8ae7a823          	sw	a4,-1872(a5) # e8b0 <timer_delay>
    debc:	0100006f          	j	decc <snake_handle_interrupt+0x120>
    dec0:	00000013          	nop
    dec4:	0080006f          	j	decc <snake_handle_interrupt+0x120>
    dec8:	00000013          	nop
    decc:	00000793          	li	a5,0
    ded0:	00078513          	mv	a0,a5
    ded4:	02c12083          	lw	ra,44(sp)
    ded8:	02812403          	lw	s0,40(sp)
    dedc:	03010113          	add	sp,sp,48
    dee0:	00008067          	ret

0000dee4 <snake_handler_reset>:
    dee4:	fe010113          	add	sp,sp,-32
    dee8:	00112e23          	sw	ra,28(sp)
    deec:	00812c23          	sw	s0,24(sp)
    def0:	02010413          	add	s0,sp,32
    def4:	0000f7b7          	lui	a5,0xf
    def8:	02078513          	add	a0,a5,32 # f020 <game>
    defc:	aa5ff0ef          	jal	d9a0 <snake_init_game>
    df00:	1f4000ef          	jal	e0f4 <snake_render_reset>
    df04:	af9f20ef          	jal	9fc <io_switch>
    df08:	fea42623          	sw	a0,-20(s0)
    df0c:	fec42783          	lw	a5,-20(s0)
    df10:	0017f793          	and	a5,a5,1
    df14:	00078a63          	beqz	a5,df28 <snake_handler_reset+0x44>
    df18:	0000f7b7          	lui	a5,0xf
    df1c:	00100713          	li	a4,1
    df20:	68e78223          	sb	a4,1668(a5) # f684 <left>
    df24:	00c0006f          	j	df30 <snake_handler_reset+0x4c>
    df28:	0000f7b7          	lui	a5,0xf
    df2c:	68078223          	sb	zero,1668(a5) # f684 <left>
    df30:	0000f7b7          	lui	a5,0xf
    df34:	6807a423          	sw	zero,1672(a5) # f688 <has_rendered>
    df38:	00000013          	nop
    df3c:	01c12083          	lw	ra,28(sp)
    df40:	01812403          	lw	s0,24(sp)
    df44:	02010113          	add	sp,sp,32
    df48:	00008067          	ret

0000df4c <snake_handler_render>:
    df4c:	ff010113          	add	sp,sp,-16
    df50:	00112623          	sw	ra,12(sp)
    df54:	00812423          	sw	s0,8(sp)
    df58:	01010413          	add	s0,sp,16
    df5c:	0000f7b7          	lui	a5,0xf
    df60:	6887a783          	lw	a5,1672(a5) # f688 <has_rendered>
    df64:	00079e63          	bnez	a5,df80 <snake_handler_render+0x34>
    df68:	0000f7b7          	lui	a5,0xf
    df6c:	02078513          	add	a0,a5,32 # f020 <game>
    df70:	1a8000ef          	jal	e118 <snake_render>
    df74:	0000f7b7          	lui	a5,0xf
    df78:	00100713          	li	a4,1
    df7c:	68e7a423          	sw	a4,1672(a5) # f688 <has_rendered>
    df80:	00000013          	nop
    df84:	00c12083          	lw	ra,12(sp)
    df88:	00812403          	lw	s0,8(sp)
    df8c:	01010113          	add	sp,sp,16
    df90:	00008067          	ret

0000df94 <render_tile>:
    df94:	fe010113          	add	sp,sp,-32
    df98:	00112e23          	sw	ra,28(sp)
    df9c:	00812c23          	sw	s0,24(sp)
    dfa0:	02010413          	add	s0,sp,32
    dfa4:	fea42623          	sw	a0,-20(s0)
    dfa8:	feb42423          	sw	a1,-24(s0)
    dfac:	fec42223          	sw	a2,-28(s0)
    dfb0:	fe442703          	lw	a4,-28(s0)
    dfb4:	00070793          	mv	a5,a4
    dfb8:	00279793          	sll	a5,a5,0x2
    dfbc:	00e787b3          	add	a5,a5,a4
    dfc0:	00279793          	sll	a5,a5,0x2
    dfc4:	00078713          	mv	a4,a5
    dfc8:	fe842783          	lw	a5,-24(s0)
    dfcc:	00f707b3          	add	a5,a4,a5
    dfd0:	fec42703          	lw	a4,-20(s0)
    dfd4:	00279793          	sll	a5,a5,0x2
    dfd8:	00f707b3          	add	a5,a4,a5
    dfdc:	0007a703          	lw	a4,0(a5)
    dfe0:	fff00793          	li	a5,-1
    dfe4:	02f71263          	bne	a4,a5,e008 <render_tile+0x74>
    dfe8:	fec42783          	lw	a5,-20(s0)
    dfec:	64c7a783          	lw	a5,1612(a5)
    dff0:	fe842703          	lw	a4,-24(s0)
    dff4:	04f71a63          	bne	a4,a5,e048 <render_tile+0xb4>
    dff8:	fec42783          	lw	a5,-20(s0)
    dffc:	6507a783          	lw	a5,1616(a5)
    e000:	fe442703          	lw	a4,-28(s0)
    e004:	04f71263          	bne	a4,a5,e048 <render_tile+0xb4>
    e008:	00800713          	li	a4,8
    e00c:	fe842783          	lw	a5,-24(s0)
    e010:	02f70733          	mul	a4,a4,a5
    e014:	05000793          	li	a5,80
    e018:	00f70533          	add	a0,a4,a5
    e01c:	00800713          	li	a4,8
    e020:	fe442783          	lw	a5,-28(s0)
    e024:	02f70733          	mul	a4,a4,a5
    e028:	02800793          	li	a5,40
    e02c:	00f707b3          	add	a5,a4,a5
    e030:	00800613          	li	a2,8
    e034:	00800693          	li	a3,8
    e038:	0ff00713          	li	a4,255
    e03c:	00078593          	mv	a1,a5
    e040:	cc0f30ef          	jal	1500 <render_rect_fill>
    e044:	0400006f          	j	e084 <render_tile+0xf0>
    e048:	00800713          	li	a4,8
    e04c:	fe842783          	lw	a5,-24(s0)
    e050:	02f70733          	mul	a4,a4,a5
    e054:	05000793          	li	a5,80
    e058:	00f70533          	add	a0,a4,a5
    e05c:	00800713          	li	a4,8
    e060:	fe442783          	lw	a5,-28(s0)
    e064:	02f70733          	mul	a4,a4,a5
    e068:	02800793          	li	a5,40
    e06c:	00f707b3          	add	a5,a4,a5
    e070:	00800613          	li	a2,8
    e074:	00800693          	li	a3,8
    e078:	06e00713          	li	a4,110
    e07c:	00078593          	mv	a1,a5
    e080:	c80f30ef          	jal	1500 <render_rect_fill>
    e084:	fec42783          	lw	a5,-20(s0)
    e088:	6447a783          	lw	a5,1604(a5)
    e08c:	fe842703          	lw	a4,-24(s0)
    e090:	04f71863          	bne	a4,a5,e0e0 <render_tile+0x14c>
    e094:	fec42783          	lw	a5,-20(s0)
    e098:	6487a783          	lw	a5,1608(a5)
    e09c:	fe442703          	lw	a4,-28(s0)
    e0a0:	04f71063          	bne	a4,a5,e0e0 <render_tile+0x14c>
    e0a4:	00800713          	li	a4,8
    e0a8:	fe842783          	lw	a5,-24(s0)
    e0ac:	02f70733          	mul	a4,a4,a5
    e0b0:	05000793          	li	a5,80
    e0b4:	00f70533          	add	a0,a4,a5
    e0b8:	00800713          	li	a4,8
    e0bc:	fe442783          	lw	a5,-28(s0)
    e0c0:	02f70733          	mul	a4,a4,a5
    e0c4:	02800793          	li	a5,40
    e0c8:	00f707b3          	add	a5,a4,a5
    e0cc:	00800613          	li	a2,8
    e0d0:	00800693          	li	a3,8
    e0d4:	0e000713          	li	a4,224
    e0d8:	00078593          	mv	a1,a5
    e0dc:	c24f30ef          	jal	1500 <render_rect_fill>
    e0e0:	00000013          	nop
    e0e4:	01c12083          	lw	ra,28(sp)
    e0e8:	01812403          	lw	s0,24(sp)
    e0ec:	02010113          	add	sp,sp,32
    e0f0:	00008067          	ret

0000e0f4 <snake_render_reset>:
    e0f4:	ff010113          	add	sp,sp,-16
    e0f8:	00812623          	sw	s0,12(sp)
    e0fc:	01010413          	add	s0,sp,16
    e100:	0000f7b7          	lui	a5,0xf
    e104:	6807a623          	sw	zero,1676(a5) # f68c <has_last_game>
    e108:	00000013          	nop
    e10c:	00c12403          	lw	s0,12(sp)
    e110:	01010113          	add	sp,sp,16
    e114:	00008067          	ret

0000e118 <snake_render>:
    e118:	fc010113          	add	sp,sp,-64
    e11c:	02112e23          	sw	ra,60(sp)
    e120:	02812c23          	sw	s0,56(sp)
    e124:	04010413          	add	s0,sp,64
    e128:	fca42623          	sw	a0,-52(s0)
    e12c:	0000f7b7          	lui	a5,0xf
    e130:	68c7a783          	lw	a5,1676(a5) # f68c <has_last_game>
    e134:	06079263          	bnez	a5,e198 <snake_render+0x80>
    e138:	00000793          	li	a5,0
    e13c:	00078513          	mv	a0,a5
    e140:	a5cf40ef          	jal	239c <render_background_solid>
    e144:	fe042623          	sw	zero,-20(s0)
    e148:	0400006f          	j	e188 <snake_render+0x70>
    e14c:	fe042423          	sw	zero,-24(s0)
    e150:	0200006f          	j	e170 <snake_render+0x58>
    e154:	fe842603          	lw	a2,-24(s0)
    e158:	fec42583          	lw	a1,-20(s0)
    e15c:	fcc42503          	lw	a0,-52(s0)
    e160:	e35ff0ef          	jal	df94 <render_tile>
    e164:	fe842783          	lw	a5,-24(s0)
    e168:	00178793          	add	a5,a5,1
    e16c:	fef42423          	sw	a5,-24(s0)
    e170:	fe842703          	lw	a4,-24(s0)
    e174:	01300793          	li	a5,19
    e178:	fce7dee3          	bge	a5,a4,e154 <snake_render+0x3c>
    e17c:	fec42783          	lw	a5,-20(s0)
    e180:	00178793          	add	a5,a5,1
    e184:	fef42623          	sw	a5,-20(s0)
    e188:	fec42703          	lw	a4,-20(s0)
    e18c:	01300793          	li	a5,19
    e190:	fae7dee3          	bge	a5,a4,e14c <snake_render+0x34>
    e194:	1240006f          	j	e2b8 <snake_render+0x1a0>
    e198:	fcc42783          	lw	a5,-52(s0)
    e19c:	64c7a703          	lw	a4,1612(a5)
    e1a0:	0000f7b7          	lui	a5,0xf
    e1a4:	69078793          	add	a5,a5,1680 # f690 <last_game>
    e1a8:	64c7a783          	lw	a5,1612(a5)
    e1ac:	00f71e63          	bne	a4,a5,e1c8 <snake_render+0xb0>
    e1b0:	fcc42783          	lw	a5,-52(s0)
    e1b4:	6507a703          	lw	a4,1616(a5)
    e1b8:	0000f7b7          	lui	a5,0xf
    e1bc:	69078793          	add	a5,a5,1680 # f690 <last_game>
    e1c0:	6507a783          	lw	a5,1616(a5)
    e1c4:	02f70263          	beq	a4,a5,e1e8 <snake_render+0xd0>
    e1c8:	fcc42783          	lw	a5,-52(s0)
    e1cc:	64c7a703          	lw	a4,1612(a5)
    e1d0:	fcc42783          	lw	a5,-52(s0)
    e1d4:	6507a783          	lw	a5,1616(a5)
    e1d8:	00078613          	mv	a2,a5
    e1dc:	00070593          	mv	a1,a4
    e1e0:	fcc42503          	lw	a0,-52(s0)
    e1e4:	db1ff0ef          	jal	df94 <render_tile>
    e1e8:	fcc42783          	lw	a5,-52(s0)
    e1ec:	6587a703          	lw	a4,1624(a5)
    e1f0:	0000f7b7          	lui	a5,0xf
    e1f4:	69078793          	add	a5,a5,1680 # f690 <last_game>
    e1f8:	6587a783          	lw	a5,1624(a5)
    e1fc:	00f71e63          	bne	a4,a5,e218 <snake_render+0x100>
    e200:	fcc42783          	lw	a5,-52(s0)
    e204:	6547a703          	lw	a4,1620(a5)
    e208:	0000f7b7          	lui	a5,0xf
    e20c:	69078793          	add	a5,a5,1680 # f690 <last_game>
    e210:	6547a783          	lw	a5,1620(a5)
    e214:	02f70663          	beq	a4,a5,e240 <snake_render+0x128>
    e218:	0000f7b7          	lui	a5,0xf
    e21c:	69078793          	add	a5,a5,1680 # f690 <last_game>
    e220:	6547a703          	lw	a4,1620(a5)
    e224:	0000f7b7          	lui	a5,0xf
    e228:	69078793          	add	a5,a5,1680 # f690 <last_game>
    e22c:	6587a783          	lw	a5,1624(a5)
    e230:	00078613          	mv	a2,a5
    e234:	00070593          	mv	a1,a4
    e238:	fcc42503          	lw	a0,-52(s0)
    e23c:	d59ff0ef          	jal	df94 <render_tile>
    e240:	fcc42783          	lw	a5,-52(s0)
    e244:	6447a703          	lw	a4,1604(a5)
    e248:	0000f7b7          	lui	a5,0xf
    e24c:	69078793          	add	a5,a5,1680 # f690 <last_game>
    e250:	6447a783          	lw	a5,1604(a5)
    e254:	00f71e63          	bne	a4,a5,e270 <snake_render+0x158>
    e258:	fcc42783          	lw	a5,-52(s0)
    e25c:	6487a703          	lw	a4,1608(a5)
    e260:	0000f7b7          	lui	a5,0xf
    e264:	69078793          	add	a5,a5,1680 # f690 <last_game>
    e268:	6487a783          	lw	a5,1608(a5)
    e26c:	04f70663          	beq	a4,a5,e2b8 <snake_render+0x1a0>
    e270:	fcc42783          	lw	a5,-52(s0)
    e274:	6447a703          	lw	a4,1604(a5)
    e278:	fcc42783          	lw	a5,-52(s0)
    e27c:	6487a783          	lw	a5,1608(a5)
    e280:	00078613          	mv	a2,a5
    e284:	00070593          	mv	a1,a4
    e288:	fcc42503          	lw	a0,-52(s0)
    e28c:	d09ff0ef          	jal	df94 <render_tile>
    e290:	0000f7b7          	lui	a5,0xf
    e294:	69078793          	add	a5,a5,1680 # f690 <last_game>
    e298:	6447a703          	lw	a4,1604(a5)
    e29c:	0000f7b7          	lui	a5,0xf
    e2a0:	69078793          	add	a5,a5,1680 # f690 <last_game>
    e2a4:	6487a783          	lw	a5,1608(a5)
    e2a8:	00078613          	mv	a2,a5
    e2ac:	00070593          	mv	a1,a4
    e2b0:	fcc42503          	lw	a0,-52(s0)
    e2b4:	ce1ff0ef          	jal	df94 <render_tile>
    e2b8:	0000f7b7          	lui	a5,0xf
    e2bc:	68c7a783          	lw	a5,1676(a5) # f68c <has_last_game>
    e2c0:	00078e63          	beqz	a5,e2dc <snake_render+0x1c4>
    e2c4:	0000f7b7          	lui	a5,0xf
    e2c8:	69078793          	add	a5,a5,1680 # f690 <last_game>
    e2cc:	6407a703          	lw	a4,1600(a5)
    e2d0:	fcc42783          	lw	a5,-52(s0)
    e2d4:	6407a783          	lw	a5,1600(a5)
    e2d8:	04f70863          	beq	a4,a5,e328 <snake_render+0x210>
    e2dc:	fc042c23          	sw	zero,-40(s0)
    e2e0:	0ff00593          	li	a1,255
    e2e4:	00000613          	li	a2,0
    e2e8:	05000693          	li	a3,80
    e2ec:	02800793          	li	a5,40
    e2f0:	ff678713          	add	a4,a5,-10
    e2f4:	fd840793          	add	a5,s0,-40
    e2f8:	00011537          	lui	a0,0x11
    e2fc:	e4c50513          	add	a0,a0,-436 # 10e4c <white_start_position+0xb4>
    e300:	c1df30ef          	jal	1f1c <render_text>
    e304:	fcc42783          	lw	a5,-52(s0)
    e308:	6407a503          	lw	a0,1600(a5)
    e30c:	0ff00593          	li	a1,255
    e310:	00000613          	li	a2,0
    e314:	05000693          	li	a3,80
    e318:	02800793          	li	a5,40
    e31c:	ff678713          	add	a4,a5,-10
    e320:	fd840793          	add	a5,s0,-40
    e324:	d9df30ef          	jal	20c0 <render_text_number>
    e328:	0000f7b7          	lui	a5,0xf
    e32c:	68c7a783          	lw	a5,1676(a5) # f68c <has_last_game>
    e330:	08078663          	beqz	a5,e3bc <snake_render+0x2a4>
    e334:	0000f7b7          	lui	a5,0xf
    e338:	69078793          	add	a5,a5,1680 # f690 <last_game>
    e33c:	6607a703          	lw	a4,1632(a5)
    e340:	fcc42783          	lw	a5,-52(s0)
    e344:	6607a783          	lw	a5,1632(a5)
    e348:	06f70a63          	beq	a4,a5,e3bc <snake_render+0x2a4>
    e34c:	fcc42783          	lw	a5,-52(s0)
    e350:	6607a703          	lw	a4,1632(a5)
    e354:	00100793          	li	a5,1
    e358:	06f71263          	bne	a4,a5,e3bc <snake_render+0x2a4>
    e35c:	000117b7          	lui	a5,0x11
    e360:	e5878793          	add	a5,a5,-424 # 10e58 <white_start_position+0xc0>
    e364:	fef42223          	sw	a5,-28(s0)
    e368:	fe042023          	sw	zero,-32(s0)
    e36c:	fe442503          	lw	a0,-28(s0)
    e370:	f15f30ef          	jal	2284 <render_text_width>
    e374:	fca42e23          	sw	a0,-36(s0)
    e378:	0ff00593          	li	a1,255
    e37c:	00000613          	li	a2,0
    e380:	00800713          	li	a4,8
    e384:	00070793          	mv	a5,a4
    e388:	00279793          	sll	a5,a5,0x2
    e38c:	00e787b3          	add	a5,a5,a4
    e390:	00279793          	sll	a5,a5,0x2
    e394:	00078713          	mv	a4,a5
    e398:	05000793          	li	a5,80
    e39c:	00f70733          	add	a4,a4,a5
    e3a0:	fdc42783          	lw	a5,-36(s0)
    e3a4:	40f706b3          	sub	a3,a4,a5
    e3a8:	02800793          	li	a5,40
    e3ac:	ff678713          	add	a4,a5,-10
    e3b0:	00000793          	li	a5,0
    e3b4:	fe442503          	lw	a0,-28(s0)
    e3b8:	b65f30ef          	jal	1f1c <render_text>
    e3bc:	fcc42783          	lw	a5,-52(s0)
    e3c0:	6607a703          	lw	a4,1632(a5)
    e3c4:	0000f7b7          	lui	a5,0xf
    e3c8:	69078793          	add	a5,a5,1680 # f690 <last_game>
    e3cc:	66e7a023          	sw	a4,1632(a5)
    e3d0:	fcc42783          	lw	a5,-52(s0)
    e3d4:	6547a703          	lw	a4,1620(a5)
    e3d8:	0000f7b7          	lui	a5,0xf
    e3dc:	69078793          	add	a5,a5,1680 # f690 <last_game>
    e3e0:	64e7aa23          	sw	a4,1620(a5)
    e3e4:	fcc42783          	lw	a5,-52(s0)
    e3e8:	6587a703          	lw	a4,1624(a5)
    e3ec:	0000f7b7          	lui	a5,0xf
    e3f0:	69078793          	add	a5,a5,1680 # f690 <last_game>
    e3f4:	64e7ac23          	sw	a4,1624(a5)
    e3f8:	fcc42783          	lw	a5,-52(s0)
    e3fc:	64c7a703          	lw	a4,1612(a5)
    e400:	0000f7b7          	lui	a5,0xf
    e404:	69078793          	add	a5,a5,1680 # f690 <last_game>
    e408:	64e7a623          	sw	a4,1612(a5)
    e40c:	fcc42783          	lw	a5,-52(s0)
    e410:	6507a703          	lw	a4,1616(a5)
    e414:	0000f7b7          	lui	a5,0xf
    e418:	69078793          	add	a5,a5,1680 # f690 <last_game>
    e41c:	64e7a823          	sw	a4,1616(a5)
    e420:	fcc42783          	lw	a5,-52(s0)
    e424:	65c7a703          	lw	a4,1628(a5)
    e428:	0000f7b7          	lui	a5,0xf
    e42c:	69078793          	add	a5,a5,1680 # f690 <last_game>
    e430:	64e7ae23          	sw	a4,1628(a5)
    e434:	fcc42783          	lw	a5,-52(s0)
    e438:	6447a703          	lw	a4,1604(a5)
    e43c:	0000f7b7          	lui	a5,0xf
    e440:	69078793          	add	a5,a5,1680 # f690 <last_game>
    e444:	64e7a223          	sw	a4,1604(a5)
    e448:	fcc42783          	lw	a5,-52(s0)
    e44c:	6487a703          	lw	a4,1608(a5)
    e450:	0000f7b7          	lui	a5,0xf
    e454:	69078793          	add	a5,a5,1680 # f690 <last_game>
    e458:	64e7a423          	sw	a4,1608(a5)
    e45c:	fcc42783          	lw	a5,-52(s0)
    e460:	6407a703          	lw	a4,1600(a5)
    e464:	0000f7b7          	lui	a5,0xf
    e468:	69078793          	add	a5,a5,1680 # f690 <last_game>
    e46c:	64e7a023          	sw	a4,1600(a5)
    e470:	0000f7b7          	lui	a5,0xf
    e474:	00100713          	li	a4,1
    e478:	68e7a623          	sw	a4,1676(a5) # f68c <has_last_game>
    e47c:	e84f20ef          	jal	b00 <io_vga_flush_pixels>
    e480:	00000013          	nop
    e484:	03c12083          	lw	ra,60(sp)
    e488:	03812403          	lw	s0,56(sp)
    e48c:	04010113          	add	sp,sp,64
    e490:	00008067          	ret

0000e494 <bt_handle_interrupt>:
    e494:	fd010113          	add	sp,sp,-48
    e498:	02112623          	sw	ra,44(sp)
    e49c:	02812423          	sw	s0,40(sp)
    e4a0:	03010413          	add	s0,sp,48
    e4a4:	fca42e23          	sw	a0,-36(s0)
    e4a8:	fdc42703          	lw	a4,-36(s0)
    e4ac:	01100793          	li	a5,17
    e4b0:	04f71463          	bne	a4,a5,e4f8 <bt_handle_interrupt+0x64>
    e4b4:	000027b7          	lui	a5,0x2
    e4b8:	71078513          	add	a0,a5,1808 # 2710 <shuffle+0xe8>
    e4bc:	f41f30ef          	jal	23fc <delay>
    e4c0:	d3cf20ef          	jal	9fc <io_switch>
    e4c4:	fea42623          	sw	a0,-20(s0)
    e4c8:	fec42783          	lw	a5,-20(s0)
    e4cc:	0ff7f713          	zext.b	a4,a5
    e4d0:	000107b7          	lui	a5,0x10
    e4d4:	cee78a23          	sb	a4,-780(a5) # fcf4 <game>
    e4d8:	000107b7          	lui	a5,0x10
    e4dc:	cf478513          	add	a0,a5,-780 # fcf4 <game>
    e4e0:	298000ef          	jal	e778 <bt_render>
    e4e4:	fec42783          	lw	a5,-20(s0)
    e4e8:	2007f793          	and	a5,a5,512
    e4ec:	00078a63          	beqz	a5,e500 <bt_handle_interrupt+0x6c>
    e4f0:	00100793          	li	a5,1
    e4f4:	0140006f          	j	e508 <bt_handle_interrupt+0x74>
    e4f8:	00000013          	nop
    e4fc:	0080006f          	j	e504 <bt_handle_interrupt+0x70>
    e500:	00000013          	nop
    e504:	00000793          	li	a5,0
    e508:	00078513          	mv	a0,a5
    e50c:	02c12083          	lw	ra,44(sp)
    e510:	02812403          	lw	s0,40(sp)
    e514:	03010113          	add	sp,sp,48
    e518:	00008067          	ret

0000e51c <bt_handler_reset>:
    e51c:	ff010113          	add	sp,sp,-16
    e520:	00112623          	sw	ra,12(sp)
    e524:	00812423          	sw	s0,8(sp)
    e528:	01010413          	add	s0,sp,16
    e52c:	000107b7          	lui	a5,0x10
    e530:	ce078a23          	sb	zero,-780(a5) # fcf4 <game>
    e534:	000107b7          	lui	a5,0x10
    e538:	cf478793          	add	a5,a5,-780 # fcf4 <game>
    e53c:	000780a3          	sb	zero,1(a5)
    e540:	000107b7          	lui	a5,0x10
    e544:	cf478793          	add	a5,a5,-780 # fcf4 <game>
    e548:	00078123          	sb	zero,2(a5)
    e54c:	000107b7          	lui	a5,0x10
    e550:	ce078ba3          	sb	zero,-777(a5) # fcf7 <has_rendered>
    e554:	200000ef          	jal	e754 <bt_render_reset>
    e558:	00000013          	nop
    e55c:	00c12083          	lw	ra,12(sp)
    e560:	00812403          	lw	s0,8(sp)
    e564:	01010113          	add	sp,sp,16
    e568:	00008067          	ret

0000e56c <bt_handler_render>:
    e56c:	ff010113          	add	sp,sp,-16
    e570:	00112623          	sw	ra,12(sp)
    e574:	00812423          	sw	s0,8(sp)
    e578:	01010413          	add	s0,sp,16
    e57c:	000107b7          	lui	a5,0x10
    e580:	cf77c783          	lbu	a5,-777(a5) # fcf7 <has_rendered>
    e584:	0ff7f793          	zext.b	a5,a5
    e588:	0017c793          	xor	a5,a5,1
    e58c:	0ff7f793          	zext.b	a5,a5
    e590:	00078e63          	beqz	a5,e5ac <bt_handler_render+0x40>
    e594:	000107b7          	lui	a5,0x10
    e598:	cf478513          	add	a0,a5,-780 # fcf4 <game>
    e59c:	1dc000ef          	jal	e778 <bt_render>
    e5a0:	000107b7          	lui	a5,0x10
    e5a4:	00100713          	li	a4,1
    e5a8:	cee78ba3          	sb	a4,-777(a5) # fcf7 <has_rendered>
    e5ac:	00000013          	nop
    e5b0:	00c12083          	lw	ra,12(sp)
    e5b4:	00812403          	lw	s0,8(sp)
    e5b8:	01010113          	add	sp,sp,16
    e5bc:	00008067          	ret

0000e5c0 <render_value>:
    e5c0:	fa010113          	add	sp,sp,-96
    e5c4:	04112e23          	sw	ra,92(sp)
    e5c8:	04812c23          	sw	s0,88(sp)
    e5cc:	06010413          	add	s0,sp,96
    e5d0:	faa42623          	sw	a0,-84(s0)
    e5d4:	000107b7          	lui	a5,0x10
    e5d8:	cf87c783          	lbu	a5,-776(a5) # fcf8 <has_last_board>
    e5dc:	06078263          	beqz	a5,e640 <render_value+0x80>
    e5e0:	000107b7          	lui	a5,0x10
    e5e4:	cfc7c783          	lbu	a5,-772(a5) # fcfc <last_board>
    e5e8:	00078713          	mv	a4,a5
    e5ec:	fb840793          	add	a5,s0,-72
    e5f0:	00078593          	mv	a1,a5
    e5f4:	00070513          	mv	a0,a4
    e5f8:	f51f30ef          	jal	2548 <num_to_str>
    e5fc:	fb840793          	add	a5,s0,-72
    e600:	00078513          	mv	a0,a5
    e604:	c81f30ef          	jal	2284 <render_text_width>
    e608:	fea42423          	sw	a0,-24(s0)
    e60c:	02500593          	li	a1,37
    e610:	14000713          	li	a4,320
    e614:	fe842783          	lw	a5,-24(s0)
    e618:	40f707b3          	sub	a5,a4,a5
    e61c:	01f7d713          	srl	a4,a5,0x1f
    e620:	00f707b3          	add	a5,a4,a5
    e624:	4017d793          	sra	a5,a5,0x1
    e628:	00078613          	mv	a2,a5
    e62c:	fb840793          	add	a5,s0,-72
    e630:	00000713          	li	a4,0
    e634:	0a000693          	li	a3,160
    e638:	00078513          	mv	a0,a5
    e63c:	b91f30ef          	jal	21cc <render_text_clear>
    e640:	fac42783          	lw	a5,-84(s0)
    e644:	0007c783          	lbu	a5,0(a5)
    e648:	00078713          	mv	a4,a5
    e64c:	fcc40793          	add	a5,s0,-52
    e650:	00078593          	mv	a1,a5
    e654:	00070513          	mv	a0,a4
    e658:	ef1f30ef          	jal	2548 <num_to_str>
    e65c:	fcc40793          	add	a5,s0,-52
    e660:	00078513          	mv	a0,a5
    e664:	c21f30ef          	jal	2284 <render_text_width>
    e668:	fea42223          	sw	a0,-28(s0)
    e66c:	0ff00593          	li	a1,255
    e670:	02500613          	li	a2,37
    e674:	14000713          	li	a4,320
    e678:	fe442783          	lw	a5,-28(s0)
    e67c:	40f707b3          	sub	a5,a4,a5
    e680:	01f7d713          	srl	a4,a5,0x1f
    e684:	00f707b3          	add	a5,a4,a5
    e688:	4017d793          	sra	a5,a5,0x1
    e68c:	00078693          	mv	a3,a5
    e690:	fcc40513          	add	a0,s0,-52
    e694:	00000793          	li	a5,0
    e698:	0a000713          	li	a4,160
    e69c:	881f30ef          	jal	1f1c <render_text>
    e6a0:	fe042623          	sw	zero,-20(s0)
    e6a4:	08c0006f          	j	e730 <render_value+0x170>
    e6a8:	fac42783          	lw	a5,-84(s0)
    e6ac:	0007c783          	lbu	a5,0(a5)
    e6b0:	00078693          	mv	a3,a5
    e6b4:	00700713          	li	a4,7
    e6b8:	fec42783          	lw	a5,-20(s0)
    e6bc:	40f707b3          	sub	a5,a4,a5
    e6c0:	40f6d7b3          	sra	a5,a3,a5
    e6c4:	0017f793          	and	a5,a5,1
    e6c8:	00f037b3          	snez	a5,a5
    e6cc:	fef401a3          	sb	a5,-29(s0)
    e6d0:	0e600793          	li	a5,230
    e6d4:	14000713          	li	a4,320
    e6d8:	40f707b3          	sub	a5,a4,a5
    e6dc:	01f7d713          	srl	a4,a5,0x1f
    e6e0:	00f707b3          	add	a5,a4,a5
    e6e4:	4017d793          	sra	a5,a5,0x1
    e6e8:	00078693          	mv	a3,a5
    e6ec:	00a00793          	li	a5,10
    e6f0:	01478713          	add	a4,a5,20
    e6f4:	fec42783          	lw	a5,-20(s0)
    e6f8:	02f707b3          	mul	a5,a4,a5
    e6fc:	00f68733          	add	a4,a3,a5
    e700:	fe344783          	lbu	a5,-29(s0)
    e704:	00078663          	beqz	a5,e710 <render_value+0x150>
    e708:	01400793          	li	a5,20
    e70c:	0080006f          	j	e714 <render_value+0x154>
    e710:	0a000793          	li	a5,160
    e714:	00078613          	mv	a2,a5
    e718:	0b400593          	li	a1,180
    e71c:	00070513          	mv	a0,a4
    e720:	e8df20ef          	jal	15ac <render_20x20_circle>
    e724:	fec42783          	lw	a5,-20(s0)
    e728:	00178793          	add	a5,a5,1
    e72c:	fef42623          	sw	a5,-20(s0)
    e730:	fec42703          	lw	a4,-20(s0)
    e734:	00700793          	li	a5,7
    e738:	f6e7d8e3          	bge	a5,a4,e6a8 <render_value+0xe8>
    e73c:	00000013          	nop
    e740:	00000013          	nop
    e744:	05c12083          	lw	ra,92(sp)
    e748:	05812403          	lw	s0,88(sp)
    e74c:	06010113          	add	sp,sp,96
    e750:	00008067          	ret

0000e754 <bt_render_reset>:
    e754:	ff010113          	add	sp,sp,-16
    e758:	00812623          	sw	s0,12(sp)
    e75c:	01010413          	add	s0,sp,16
    e760:	000107b7          	lui	a5,0x10
    e764:	ce078c23          	sb	zero,-776(a5) # fcf8 <has_last_board>
    e768:	00000013          	nop
    e76c:	00c12403          	lw	s0,12(sp)
    e770:	01010113          	add	sp,sp,16
    e774:	00008067          	ret

0000e778 <bt_render>:
    e778:	fe010113          	add	sp,sp,-32
    e77c:	00112e23          	sw	ra,28(sp)
    e780:	00812c23          	sw	s0,24(sp)
    e784:	02010413          	add	s0,sp,32
    e788:	fea42623          	sw	a0,-20(s0)
    e78c:	000107b7          	lui	a5,0x10
    e790:	cf87c783          	lbu	a5,-776(a5) # fcf8 <has_last_board>
    e794:	0017c793          	xor	a5,a5,1
    e798:	0ff7f793          	zext.b	a5,a5
    e79c:	00078863          	beqz	a5,e7ac <bt_render+0x34>
    e7a0:	02500793          	li	a5,37
    e7a4:	00078513          	mv	a0,a5
    e7a8:	bf5f30ef          	jal	239c <render_background_solid>
    e7ac:	fec42503          	lw	a0,-20(s0)
    e7b0:	e11ff0ef          	jal	e5c0 <render_value>
    e7b4:	000107b7          	lui	a5,0x10
    e7b8:	00100713          	li	a4,1
    e7bc:	cee78c23          	sb	a4,-776(a5) # fcf8 <has_last_board>
    e7c0:	00010737          	lui	a4,0x10
    e7c4:	fec42783          	lw	a5,-20(s0)
    e7c8:	0007c683          	lbu	a3,0(a5)
    e7cc:	ced70e23          	sb	a3,-772(a4) # fcfc <last_board>
    e7d0:	cfc70693          	add	a3,a4,-772
    e7d4:	0017c603          	lbu	a2,1(a5)
    e7d8:	00c680a3          	sb	a2,1(a3)
    e7dc:	cfc70713          	add	a4,a4,-772
    e7e0:	0027c783          	lbu	a5,2(a5)
    e7e4:	00f70123          	sb	a5,2(a4)
    e7e8:	b18f20ef          	jal	b00 <io_vga_flush_pixels>
    e7ec:	00000013          	nop
    e7f0:	01c12083          	lw	ra,28(sp)
    e7f4:	01812403          	lw	s0,24(sp)
    e7f8:	02010113          	add	sp,sp,32
    e7fc:	00008067          	ret

Disassembly of section .data:

0000e800 <welcome_msg>:
    e800:	3d3d                	.insn	2, 0x3d3d
    e802:	3d3d                	.insn	2, 0x3d3d
    e804:	3d3d                	.insn	2, 0x3d3d
    e806:	3d3d                	.insn	2, 0x3d3d
    e808:	3d3d                	.insn	2, 0x3d3d
    e80a:	3d3d                	.insn	2, 0x3d3d
    e80c:	3d3d                	.insn	2, 0x3d3d
    e80e:	3d3d                	.insn	2, 0x3d3d
    e810:	3d3d                	.insn	2, 0x3d3d
    e812:	3d3d                	.insn	2, 0x3d3d
    e814:	3d3d                	.insn	2, 0x3d3d
    e816:	3d3d                	.insn	2, 0x3d3d
    e818:	3d3d                	.insn	2, 0x3d3d
    e81a:	3d3d                	.insn	2, 0x3d3d
    e81c:	3d3d                	.insn	2, 0x3d3d
    e81e:	3d3d                	.insn	2, 0x3d3d
    e820:	3d3d                	.insn	2, 0x3d3d
    e822:	3d3d                	.insn	2, 0x3d3d
    e824:	3d3d                	.insn	2, 0x3d3d
    e826:	3d3d                	.insn	2, 0x3d3d
    e828:	3d3d                	.insn	2, 0x3d3d
    e82a:	3d3d                	.insn	2, 0x3d3d
    e82c:	3d3d                	.insn	2, 0x3d3d
    e82e:	3d3d                	.insn	2, 0x3d3d
    e830:	3d0a                	.insn	2, 0x3d0a
    e832:	3d3d                	.insn	2, 0x3d3d
    e834:	3d3d                	.insn	2, 0x3d3d
    e836:	5220                	.insn	2, 0x5220
    e838:	5349                	.insn	2, 0x5349
    e83a:	20562d43          	.insn	4, 0x20562d43
    e83e:	6f42                	.insn	2, 0x6f42
    e840:	552d746f          	jal	s0,e5d92 <total_width+0xd4e4e>
    e844:	2070                	.insn	2, 0x2070
    e846:	7250                	.insn	2, 0x7250
    e848:	7365636f          	jal	t1,64f7e <total_width+0x5403a>
    e84c:	6f4e2073          	csrs	0x6f4,t3
    e850:	6f432077          	.insn	4, 0x6f432077
    e854:	706d                	.insn	2, 0x706d
    e856:	656c                	.insn	2, 0x656c
    e858:	6574                	.insn	2, 0x6574
    e85a:	3d20                	.insn	2, 0x3d20
    e85c:	3d3d                	.insn	2, 0x3d3d
    e85e:	3d3d                	.insn	2, 0x3d3d
    e860:	0a3d                	.insn	2, 0x0a3d
    e862:	3d3d                	.insn	2, 0x3d3d
    e864:	3d3d                	.insn	2, 0x3d3d
    e866:	3d3d                	.insn	2, 0x3d3d
    e868:	3d3d                	.insn	2, 0x3d3d
    e86a:	3d3d                	.insn	2, 0x3d3d
    e86c:	3d3d                	.insn	2, 0x3d3d
    e86e:	3d3d                	.insn	2, 0x3d3d
    e870:	3d3d                	.insn	2, 0x3d3d
    e872:	3d3d                	.insn	2, 0x3d3d
    e874:	3d3d                	.insn	2, 0x3d3d
    e876:	3d3d                	.insn	2, 0x3d3d
    e878:	3d3d                	.insn	2, 0x3d3d
    e87a:	3d3d                	.insn	2, 0x3d3d
    e87c:	3d3d                	.insn	2, 0x3d3d
    e87e:	3d3d                	.insn	2, 0x3d3d
    e880:	3d3d                	.insn	2, 0x3d3d
    e882:	3d3d                	.insn	2, 0x3d3d
    e884:	3d3d                	.insn	2, 0x3d3d
    e886:	3d3d                	.insn	2, 0x3d3d
    e888:	3d3d                	.insn	2, 0x3d3d
    e88a:	3d3d                	.insn	2, 0x3d3d
    e88c:	3d3d                	.insn	2, 0x3d3d
    e88e:	3d3d                	.insn	2, 0x3d3d
    e890:	3d3d                	.insn	2, 0x3d3d
    e892:	000a                	.insn	2, 0x000a

0000e894 <chess_promotions>:
    e894:	0001                	.insn	2, 0x0001
    e896:	0000                	.insn	2, 0x
    e898:	0002                	.insn	2, 0x0002
    e89a:	0000                	.insn	2, 0x
    e89c:	00000003          	lb	zero,0(zero) # 0 <_isr_handler>
    e8a0:	0004                	.insn	2, 0x0004
	...

0000e8a4 <main_state>:
    e8a4:	ffff                	.insn	2, 0xffff
    e8a6:	ffff                	.insn	2, 0xffff

0000e8a8 <clear_str.0>:
    e8a8:	0860                	.insn	2, 0x0860
    e8aa:	0001                	.insn	2, 0x0001

0000e8ac <select_mode_scene>:
    e8ac:	0001                	.insn	2, 0x0001
	...

0000e8b0 <timer_delay>:
    e8b0:	0002                	.insn	2, 0x0002
	...

Disassembly of section .rodata:

0000fd00 <LAYERS-0xe0>:
    fd00:	03fc                	.insn	2, 0x03fc
    fd02:	0000                	.insn	2, 0x
    fd04:	0448                	.insn	2, 0x0448
    fd06:	0000                	.insn	2, 0x
    fd08:	046c                	.insn	2, 0x046c
    fd0a:	0000                	.insn	2, 0x
    fd0c:	0490                	.insn	2, 0x0490
    fd0e:	0000                	.insn	2, 0x
    fd10:	04b4                	.insn	2, 0x04b4
    fd12:	0000                	.insn	2, 0x
    fd14:	05a0                	.insn	2, 0x05a0
    fd16:	0000                	.insn	2, 0x
    fd18:	04d8                	.insn	2, 0x04d8
    fd1a:	0000                	.insn	2, 0x
    fd1c:	04fc                	.insn	2, 0x04fc
    fd1e:	0000                	.insn	2, 0x
    fd20:	051c                	.insn	2, 0x051c
    fd22:	0000                	.insn	2, 0x
    fd24:	0540                	.insn	2, 0x0540
    fd26:	0000                	.insn	2, 0x
    fd28:	5b0a                	.insn	2, 0x5b0a
    fd2a:	5845                	.insn	2, 0x5845
    fd2c:	54504543          	.insn	4, 0x54504543
    fd30:	4f49                	.insn	2, 0x4f49
    fd32:	5d4e                	.insn	2, 0x5d4e
    fd34:	4920                	.insn	2, 0x4920
    fd36:	736e                	.insn	2, 0x736e
    fd38:	7274                	.insn	2, 0x7274
    fd3a:	6375                	.insn	2, 0x6375
    fd3c:	6974                	.insn	2, 0x6974
    fd3e:	61206e6f          	jal	t3,16350 <total_width+0x540c>
    fd42:	6464                	.insn	2, 0x6464
    fd44:	6572                	.insn	2, 0x6572
    fd46:	6d207373          	csrrc	t1,0x6d2,0
    fd4a:	7369                	.insn	2, 0x7369
    fd4c:	6c61                	.insn	2, 0x6c61
    fd4e:	6769                	.insn	2, 0x6769
    fd50:	6d6e                	.insn	2, 0x6d6e
    fd52:	6e65                	.insn	2, 0x6e65
    fd54:	2e74                	.insn	2, 0x2e74
    fd56:	0020                	.insn	2, 0x0020
    fd58:	5b0a                	.insn	2, 0x5b0a
    fd5a:	5845                	.insn	2, 0x5845
    fd5c:	54504543          	.insn	4, 0x54504543
    fd60:	4f49                	.insn	2, 0x4f49
    fd62:	5d4e                	.insn	2, 0x5d4e
    fd64:	4920                	.insn	2, 0x4920
    fd66:	6c6c                	.insn	2, 0x6c6c
    fd68:	6765                	.insn	2, 0x6765
    fd6a:	6c61                	.insn	2, 0x6c61
    fd6c:	6920                	.insn	2, 0x6920
    fd6e:	736e                	.insn	2, 0x736e
    fd70:	7274                	.insn	2, 0x7274
    fd72:	6375                	.insn	2, 0x6375
    fd74:	6974                	.insn	2, 0x6974
    fd76:	202e6e6f          	jal	t3,f5f78 <total_width+0xe5034>
    fd7a:	0000                	.insn	2, 0x
    fd7c:	5b0a                	.insn	2, 0x5b0a
    fd7e:	5845                	.insn	2, 0x5845
    fd80:	54504543          	.insn	4, 0x54504543
    fd84:	4f49                	.insn	2, 0x4f49
    fd86:	5d4e                	.insn	2, 0x5d4e
    fd88:	5520                	.insn	2, 0x5520
    fd8a:	6b6e                	.insn	2, 0x6b6e
    fd8c:	6f6e                	.insn	2, 0x6f6e
    fd8e:	65206e77          	.insn	4, 0x65206e77
    fd92:	7272                	.insn	2, 0x7272
    fd94:	202e726f          	jal	tp,f6f96 <total_width+0xe6052>
    fd98:	0000                	.insn	2, 0x
    fd9a:	0000                	.insn	2, 0x
    fd9c:	7845                	.insn	2, 0x7845
    fd9e:	74706563          	bltu	zero,t2,104e8 <glyphs_width+0xa0>
    fda2:	6f69                	.insn	2, 0x6f69
    fda4:	206e                	.insn	2, 0x206e
    fda6:	6441                	.insn	2, 0x6441
    fda8:	7264                	.insn	2, 0x7264
    fdaa:	7365                	.insn	2, 0x7365
    fdac:	00203a73          	csrrc	s4,frm,zero
    fdb0:	000a                	.insn	2, 0x000a
    fdb2:	0000                	.insn	2, 0x
    fdb4:	0764                	.insn	2, 0x0764
    fdb6:	0000                	.insn	2, 0x
    fdb8:	076c                	.insn	2, 0x076c
    fdba:	0000                	.insn	2, 0x
    fdbc:	0774                	.insn	2, 0x0774
    fdbe:	0000                	.insn	2, 0x
    fdc0:	077c                	.insn	2, 0x077c
    fdc2:	0000                	.insn	2, 0x
    fdc4:	0784                	.insn	2, 0x0784
    fdc6:	0000                	.insn	2, 0x
    fdc8:	0734                	.insn	2, 0x0734
    fdca:	0000                	.insn	2, 0x
    fdcc:	078c                	.insn	2, 0x078c
    fdce:	0000                	.insn	2, 0x
    fdd0:	079c                	.insn	2, 0x079c
    fdd2:	0000                	.insn	2, 0x
    fdd4:	0794                	.insn	2, 0x0794
    fdd6:	0000                	.insn	2, 0x
    fdd8:	07a4                	.insn	2, 0x07a4
    fdda:	0000                	.insn	2, 0x
    fddc:	0000                	.insn	2, 0x
	...

0000fde0 <LAYERS>:
    fde0:	0001                	.insn	2, 0x0001
    fde2:	0000                	.insn	2, 0x
    fde4:	0002                	.insn	2, 0x0002
    fde6:	0000                	.insn	2, 0x
    fde8:	0002                	.insn	2, 0x0002
    fdea:	0000                	.insn	2, 0x
    fdec:	0002                	.insn	2, 0x0002
    fdee:	0000                	.insn	2, 0x
    fdf0:	0002                	.insn	2, 0x0002
    fdf2:	0000                	.insn	2, 0x
    fdf4:	0002                	.insn	2, 0x0002
    fdf6:	0000                	.insn	2, 0x
    fdf8:	0001                	.insn	2, 0x0001
    fdfa:	0000                	.insn	2, 0x
    fdfc:	00000003          	lb	zero,0(zero) # 0 <_isr_handler>
    fe00:	0001                	.insn	2, 0x0001
    fe02:	0000                	.insn	2, 0x
    fe04:	0001                	.insn	2, 0x0001
    fe06:	0000                	.insn	2, 0x
    fe08:	0001                	.insn	2, 0x0001
    fe0a:	0000                	.insn	2, 0x
    fe0c:	0002                	.insn	2, 0x0002
    fe0e:	0000                	.insn	2, 0x
    fe10:	0001                	.insn	2, 0x0001
	...

0000fe14 <SPRITE_WIDTHS>:
    fe14:	0010                	.insn	2, 0x0010
    fe16:	0000                	.insn	2, 0x
    fe18:	0010                	.insn	2, 0x0010
    fe1a:	0000                	.insn	2, 0x
    fe1c:	0010                	.insn	2, 0x0010
    fe1e:	0000                	.insn	2, 0x
    fe20:	0010                	.insn	2, 0x0010
    fe22:	0000                	.insn	2, 0x
    fe24:	0010                	.insn	2, 0x0010
    fe26:	0000                	.insn	2, 0x
    fe28:	0010                	.insn	2, 0x0010
    fe2a:	0000                	.insn	2, 0x
    fe2c:	0008                	.insn	2, 0x0008
    fe2e:	0000                	.insn	2, 0x
    fe30:	0008                	.insn	2, 0x0008
    fe32:	0000                	.insn	2, 0x
    fe34:	0010                	.insn	2, 0x0010
    fe36:	0000                	.insn	2, 0x
    fe38:	0010                	.insn	2, 0x0010
    fe3a:	0000                	.insn	2, 0x
    fe3c:	0010                	.insn	2, 0x0010
    fe3e:	0000                	.insn	2, 0x
    fe40:	0010                	.insn	2, 0x0010
    fe42:	0000                	.insn	2, 0x
    fe44:	0010                	.insn	2, 0x0010
	...

0000fe48 <SPRITE_HEIGHTS>:
    fe48:	0010                	.insn	2, 0x0010
    fe4a:	0000                	.insn	2, 0x
    fe4c:	0010                	.insn	2, 0x0010
    fe4e:	0000                	.insn	2, 0x
    fe50:	0010                	.insn	2, 0x0010
    fe52:	0000                	.insn	2, 0x
    fe54:	0010                	.insn	2, 0x0010
    fe56:	0000                	.insn	2, 0x
    fe58:	0010                	.insn	2, 0x0010
    fe5a:	0000                	.insn	2, 0x
    fe5c:	0010                	.insn	2, 0x0010
    fe5e:	0000                	.insn	2, 0x
    fe60:	0008                	.insn	2, 0x0008
    fe62:	0000                	.insn	2, 0x
    fe64:	0008                	.insn	2, 0x0008
    fe66:	0000                	.insn	2, 0x
    fe68:	0010                	.insn	2, 0x0010
    fe6a:	0000                	.insn	2, 0x
    fe6c:	0010                	.insn	2, 0x0010
    fe6e:	0000                	.insn	2, 0x
    fe70:	0010                	.insn	2, 0x0010
    fe72:	0000                	.insn	2, 0x
    fe74:	0010                	.insn	2, 0x0010
    fe76:	0000                	.insn	2, 0x
    fe78:	0010                	.insn	2, 0x0010
	...

0000fe7c <SPRITE_CARD_SPADES>:
    fe7c:	0180                	.insn	2, 0x0180
    fe7e:	03c0                	.insn	2, 0x03c0
    fe80:	07e0                	.insn	2, 0x07e0
    fe82:	0ff0                	.insn	2, 0x0ff0
    fe84:	1ff8                	.insn	2, 0x1ff8
    fe86:	1ff8                	.insn	2, 0x1ff8
    fe88:	3ffc                	.insn	2, 0x3ffc
    fe8a:	3ffc                	.insn	2, 0x3ffc
    fe8c:	7ffe                	.insn	2, 0x7ffe
    fe8e:	7ffe                	.insn	2, 0x7ffe
    fe90:	7ffe                	.insn	2, 0x7ffe
    fe92:	7ffe                	.insn	2, 0x7ffe
    fe94:	399c                	.insn	2, 0x399c
    fe96:	0180                	.insn	2, 0x0180
    fe98:	03c0                	.insn	2, 0x03c0
    fe9a:	07e0                	.insn	2, 0x07e0

0000fe9c <SPRITE_CHESS_PAWN>:
    fe9c:	0000                	.insn	2, 0x
    fe9e:	03c0                	.insn	2, 0x03c0
    fea0:	03c0                	.insn	2, 0x03c0
    fea2:	03c0                	.insn	2, 0x03c0
    fea4:	03c0                	.insn	2, 0x03c0
    fea6:	0000                	.insn	2, 0x
    fea8:	0000                	.insn	2, 0x
    feaa:	0000                	.insn	2, 0x
    feac:	0180                	.insn	2, 0x0180
    feae:	0180                	.insn	2, 0x0180
    feb0:	03c0                	.insn	2, 0x03c0
    feb2:	03c0                	.insn	2, 0x03c0
    feb4:	03c0                	.insn	2, 0x03c0
    feb6:	03c0                	.insn	2, 0x03c0
    feb8:	0ff0                	.insn	2, 0x0ff0
    feba:	0000                	.insn	2, 0x
    febc:	03c0                	.insn	2, 0x03c0
    febe:	0420                	.insn	2, 0x0420
    fec0:	0420                	.insn	2, 0x0420
    fec2:	0420                	.insn	2, 0x0420
    fec4:	0420                	.insn	2, 0x0420
    fec6:	03c0                	.insn	2, 0x03c0
    fec8:	0000                	.insn	2, 0x
    feca:	0180                	.insn	2, 0x0180
    fecc:	0240                	.insn	2, 0x0240
    fece:	0240                	.insn	2, 0x0240
    fed0:	0420                	.insn	2, 0x0420
    fed2:	0420                	.insn	2, 0x0420
    fed4:	0420                	.insn	2, 0x0420
    fed6:	1c38                	.insn	2, 0x1c38
    fed8:	1008                	.insn	2, 0x1008
    feda:	1ff8                	.insn	2, 0x1ff8

0000fedc <SPRITE_CHESS_KNIGHT>:
    fedc:	0000                	.insn	2, 0x
    fede:	0040                	.insn	2, 0x0040
    fee0:	0040                	.insn	2, 0x0040
    fee2:	03e0                	.insn	2, 0x03e0
    fee4:	02c0                	.insn	2, 0x02c0
    fee6:	1ee0                	.insn	2, 0x1ee0
    fee8:	3fc0                	.insn	2, 0x3fc0
    feea:	3fe0                	.insn	2, 0x3fe0
    feec:	01c0                	.insn	2, 0x01c0
    feee:	03c0                	.insn	2, 0x03c0
    fef0:	03c0                	.insn	2, 0x03c0
    fef2:	03c0                	.insn	2, 0x03c0
    fef4:	03c0                	.insn	2, 0x03c0
    fef6:	0ff0                	.insn	2, 0x0ff0
    fef8:	1ff8                	.insn	2, 0x1ff8
    fefa:	0000                	.insn	2, 0x
    fefc:	00e0                	.insn	2, 0x00e0
    fefe:	00a0                	.insn	2, 0x00a0
    ff00:	07b0                	.insn	2, 0x07b0
    ff02:	0410                	.insn	2, 0x0410
    ff04:	3d30                	.insn	2, 0x3d30
    ff06:	6110                	.insn	2, 0x6110
    ff08:	4030                	.insn	2, 0x4030
    ff0a:	4010                	.insn	2, 0x4010
    ff0c:	7e30                	.insn	2, 0x7e30
    ff0e:	0420                	.insn	2, 0x0420
    ff10:	0420                	.insn	2, 0x0420
    ff12:	0420                	.insn	2, 0x0420
    ff14:	1c38                	.insn	2, 0x1c38
    ff16:	300c                	.insn	2, 0x300c
    ff18:	2004                	.insn	2, 0x2004
    ff1a:	3ffc                	.insn	2, 0x3ffc

0000ff1c <SPRITE_CHESS_QUEEN>:
    ff1c:	0000                	.insn	2, 0x
    ff1e:	0000                	.insn	2, 0x
    ff20:	1188                	.insn	2, 0x1188
    ff22:	1bd8                	.insn	2, 0x1bd8
    ff24:	0ff0                	.insn	2, 0x0ff0
    ff26:	07e0                	.insn	2, 0x07e0
    ff28:	03c0                	.insn	2, 0x03c0
    ff2a:	0180                	.insn	2, 0x0180
    ff2c:	0180                	.insn	2, 0x0180
    ff2e:	0180                	.insn	2, 0x0180
    ff30:	03c0                	.insn	2, 0x03c0
    ff32:	07e0                	.insn	2, 0x07e0
    ff34:	07e0                	.insn	2, 0x07e0
    ff36:	0ff0                	.insn	2, 0x0ff0
    ff38:	1ff8                	.insn	2, 0x1ff8
    ff3a:	0000                	.insn	2, 0x
    ff3c:	318c                	.insn	2, 0x318c
    ff3e:	3bdc                	.insn	2, 0x3bdc
    ff40:	2e74                	.insn	2, 0x2e74
    ff42:	2424                	.insn	2, 0x2424
    ff44:	300c                	.insn	2, 0x300c
    ff46:	1818                	.insn	2, 0x1818
    ff48:	0c30                	.insn	2, 0x0c30
    ff4a:	0660                	.insn	2, 0x0660
    ff4c:	0240                	.insn	2, 0x0240
    ff4e:	0660                	.insn	2, 0x0660
    ff50:	0c30                	.insn	2, 0x0c30
    ff52:	0810                	.insn	2, 0x0810
    ff54:	1818                	.insn	2, 0x1818
    ff56:	300c                	.insn	2, 0x300c
    ff58:	2004                	.insn	2, 0x2004
    ff5a:	3ffc                	.insn	2, 0x3ffc

0000ff5c <SPRITE_CHESS_KING>:
    ff5c:	0000                	.insn	2, 0x
    ff5e:	0810                	.insn	2, 0x0810
    ff60:	1c38                	.insn	2, 0x1c38
    ff62:	1e78                	.insn	2, 0x1e78
    ff64:	0e70                	.insn	2, 0x0e70
    ff66:	07e0                	.insn	2, 0x07e0
    ff68:	03c0                	.insn	2, 0x03c0
    ff6a:	03c0                	.insn	2, 0x03c0
    ff6c:	03c0                	.insn	2, 0x03c0
    ff6e:	03c0                	.insn	2, 0x03c0
    ff70:	03c0                	.insn	2, 0x03c0
    ff72:	07e0                	.insn	2, 0x07e0
    ff74:	07e0                	.insn	2, 0x07e0
    ff76:	0ff0                	.insn	2, 0x0ff0
    ff78:	1ff8                	.insn	2, 0x1ff8
    ff7a:	0000                	.insn	2, 0x
    ff7c:	1db8                	.insn	2, 0x1db8
    ff7e:	37ec                	.insn	2, 0x37ec
    ff80:	23c4                	.insn	2, 0x23c4
    ff82:	2184                	.insn	2, 0x2184
    ff84:	318c                	.insn	2, 0x318c
    ff86:	1818                	.insn	2, 0x1818
    ff88:	0c30                	.insn	2, 0x0c30
    ff8a:	0420                	.insn	2, 0x0420
    ff8c:	0420                	.insn	2, 0x0420
    ff8e:	0420                	.insn	2, 0x0420
    ff90:	0c30                	.insn	2, 0x0c30
    ff92:	0810                	.insn	2, 0x0810
    ff94:	1818                	.insn	2, 0x1818
    ff96:	300c                	.insn	2, 0x300c
    ff98:	2004                	.insn	2, 0x2004
    ff9a:	3ffc                	.insn	2, 0x3ffc

0000ff9c <SPRITE_CHESS_BISHOP>:
    ff9c:	0000                	.insn	2, 0x
    ff9e:	0180                	.insn	2, 0x0180
    ffa0:	0180                	.insn	2, 0x0180
    ffa2:	07e0                	.insn	2, 0x07e0
    ffa4:	07e0                	.insn	2, 0x07e0
    ffa6:	0180                	.insn	2, 0x0180
    ffa8:	0180                	.insn	2, 0x0180
    ffaa:	0180                	.insn	2, 0x0180
    ffac:	0180                	.insn	2, 0x0180
    ffae:	0180                	.insn	2, 0x0180
    ffb0:	0180                	.insn	2, 0x0180
    ffb2:	03c0                	.insn	2, 0x03c0
    ffb4:	03c0                	.insn	2, 0x03c0
    ffb6:	0ff0                	.insn	2, 0x0ff0
    ffb8:	1ff8                	.insn	2, 0x1ff8
    ffba:	0000                	.insn	2, 0x
    ffbc:	03c0                	.insn	2, 0x03c0
    ffbe:	0240                	.insn	2, 0x0240
    ffc0:	0e70                	.insn	2, 0x0e70
    ffc2:	0810                	.insn	2, 0x0810
    ffc4:	0810                	.insn	2, 0x0810
    ffc6:	0e70                	.insn	2, 0x0e70
    ffc8:	0240                	.insn	2, 0x0240
    ffca:	0240                	.insn	2, 0x0240
    ffcc:	0240                	.insn	2, 0x0240
    ffce:	0240                	.insn	2, 0x0240
    ffd0:	0660                	.insn	2, 0x0660
    ffd2:	0420                	.insn	2, 0x0420
    ffd4:	1c38                	.insn	2, 0x1c38
    ffd6:	300c                	.insn	2, 0x300c
    ffd8:	2004                	.insn	2, 0x2004
    ffda:	3ffc                	.insn	2, 0x3ffc
    ffdc:	0000                	.insn	2, 0x
	...

0000ffe0 <SPRITE_TETRIS_BLOCK>:
    ffe0:	6000                	.insn	2, 0x6000
    ffe2:	0040                	.insn	2, 0x0040
    ffe4:	0000                	.insn	2, 0x
    ffe6:	0000                	.insn	2, 0x
    ffe8:	1e00                	.insn	2, 0x1e00
    ffea:	7e3e                	.insn	2, 0x7e3e
    ffec:	7e7e                	.insn	2, 0x7e7e
    ffee:	007e                	.insn	2, 0x007e
    fff0:	817e                	.insn	2, 0x817e
    fff2:	8181                	.insn	2, 0x8181
    fff4:	8181                	.insn	2, 0x8181
    fff6:	7e81                	.insn	2, 0x7e81

0000fff8 <SPRITE_CARD_HEARTS>:
    fff8:	1818                	.insn	2, 0x1818
    fffa:	3c3c                	.insn	2, 0x3c3c
    fffc:	7e7e                	.insn	2, 0x7e7e
    fffe:	7e7e                	.insn	2, 0x7e7e
   10000:	7ffe                	.insn	2, 0x7ffe
   10002:	7ffe                	.insn	2, 0x7ffe
   10004:	3ffc                	.insn	2, 0x3ffc
   10006:	3ffc                	.insn	2, 0x3ffc
   10008:	1ff8                	.insn	2, 0x1ff8
   1000a:	1ff8                	.insn	2, 0x1ff8
   1000c:	0ff0                	.insn	2, 0x0ff0
   1000e:	0ff0                	.insn	2, 0x0ff0
   10010:	07e0                	.insn	2, 0x07e0
   10012:	07e0                	.insn	2, 0x07e0
   10014:	03c0                	.insn	2, 0x03c0
   10016:	0180                	.insn	2, 0x0180

00010018 <SPRITE_CARD_DIAMONDS>:
   10018:	0180                	.insn	2, 0x0180
   1001a:	03c0                	.insn	2, 0x03c0
   1001c:	03c0                	.insn	2, 0x03c0
   1001e:	07e0                	.insn	2, 0x07e0
   10020:	07e0                	.insn	2, 0x07e0
   10022:	0ff0                	.insn	2, 0x0ff0
   10024:	1ff8                	.insn	2, 0x1ff8
   10026:	3ffc                	.insn	2, 0x3ffc
   10028:	3ffc                	.insn	2, 0x3ffc
   1002a:	1ff8                	.insn	2, 0x1ff8
   1002c:	0ff0                	.insn	2, 0x0ff0
   1002e:	07e0                	.insn	2, 0x07e0
   10030:	07e0                	.insn	2, 0x07e0
   10032:	03c0                	.insn	2, 0x03c0
   10034:	03c0                	.insn	2, 0x03c0
   10036:	0180                	.insn	2, 0x0180

00010038 <SPRITE_REFRESH>:
   10038:	cfe0                	.insn	2, 0xcfe0
   1003a:	dff8                	.insn	2, 0xdff8
   1003c:	f83c                	.insn	2, 0xf83c
   1003e:	f00e                	.insn	2, 0xf00e
   10040:	fc06                	.insn	2, 0xfc06
   10042:	0003fc07          	.insn	4, 0x0003fc07
   10046:	c0030003          	lb	zero,-1024(t1) # 7ffffc00 <_stack_end+0x7feeecb8>
   1004a:	c007c003          	lbu	zero,-1024(a5)
   1004e:	e006                	.insn	2, 0xe006
   10050:	700e                	.insn	2, 0x700e
   10052:	3c3c                	.insn	2, 0x3c3c
   10054:	1ff8                	.insn	2, 0x1ff8
   10056:	07e0                	.insn	2, 0x07e0

00010058 <SPRITE_CHESS_ROOK>:
   10058:	0000                	.insn	2, 0x
   1005a:	1188                	.insn	2, 0x1188
   1005c:	1188                	.insn	2, 0x1188
   1005e:	1ff8                	.insn	2, 0x1ff8
   10060:	1ff8                	.insn	2, 0x1ff8
   10062:	05a0                	.insn	2, 0x05a0
   10064:	05a0                	.insn	2, 0x05a0
   10066:	05a0                	.insn	2, 0x05a0
   10068:	05a0                	.insn	2, 0x05a0
   1006a:	05a0                	.insn	2, 0x05a0
   1006c:	05a0                	.insn	2, 0x05a0
   1006e:	05a0                	.insn	2, 0x05a0
   10070:	07e0                	.insn	2, 0x07e0
   10072:	0ff0                	.insn	2, 0x0ff0
   10074:	1ff8                	.insn	2, 0x1ff8
   10076:	0000                	.insn	2, 0x
   10078:	3bdc                	.insn	2, 0x3bdc
   1007a:	2a54                	.insn	2, 0x2a54
   1007c:	2e74                	.insn	2, 0x2e74
   1007e:	2004                	.insn	2, 0x2004
   10080:	2004                	.insn	2, 0x2004
   10082:	3a5c                	.insn	2, 0x3a5c
   10084:	0a50                	.insn	2, 0x0a50
   10086:	0a50                	.insn	2, 0x0a50
   10088:	0a50                	.insn	2, 0x0a50
   1008a:	0a50                	.insn	2, 0x0a50
   1008c:	0a50                	.insn	2, 0x0a50
   1008e:	0a50                	.insn	2, 0x0a50
   10090:	1818                	.insn	2, 0x1818
   10092:	300c                	.insn	2, 0x300c
   10094:	2004                	.insn	2, 0x2004
   10096:	3ffc                	.insn	2, 0x3ffc

00010098 <SPRITE_CARD_CLUBS>:
   10098:	03c0                	.insn	2, 0x03c0
   1009a:	07e0                	.insn	2, 0x07e0
   1009c:	07e0                	.insn	2, 0x07e0
   1009e:	07e0                	.insn	2, 0x07e0
   100a0:	37ec                	.insn	2, 0x37ec
   100a2:	7bde                	.insn	2, 0x7bde
   100a4:	ffff                	.insn	2, 0xffff
   100a6:	ffff                	.insn	2, 0xffff
   100a8:	ffff                	.insn	2, 0xffff
   100aa:	ffff                	.insn	2, 0xffff
   100ac:	ffff                	.insn	2, 0xffff
   100ae:	7bde                	.insn	2, 0x7bde
   100b0:	318c                	.insn	2, 0x318c
   100b2:	0180                	.insn	2, 0x0180
   100b4:	03c0                	.insn	2, 0x03c0
   100b6:	07e0                	.insn	2, 0x07e0
   100b8:	6e49                	.insn	2, 0x6e49
   100ba:	6176                	.insn	2, 0x6176
   100bc:	696c                	.insn	2, 0x696c
   100be:	2064                	.insn	2, 0x2064
   100c0:	756e                	.insn	2, 0x756e
   100c2:	626d                	.insn	2, 0x626d
   100c4:	7265                	.insn	2, 0x7265
   100c6:	6f20                	.insn	2, 0x6f20
   100c8:	2066                	.insn	2, 0x2066
   100ca:	6f6c6f63          	bltu	s8,s6,107c8 <glyphs_width+0x380>
   100ce:	7372                	.insn	2, 0x7372
   100d0:	0000                	.insn	2, 0x
   100d2:	0000                	.insn	2, 0x
   100d4:	0eac                	.insn	2, 0x0eac
   100d6:	0000                	.insn	2, 0x
   100d8:	0ed0                	.insn	2, 0x0ed0
   100da:	0000                	.insn	2, 0x
   100dc:	0ef4                	.insn	2, 0x0ef4
   100de:	0000                	.insn	2, 0x
   100e0:	0f18                	.insn	2, 0x0f18
   100e2:	0000                	.insn	2, 0x
   100e4:	0f3c                	.insn	2, 0x0f3c
   100e6:	0000                	.insn	2, 0x
   100e8:	0f60                	.insn	2, 0x0f60
   100ea:	0000                	.insn	2, 0x
   100ec:	0f84                	.insn	2, 0x0f84
   100ee:	0000                	.insn	2, 0x
   100f0:	0fa8                	.insn	2, 0x0fa8
   100f2:	0000                	.insn	2, 0x
   100f4:	0fcc                	.insn	2, 0x0fcc
   100f6:	0000                	.insn	2, 0x
   100f8:	0ff0                	.insn	2, 0x0ff0
   100fa:	0000                	.insn	2, 0x
   100fc:	1014                	.insn	2, 0x1014
   100fe:	0000                	.insn	2, 0x
   10100:	1038                	.insn	2, 0x1038
   10102:	0000                	.insn	2, 0x
   10104:	105c                	.insn	2, 0x105c
   10106:	0000                	.insn	2, 0x
   10108:	00000007          	.insn	4, 0x0007
   1010c:	0005                	.insn	2, 0x0005
   1010e:	0000                	.insn	2, 0x
   10110:	00000003          	lb	zero,0(zero) # 0 <_isr_handler>
   10114:	0002                	.insn	2, 0x0002
   10116:	0000                	.insn	2, 0x
   10118:	0002                	.insn	2, 0x0002
   1011a:	0000                	.insn	2, 0x
   1011c:	0001                	.insn	2, 0x0001
   1011e:	0000                	.insn	2, 0x
   10120:	0001                	.insn	2, 0x0001
	...
   1013a:	0000                	.insn	2, 0x
   1013c:	0001                	.insn	2, 0x0001
   1013e:	0000                	.insn	2, 0x
   10140:	0001                	.insn	2, 0x0001
   10142:	0000                	.insn	2, 0x
   10144:	0002                	.insn	2, 0x0002
   10146:	0000                	.insn	2, 0x
   10148:	0002                	.insn	2, 0x0002
   1014a:	0000                	.insn	2, 0x
   1014c:	00000003          	lb	zero,0(zero) # 0 <_isr_handler>
   10150:	0005                	.insn	2, 0x0005
   10152:	0000                	.insn	2, 0x
   10154:	00000007          	.insn	4, 0x0007
   10158:	0006                	.insn	2, 0x0006
   1015a:	0000                	.insn	2, 0x
   1015c:	000a                	.insn	2, 0x000a
   1015e:	0000                	.insn	2, 0x
   10160:	000e                	.insn	2, 0x000e
   10162:	0000                	.insn	2, 0x
   10164:	0010                	.insn	2, 0x0010
   10166:	0000                	.insn	2, 0x
   10168:	0010                	.insn	2, 0x0010
   1016a:	0000                	.insn	2, 0x
   1016c:	0012                	.insn	2, 0x0012
   1016e:	0000                	.insn	2, 0x
   10170:	0012                	.insn	2, 0x0012
   10172:	0000                	.insn	2, 0x
   10174:	0014                	.insn	2, 0x0014
   10176:	0000                	.insn	2, 0x
   10178:	0014                	.insn	2, 0x0014
   1017a:	0000                	.insn	2, 0x
   1017c:	0014                	.insn	2, 0x0014
   1017e:	0000                	.insn	2, 0x
   10180:	0014                	.insn	2, 0x0014
   10182:	0000                	.insn	2, 0x
   10184:	0014                	.insn	2, 0x0014
   10186:	0000                	.insn	2, 0x
   10188:	0014                	.insn	2, 0x0014
   1018a:	0000                	.insn	2, 0x
   1018c:	0012                	.insn	2, 0x0012
   1018e:	0000                	.insn	2, 0x
   10190:	0012                	.insn	2, 0x0012
   10192:	0000                	.insn	2, 0x
   10194:	0010                	.insn	2, 0x0010
   10196:	0000                	.insn	2, 0x
   10198:	0010                	.insn	2, 0x0010
   1019a:	0000                	.insn	2, 0x
   1019c:	000e                	.insn	2, 0x000e
   1019e:	0000                	.insn	2, 0x
   101a0:	000a                	.insn	2, 0x000a
   101a2:	0000                	.insn	2, 0x
   101a4:	0006                	.insn	2, 0x0006
   101a6:	0000                	.insn	2, 0x
   101a8:	0004                	.insn	2, 0x0004
   101aa:	0000                	.insn	2, 0x
   101ac:	0002                	.insn	2, 0x0002
   101ae:	0000                	.insn	2, 0x
   101b0:	0001                	.insn	2, 0x0001
   101b2:	0000                	.insn	2, 0x
   101b4:	0001                	.insn	2, 0x0001
	...
   101c6:	0000                	.insn	2, 0x
   101c8:	0001                	.insn	2, 0x0001
   101ca:	0000                	.insn	2, 0x
   101cc:	0001                	.insn	2, 0x0001
   101ce:	0000                	.insn	2, 0x
   101d0:	0002                	.insn	2, 0x0002
   101d2:	0000                	.insn	2, 0x
   101d4:	0004                	.insn	2, 0x0004
   101d6:	0000                	.insn	2, 0x
   101d8:	0004                	.insn	2, 0x0004
   101da:	0000                	.insn	2, 0x
   101dc:	0008                	.insn	2, 0x0008
   101de:	0000                	.insn	2, 0x
   101e0:	000a                	.insn	2, 0x000a
   101e2:	0000                	.insn	2, 0x
   101e4:	000a                	.insn	2, 0x000a
   101e6:	0000                	.insn	2, 0x
   101e8:	000c                	.insn	2, 0x000c
   101ea:	0000                	.insn	2, 0x
   101ec:	000c                	.insn	2, 0x000c
   101ee:	0000                	.insn	2, 0x
   101f0:	000c                	.insn	2, 0x000c
   101f2:	0000                	.insn	2, 0x
   101f4:	000c                	.insn	2, 0x000c
   101f6:	0000                	.insn	2, 0x
   101f8:	000a                	.insn	2, 0x000a
   101fa:	0000                	.insn	2, 0x
   101fc:	000a                	.insn	2, 0x000a
   101fe:	0000                	.insn	2, 0x
   10200:	0008                	.insn	2, 0x0008
   10202:	0000                	.insn	2, 0x
   10204:	0004                	.insn	2, 0x0004
   10206:	0000                	.insn	2, 0x
   10208:	0002                	.insn	2, 0x0002
   1020a:	0000                	.insn	2, 0x
   1020c:	0001                	.insn	2, 0x0001
	...
   1021e:	0000                	.insn	2, 0x
   10220:	0001                	.insn	2, 0x0001
   10222:	0000                	.insn	2, 0x
   10224:	0002                	.insn	2, 0x0002
   10226:	0000                	.insn	2, 0x
   10228:	0004                	.insn	2, 0x0004
   1022a:	0000                	.insn	2, 0x
   1022c:	0006                	.insn	2, 0x0006
   1022e:	0000                	.insn	2, 0x
   10230:	0008                	.insn	2, 0x0008
   10232:	0000                	.insn	2, 0x
   10234:	0008                	.insn	2, 0x0008
   10236:	0000                	.insn	2, 0x
   10238:	0008                	.insn	2, 0x0008
   1023a:	0000                	.insn	2, 0x
   1023c:	0008                	.insn	2, 0x0008
   1023e:	0000                	.insn	2, 0x
   10240:	0006                	.insn	2, 0x0006
   10242:	0000                	.insn	2, 0x
   10244:	0004                	.insn	2, 0x0004
	...

00010248 <glyphs_code>:
	...
   102cc:	8421                	.insn	2, 0x8421
   102ce:	0200                	.insn	2, 0x0200
	...
   102f8:	0000                	.insn	2, 0x
   102fa:	0442                	.insn	2, 0x0442
   102fc:	7c00                	.insn	2, 0x7c00
   102fe:	0000                	.insn	2, 0x
   10300:	0000                	.insn	2, 0x
   10302:	0000                	.insn	2, 0x
   10304:	1088                	.insn	2, 0x1088
   10306:	0221                	.insn	2, 0x0221
   10308:	c62e                	.insn	2, 0xc62e
   1030a:	1d18                	.insn	2, 0x1d18
   1030c:	0862                	.insn	2, 0x0862
   1030e:	0e21                	.insn	2, 0x0e21
   10310:	422e                	.insn	2, 0x422e
   10312:	3e26                	.insn	2, 0x3e26
   10314:	1f083a0f          	.insn	4, 0x1f083a0f
   10318:	7d29                	.insn	2, 0x7d29
   1031a:	1084                	.insn	2, 0x1084
   1031c:	1f083c3f 1d18bc3e 	.insn	8, 0x1d18bc3e1f083c3f
   10324:	221f 0844 ba2e      	.insn	6, 0xba2e0844221f
   1032a:	1d18                	.insn	2, 0x1d18
   1032c:	7a2e                	.insn	2, 0x7a2e
   1032e:	1f08                	.insn	2, 0x1f08
   10330:	0020                	.insn	2, 0x0020
   10332:	0010                	.insn	2, 0x0010
	...
   10344:	222e                	.insn	2, 0x222e
   10346:	0802                	.insn	2, 0x0802
   10348:	0000                	.insn	2, 0x
   1034a:	0000                	.insn	2, 0x
   1034c:	fe2e                	.insn	2, 0xfe2e
   1034e:	2318                	.insn	2, 0x2318
   10350:	1f18be2f          	.insn	4, 0x1f18be2f
   10354:	843e                	.insn	2, 0x843e
   10356:	3c10                	.insn	2, 0x3c10
   10358:	1f18c62f          	.insn	4, 0x1f18c62f
   1035c:	3e10bc3f 0210bc3f 	.insn	8, 0x0210bc3f3e10bc3f
   10364:	e43e                	.insn	2, 0xe43e
   10366:	1d18                	.insn	2, 0x1d18
   10368:	fe31                	.insn	2, 0xfe31
   1036a:	2318                	.insn	2, 0x2318
   1036c:	0e210847          	.insn	4, 0x0e210847
   10370:	211c                	.insn	2, 0x211c
   10372:	0e84                	.insn	2, 0x0e84
   10374:	9531                	.insn	2, 0x9531
   10376:	2315                	.insn	2, 0x2315
   10378:	8421                	.insn	2, 0x8421
   1037a:	3e10                	.insn	2, 0x3e10
   1037c:	d771                	.insn	2, 0xd771
   1037e:	2318                	.insn	2, 0x2318
   10380:	d671                	.insn	2, 0xd671
   10382:	231c                	.insn	2, 0x231c
   10384:	c62e                	.insn	2, 0xc62e
   10386:	1d18                	.insn	2, 0x1d18
   10388:	0210be2f          	.insn	4, 0x0210be2f
   1038c:	c62e                	.insn	2, 0xc62e
   1038e:	2c9a                	.insn	2, 0x2c9a
   10390:	2318be2f          	.insn	4, 0x2318be2f
   10394:	383e                	.insn	2, 0x383e
   10396:	1f08                	.insn	2, 0x1f08
   10398:	109f 0842 c631      	.insn	6, 0xc6310842109f
   1039e:	1d18                	.insn	2, 0x1d18
   103a0:	4631                	.insn	2, 0x4631
   103a2:	08a5                	.insn	2, 0x08a5
   103a4:	d631                	.insn	2, 0xd631
   103a6:	155a                	.insn	2, 0x155a
   103a8:	1151                	.insn	2, 0x1151
   103aa:	2315                	.insn	2, 0x2315
   103ac:	1151                	.insn	2, 0x1151
   103ae:	0842                	.insn	2, 0x0842
   103b0:	111f 3e11 0000      	.insn	6, 0x3e11111f
	...
   103ca:	0000                	.insn	2, 0x
   103cc:	41c0                	.insn	2, 0x41c0
   103ce:	3d1f c5e1 1f18      	.insn	6, 0x1f18c5e13d1f
   103d4:	85c0                	.insn	2, 0x85c0
   103d6:	1c10                	.insn	2, 0x1c10
   103d8:	c7d0                	.insn	2, 0xc7d0
   103da:	3d18                	.insn	2, 0x3d18
   103dc:	c5c0                	.insn	2, 0xc5c0
   103de:	1c1f 3c5c 0421      	.insn	6, 0x04213c5c1c1f
   103e4:	463e                	.insn	2, 0x463e
   103e6:	bc211d0f          	.insn	4, 0xbc211d0f
   103ea:	2318                	.insn	2, 0x2318
   103ec:	8401                	.insn	2, 0x8401
   103ee:	0210                	.insn	2, 0x0210
   103f0:	1004                	.insn	2, 0x1004
   103f2:	0642                	.insn	2, 0x0642
   103f4:	a621                	.insn	2, 0xa621
   103f6:	22b2                	.insn	2, 0x22b2
   103f8:	8421                	.insn	2, 0x8421
   103fa:	0410                	.insn	2, 0x0410
   103fc:	d560                	.insn	2, 0xd560
   103fe:	2318                	.insn	2, 0x2318
   10400:	c5e0                	.insn	2, 0xc5e0
   10402:	2318                	.insn	2, 0x2318
   10404:	c5c0                	.insn	2, 0xc5c0
   10406:	1d18                	.insn	2, 0x1d18
   10408:	a4e0                	.insn	2, 0xa4e0
   1040a:	4b800213          	li	tp,1208
   1040e:	210e                	.insn	2, 0x210e
   10410:	8fa0                	.insn	2, 0x8fa0
   10412:	0210                	.insn	2, 0x0210
   10414:	05c0                	.insn	2, 0x05c0
   10416:	08e21f07          	.insn	4, 0x08e21f07
   1041a:	08a1                	.insn	2, 0x08a1
   1041c:	c620                	.insn	2, 0xc620
   1041e:	3d18                	.insn	2, 0x3d18
   10420:	4620                	.insn	2, 0x4620
   10422:	08a5                	.insn	2, 0x08a5
   10424:	d6a0                	.insn	2, 0xd6a0
   10426:	155a                	.insn	2, 0x155a
   10428:	2a20                	.insn	2, 0x2a20
   1042a:	22a2                	.insn	2, 0x22a2
   1042c:	4620                	.insn	2, 0x4620
   1042e:	23e01d0f          	.insn	4, 0x23e01d0f
   10432:	3e22                	.insn	2, 0x3e22
	...

00010448 <glyphs_width>:
	...
   104c8:	0005                	.insn	2, 0x0005
   104ca:	0000                	.insn	2, 0x
   104cc:	0001                	.insn	2, 0x0001
	...
   104f6:	0000                	.insn	2, 0x
   104f8:	0002                	.insn	2, 0x0002
   104fa:	0000                	.insn	2, 0x
   104fc:	0005                	.insn	2, 0x0005
   104fe:	0000                	.insn	2, 0x
   10500:	0000                	.insn	2, 0x
   10502:	0000                	.insn	2, 0x
   10504:	0004                	.insn	2, 0x0004
   10506:	0000                	.insn	2, 0x
   10508:	0005                	.insn	2, 0x0005
   1050a:	0000                	.insn	2, 0x
   1050c:	00000003          	lb	zero,0(zero) # 0 <_isr_handler>
   10510:	0005                	.insn	2, 0x0005
   10512:	0000                	.insn	2, 0x
   10514:	0005                	.insn	2, 0x0005
   10516:	0000                	.insn	2, 0x
   10518:	0005                	.insn	2, 0x0005
   1051a:	0000                	.insn	2, 0x
   1051c:	0005                	.insn	2, 0x0005
   1051e:	0000                	.insn	2, 0x
   10520:	0005                	.insn	2, 0x0005
   10522:	0000                	.insn	2, 0x
   10524:	0005                	.insn	2, 0x0005
   10526:	0000                	.insn	2, 0x
   10528:	0005                	.insn	2, 0x0005
   1052a:	0000                	.insn	2, 0x
   1052c:	0005                	.insn	2, 0x0005
   1052e:	0000                	.insn	2, 0x
   10530:	0001                	.insn	2, 0x0001
	...
   10542:	0000                	.insn	2, 0x
   10544:	0005                	.insn	2, 0x0005
   10546:	0000                	.insn	2, 0x
   10548:	0000                	.insn	2, 0x
   1054a:	0000                	.insn	2, 0x
   1054c:	0005                	.insn	2, 0x0005
   1054e:	0000                	.insn	2, 0x
   10550:	0005                	.insn	2, 0x0005
   10552:	0000                	.insn	2, 0x
   10554:	0005                	.insn	2, 0x0005
   10556:	0000                	.insn	2, 0x
   10558:	0005                	.insn	2, 0x0005
   1055a:	0000                	.insn	2, 0x
   1055c:	0005                	.insn	2, 0x0005
   1055e:	0000                	.insn	2, 0x
   10560:	0005                	.insn	2, 0x0005
   10562:	0000                	.insn	2, 0x
   10564:	0005                	.insn	2, 0x0005
   10566:	0000                	.insn	2, 0x
   10568:	0005                	.insn	2, 0x0005
   1056a:	0000                	.insn	2, 0x
   1056c:	00000003          	lb	zero,0(zero) # 0 <_isr_handler>
   10570:	0005                	.insn	2, 0x0005
   10572:	0000                	.insn	2, 0x
   10574:	0005                	.insn	2, 0x0005
   10576:	0000                	.insn	2, 0x
   10578:	0005                	.insn	2, 0x0005
   1057a:	0000                	.insn	2, 0x
   1057c:	0005                	.insn	2, 0x0005
   1057e:	0000                	.insn	2, 0x
   10580:	0005                	.insn	2, 0x0005
   10582:	0000                	.insn	2, 0x
   10584:	0005                	.insn	2, 0x0005
   10586:	0000                	.insn	2, 0x
   10588:	0005                	.insn	2, 0x0005
   1058a:	0000                	.insn	2, 0x
   1058c:	0005                	.insn	2, 0x0005
   1058e:	0000                	.insn	2, 0x
   10590:	0005                	.insn	2, 0x0005
   10592:	0000                	.insn	2, 0x
   10594:	0005                	.insn	2, 0x0005
   10596:	0000                	.insn	2, 0x
   10598:	0005                	.insn	2, 0x0005
   1059a:	0000                	.insn	2, 0x
   1059c:	0005                	.insn	2, 0x0005
   1059e:	0000                	.insn	2, 0x
   105a0:	0005                	.insn	2, 0x0005
   105a2:	0000                	.insn	2, 0x
   105a4:	0005                	.insn	2, 0x0005
   105a6:	0000                	.insn	2, 0x
   105a8:	0005                	.insn	2, 0x0005
   105aa:	0000                	.insn	2, 0x
   105ac:	0005                	.insn	2, 0x0005
   105ae:	0000                	.insn	2, 0x
   105b0:	0005                	.insn	2, 0x0005
	...
   105ca:	0000                	.insn	2, 0x
   105cc:	0005                	.insn	2, 0x0005
   105ce:	0000                	.insn	2, 0x
   105d0:	0005                	.insn	2, 0x0005
   105d2:	0000                	.insn	2, 0x
   105d4:	0004                	.insn	2, 0x0004
   105d6:	0000                	.insn	2, 0x
   105d8:	0005                	.insn	2, 0x0005
   105da:	0000                	.insn	2, 0x
   105dc:	0005                	.insn	2, 0x0005
   105de:	0000                	.insn	2, 0x
   105e0:	0005                	.insn	2, 0x0005
   105e2:	0000                	.insn	2, 0x
   105e4:	0005                	.insn	2, 0x0005
   105e6:	0000                	.insn	2, 0x
   105e8:	0005                	.insn	2, 0x0005
   105ea:	0000                	.insn	2, 0x
   105ec:	0001                	.insn	2, 0x0001
   105ee:	0000                	.insn	2, 0x
   105f0:	00000003          	lb	zero,0(zero) # 0 <_isr_handler>
   105f4:	0005                	.insn	2, 0x0005
   105f6:	0000                	.insn	2, 0x
   105f8:	0002                	.insn	2, 0x0002
   105fa:	0000                	.insn	2, 0x
   105fc:	0005                	.insn	2, 0x0005
   105fe:	0000                	.insn	2, 0x
   10600:	0005                	.insn	2, 0x0005
   10602:	0000                	.insn	2, 0x
   10604:	0005                	.insn	2, 0x0005
   10606:	0000                	.insn	2, 0x
   10608:	0004                	.insn	2, 0x0004
   1060a:	0000                	.insn	2, 0x
   1060c:	0004                	.insn	2, 0x0004
   1060e:	0000                	.insn	2, 0x
   10610:	0005                	.insn	2, 0x0005
   10612:	0000                	.insn	2, 0x
   10614:	0005                	.insn	2, 0x0005
   10616:	0000                	.insn	2, 0x
   10618:	0004                	.insn	2, 0x0004
   1061a:	0000                	.insn	2, 0x
   1061c:	0005                	.insn	2, 0x0005
   1061e:	0000                	.insn	2, 0x
   10620:	0005                	.insn	2, 0x0005
   10622:	0000                	.insn	2, 0x
   10624:	0005                	.insn	2, 0x0005
   10626:	0000                	.insn	2, 0x
   10628:	0005                	.insn	2, 0x0005
   1062a:	0000                	.insn	2, 0x
   1062c:	0005                	.insn	2, 0x0005
   1062e:	0000                	.insn	2, 0x
   10630:	0005                	.insn	2, 0x0005
	...
   10646:	0000                	.insn	2, 0x
   10648:	72616843          	.insn	4, 0x72616843
   1064c:	6361                	.insn	2, 0x6361
   1064e:	6574                	.insn	2, 0x6574
   10650:	2072                	.insn	2, 0x2072
   10652:	6f6e                	.insn	2, 0x6f6e
   10654:	2074                	.insn	2, 0x2074
   10656:	70707573          	csrrc	a0,0x707,0
   1065a:	6574726f          	jal	tp,584b0 <total_width+0x4756c>
   1065e:	0064                	.insn	2, 0x0064
   10660:	0041                	.insn	2, 0x0041
   10662:	0000                	.insn	2, 0x
   10664:	0032                	.insn	2, 0x0032
   10666:	0000                	.insn	2, 0x
   10668:	00000033          	add	zero,zero,zero
   1066c:	0034                	.insn	2, 0x0034
   1066e:	0000                	.insn	2, 0x
   10670:	0035                	.insn	2, 0x0035
   10672:	0000                	.insn	2, 0x
   10674:	0036                	.insn	2, 0x0036
   10676:	0000                	.insn	2, 0x
   10678:	00000037          	lui	zero,0x0
   1067c:	0038                	.insn	2, 0x0038
   1067e:	0000                	.insn	2, 0x
   10680:	0039                	.insn	2, 0x0039
   10682:	0000                	.insn	2, 0x
   10684:	3031                	.insn	2, 0x3031
   10686:	0000                	.insn	2, 0x
   10688:	004a                	.insn	2, 0x004a
   1068a:	0000                	.insn	2, 0x
   1068c:	0051                	.insn	2, 0x0051
   1068e:	0000                	.insn	2, 0x
   10690:	0000004b          	.insn	4, 0x004b
   10694:	27e8                	.insn	2, 0x27e8
   10696:	0000                	.insn	2, 0x
   10698:	274c                	.insn	2, 0x274c
   1069a:	0000                	.insn	2, 0x
   1069c:	2758                	.insn	2, 0x2758
   1069e:	0000                	.insn	2, 0x
   106a0:	2764                	.insn	2, 0x2764
   106a2:	0000                	.insn	2, 0x
   106a4:	2770                	.insn	2, 0x2770
   106a6:	0000                	.insn	2, 0x
   106a8:	277c                	.insn	2, 0x277c
   106aa:	0000                	.insn	2, 0x
   106ac:	2788                	.insn	2, 0x2788
   106ae:	0000                	.insn	2, 0x
   106b0:	2794                	.insn	2, 0x2794
   106b2:	0000                	.insn	2, 0x
   106b4:	27a0                	.insn	2, 0x27a0
   106b6:	0000                	.insn	2, 0x
   106b8:	27ac                	.insn	2, 0x27ac
   106ba:	0000                	.insn	2, 0x
   106bc:	27b8                	.insn	2, 0x27b8
   106be:	0000                	.insn	2, 0x
   106c0:	27c4                	.insn	2, 0x27c4
   106c2:	0000                	.insn	2, 0x
   106c4:	27d0                	.insn	2, 0x27d0
   106c6:	0000                	.insn	2, 0x
   106c8:	27dc                	.insn	2, 0x27dc
   106ca:	0000                	.insn	2, 0x
   106cc:	6f4e                	.insn	2, 0x6f4e
   106ce:	6320                	.insn	2, 0x6320
   106d0:	7261                	.insn	2, 0x7261
   106d2:	7364                	.insn	2, 0x7364
   106d4:	6c20                	.insn	2, 0x6c20
   106d6:	6665                	.insn	2, 0x6665
   106d8:	2074                	.insn	2, 0x2074
   106da:	6e69                	.insn	2, 0x6e69
   106dc:	6420                	.insn	2, 0x6420
   106de:	6365                	.insn	2, 0x6365
   106e0:	0000006b          	.insn	4, 0x006b
   106e4:	3724                	.insn	2, 0x3724
   106e6:	0000                	.insn	2, 0x
   106e8:	3730                	.insn	2, 0x3730
   106ea:	0000                	.insn	2, 0x
   106ec:	3740                	.insn	2, 0x3740
   106ee:	0000                	.insn	2, 0x
   106f0:	3750                	.insn	2, 0x3750
   106f2:	0000                	.insn	2, 0x
   106f4:	3760                	.insn	2, 0x3760
   106f6:	0000                	.insn	2, 0x
   106f8:	3770                	.insn	2, 0x3770
   106fa:	0000                	.insn	2, 0x
   106fc:	3780                	.insn	2, 0x3780
   106fe:	0000                	.insn	2, 0x
   10700:	3790                	.insn	2, 0x3790
   10702:	0000                	.insn	2, 0x
   10704:	3a30                	.insn	2, 0x3a30
   10706:	4f20                	.insn	2, 0x4f20
   10708:	6874                	.insn	2, 0x6874
   1070a:	6c65                	.insn	2, 0x6c65
   1070c:	6f6c                	.insn	2, 0x6f6c
   1070e:	0000                	.insn	2, 0x
   10710:	3a31                	.insn	2, 0x3a31
   10712:	4320                	.insn	2, 0x4320
   10714:	6568                	.insn	2, 0x6568
   10716:	00007373          	csrrc	t1,ustatus,0
   1071a:	0000                	.insn	2, 0x
   1071c:	3a32                	.insn	2, 0x3a32
   1071e:	4620                	.insn	2, 0x4620
   10720:	2072756f          	jal	a0,38126 <total_width+0x271e2>
   10724:	6e69                	.insn	2, 0x6e69
   10726:	6120                	.insn	2, 0x6120
   10728:	5220                	.insn	2, 0x5220
   1072a:	0000776f          	jal	a4,1772a <total_width+0x67e6>
   1072e:	0000                	.insn	2, 0x
   10730:	43203a33          	.insn	4, 0x43203a33
   10734:	6568                	.insn	2, 0x6568
   10736:	72656b63          	bltu	a0,t1,10e6c <__multiplier>
   1073a:	3a340073          	.insn	4, 0x3a340073
   1073e:	5320                	.insn	2, 0x5320
   10740:	74696c6f          	jal	s8,a6e86 <total_width+0x95f42>
   10744:	6961                	.insn	2, 0x6961
   10746:	6572                	.insn	2, 0x6572
   10748:	0000                	.insn	2, 0x
   1074a:	0000                	.insn	2, 0x
   1074c:	3a35                	.insn	2, 0x3a35
   1074e:	4220                	.insn	2, 0x4220
   10750:	6e69                	.insn	2, 0x6e69
   10752:	7261                	.insn	2, 0x7261
   10754:	2079                	.insn	2, 0x2079
   10756:	7254                	.insn	2, 0x7254
   10758:	6961                	.insn	2, 0x6961
   1075a:	696e                	.insn	2, 0x696e
   1075c:	676e                	.insn	2, 0x676e
   1075e:	0000                	.insn	2, 0x
   10760:	3a36                	.insn	2, 0x3a36
   10762:	5420                	.insn	2, 0x5420
   10764:	7465                	.insn	2, 0x7465
   10766:	6972                	.insn	2, 0x6972
   10768:	00000073          	ecall
   1076c:	53203a37          	lui	s4,0x53203
   10770:	616e                	.insn	2, 0x616e
   10772:	0000656b          	.insn	4, 0x656b
   10776:	0000                	.insn	2, 0x
   10778:	656c6553          	.insn	4, 0x656c6553
   1077c:	67207463          	bgeu	zero,s2,10de4 <white_start_position+0x4c>
   10780:	6d61                	.insn	2, 0x6d61
   10782:	2065                	.insn	2, 0x2065
   10784:	68746977          	.insn	4, 0x68746977
   10788:	7420                	.insn	2, 0x7420
   1078a:	6568                	.insn	2, 0x6568
   1078c:	7320                	.insn	2, 0x7320
   1078e:	63746977          	.insn	4, 0x63746977
   10792:	0068                	.insn	2, 0x0068
   10794:	7250                	.insn	2, 0x7250
   10796:	7365                	.insn	2, 0x7365
   10798:	75622073          	csrs	0x756,tp
   1079c:	7474                	.insn	2, 0x7474
   1079e:	74206e6f          	jal	t3,16ee0 <total_width+0x5f9c>
   107a2:	7473206f          	j	436e8 <total_width+0x327a4>
   107a6:	7261                	.insn	2, 0x7261
   107a8:	2074                	.insn	2, 0x2074
   107aa:	656d6167          	.insn	4, 0x656d6167
   107ae:	0000                	.insn	2, 0x
   107b0:	4954                	.insn	2, 0x4954
   107b2:	3a50                	.insn	2, 0x3a50
   107b4:	5420                	.insn	2, 0x5420
   107b6:	6c67676f          	jal	a4,86e7c <total_width+0x75f38>
   107ba:	2065                	.insn	2, 0x2065
   107bc:	534d                	.insn	2, 0x534d
   107be:	2042                	.insn	2, 0x2042
   107c0:	6f74                	.insn	2, 0x6f74
   107c2:	6720                	.insn	2, 0x6720
   107c4:	6162206f          	j	32dda <total_width+0x21e96>
   107c8:	74206b63          	bltu	zero,sp,10f1e <total_size_height+0x2>
   107cc:	6874206f          	j	53652 <total_width+0x4270e>
   107d0:	2065                	.insn	2, 0x2065
   107d2:	616d                	.insn	2, 0x616d
   107d4:	6e69                	.insn	2, 0x6e69
   107d6:	6d20                	.insn	2, 0x6d20
   107d8:	6e65                	.insn	2, 0x6e65
   107da:	0075                	.insn	2, 0x0075
   107dc:	6568744f          	.insn	4, 0x6568744f
   107e0:	6c6c                	.insn	2, 0x6c6c
   107e2:	6843006f          	j	40e66 <total_width+0x2ff22>
   107e6:	7365                	.insn	2, 0x7365
   107e8:	00000073          	ecall
   107ec:	6f46                	.insn	2, 0x6f46
   107ee:	7275                	.insn	2, 0x7275
   107f0:	6920                	.insn	2, 0x6920
   107f2:	206e                	.insn	2, 0x206e
   107f4:	2061                	.insn	2, 0x2061
   107f6:	6f52                	.insn	2, 0x6f52
   107f8:	00000077          	.insn	4, 0x0077
   107fc:	63656843          	.insn	4, 0x63656843
   10800:	7372656b          	.insn	4, 0x7372656b
   10804:	0000                	.insn	2, 0x
   10806:	0000                	.insn	2, 0x
   10808:	696c6f53          	.insn	4, 0x696c6f53
   1080c:	6174                	.insn	2, 0x6174
   1080e:	7269                	.insn	2, 0x7269
   10810:	0065                	.insn	2, 0x0065
   10812:	0000                	.insn	2, 0x
   10814:	6942                	.insn	2, 0x6942
   10816:	616e                	.insn	2, 0x616e
   10818:	7972                	.insn	2, 0x7972
   1081a:	5420                	.insn	2, 0x5420
   1081c:	6172                	.insn	2, 0x6172
   1081e:	6e69                	.insn	2, 0x6e69
   10820:	6e69                	.insn	2, 0x6e69
   10822:	65540067          	jr	1621(s0)
   10826:	7274                	.insn	2, 0x7274
   10828:	7369                	.insn	2, 0x7369
   1082a:	0000                	.insn	2, 0x
   1082c:	6b616e53          	.insn	4, 0x6b616e53
   10830:	0065                	.insn	2, 0x0065
   10832:	0000                	.insn	2, 0x
   10834:	003f3f3f 0000203a 	.insn	8, 0x203a003f3f3f
   1083c:	3a98                	.insn	2, 0x3a98
   1083e:	0000                	.insn	2, 0x
   10840:	3aa8                	.insn	2, 0x3aa8
   10842:	0000                	.insn	2, 0x
   10844:	3ab8                	.insn	2, 0x3ab8
   10846:	0000                	.insn	2, 0x
   10848:	3ac8                	.insn	2, 0x3ac8
   1084a:	0000                	.insn	2, 0x
   1084c:	3b18                	.insn	2, 0x3b18
   1084e:	0000                	.insn	2, 0x
   10850:	3ad8                	.insn	2, 0x3ad8
   10852:	0000                	.insn	2, 0x
   10854:	3ae8                	.insn	2, 0x3ae8
   10856:	0000                	.insn	2, 0x
   10858:	3af8                	.insn	2, 0x3af8
   1085a:	0000                	.insn	2, 0x
   1085c:	3b08                	.insn	2, 0x3b08
   1085e:	0000                	.insn	2, 0x
   10860:	3030                	.insn	2, 0x3030
   10862:	3030                	.insn	2, 0x3030
   10864:	3030                	.insn	2, 0x3030
   10866:	3030                	.insn	2, 0x3030
   10868:	3030                	.insn	2, 0x3030
   1086a:	3030                	.insn	2, 0x3030
   1086c:	3030                	.insn	2, 0x3030
   1086e:	3030                	.insn	2, 0x3030
   10870:	3030                	.insn	2, 0x3030
   10872:	0000                	.insn	2, 0x
   10874:	63656863          	bltu	a0,s6,10ea4 <COLOR_BLACK>
   10878:	7372656b          	.insn	4, 0x7372656b
   1087c:	685f 7361 745f      	.insn	6, 0x745f7361685f
   10882:	6c69                	.insn	2, 0x6c69
   10884:	3a65                	.insn	2, 0x3a65
   10886:	6920                	.insn	2, 0x6920
   10888:	766e                	.insn	2, 0x766e
   1088a:	6c61                	.insn	2, 0x6c61
   1088c:	6469                	.insn	2, 0x6469
   1088e:	7420                	.insn	2, 0x7420
   10890:	6c69                	.insn	2, 0x6c69
   10892:	0065                	.insn	2, 0x0065
   10894:	63656863          	bltu	a0,s6,10ec4 <COLOR_BACKGROUND>
   10898:	7372656b          	.insn	4, 0x7372656b
   1089c:	675f 7465 745f      	.insn	6, 0x745f7465675f
   108a2:	6c69                	.insn	2, 0x6c69
   108a4:	3a65                	.insn	2, 0x3a65
   108a6:	6920                	.insn	2, 0x6920
   108a8:	766e                	.insn	2, 0x766e
   108aa:	6c61                	.insn	2, 0x6c61
   108ac:	6469                	.insn	2, 0x6469
   108ae:	7420                	.insn	2, 0x7420
   108b0:	6c69                	.insn	2, 0x6c69
   108b2:	0065                	.insn	2, 0x0065
   108b4:	63656863          	bltu	a0,s6,10ee4 <offset_y>
   108b8:	7372656b          	.insn	4, 0x7372656b
   108bc:	735f 7465 745f      	.insn	6, 0x745f7465735f
   108c2:	6c69                	.insn	2, 0x6c69
   108c4:	3a65                	.insn	2, 0x3a65
   108c6:	6920                	.insn	2, 0x6920
   108c8:	766e                	.insn	2, 0x766e
   108ca:	6c61                	.insn	2, 0x6c61
   108cc:	6469                	.insn	2, 0x6469
   108ce:	7420                	.insn	2, 0x7420
   108d0:	6c69                	.insn	2, 0x6c69
   108d2:	0065                	.insn	2, 0x0065
   108d4:	63656863          	bltu	a0,s6,10f04 <COLOR_TILE_HIGHLIGHTED>
   108d8:	7372656b          	.insn	4, 0x7372656b
   108dc:	735f 7465 745f      	.insn	6, 0x745f7465735f
   108e2:	6c69                	.insn	2, 0x6c69
   108e4:	3a65                	.insn	2, 0x3a65
   108e6:	7420                	.insn	2, 0x7420
   108e8:	6c69                	.insn	2, 0x6c69
   108ea:	2065                	.insn	2, 0x2065
   108ec:	6c61                	.insn	2, 0x6c61
   108ee:	6572                	.insn	2, 0x6572
   108f0:	6461                	.insn	2, 0x6461
   108f2:	2079                	.insn	2, 0x2079
   108f4:	7563636f          	jal	t1,4704a <total_width+0x36106>
   108f8:	6970                	.insn	2, 0x6970
   108fa:	6465                	.insn	2, 0x6465
   108fc:	0000                	.insn	2, 0x
   108fe:	0000                	.insn	2, 0x
   10900:	63656863          	bltu	a0,s6,10f30 <SNAKE_GRID_SIZE>
   10904:	7372656b          	.insn	4, 0x7372656b
   10908:	635f 656c 7261      	.insn	6, 0x7261656c635f
   1090e:	745f 6c69 3a65      	.insn	6, 0x3a656c69745f
   10914:	6920                	.insn	2, 0x6920
   10916:	766e                	.insn	2, 0x766e
   10918:	6c61                	.insn	2, 0x6c61
   1091a:	6469                	.insn	2, 0x6469
   1091c:	7420                	.insn	2, 0x7420
   1091e:	6c69                	.insn	2, 0x6c69
   10920:	0065                	.insn	2, 0x0065
   10922:	0000                	.insn	2, 0x
   10924:	63656863          	bltu	a0,s6,10f54 <total_width+0x10>
   10928:	7372656b          	.insn	4, 0x7372656b
   1092c:	675f 7465 615f      	.insn	6, 0x615f7465675f
   10932:	6176                	.insn	2, 0x6176
   10934:	6c69                	.insn	2, 0x6c69
   10936:	6261                	.insn	2, 0x6261
   10938:	656c                	.insn	2, 0x656c
   1093a:	6d5f 766f 7365      	.insn	6, 0x7365766f6d5f
   10940:	203a                	.insn	2, 0x203a
   10942:	6e69                	.insn	2, 0x6e69
   10944:	6176                	.insn	2, 0x6176
   10946:	696c                	.insn	2, 0x696c
   10948:	2064                	.insn	2, 0x2064
   1094a:	6572                	.insn	2, 0x6572
   1094c:	7574                	.insn	2, 0x7574
   1094e:	6e72                	.insn	2, 0x6e72
   10950:	7620                	.insn	2, 0x7620
   10952:	6c61                	.insn	2, 0x6c61
   10954:	6575                	.insn	2, 0x6575
   10956:	0000                	.insn	2, 0x
   10958:	63656863          	bltu	a0,s6,10f88 <total_width+0x44>
   1095c:	7372656b          	.insn	4, 0x7372656b
   10960:	6d5f 6b61 5f65      	.insn	6, 0x5f656b616d5f
   10966:	6f6d                	.insn	2, 0x6f6d
   10968:	6576                	.insn	2, 0x6576
   1096a:	203a                	.insn	2, 0x203a
   1096c:	6e69                	.insn	2, 0x6e69
   1096e:	6176                	.insn	2, 0x6176
   10970:	696c                	.insn	2, 0x696c
   10972:	2064                	.insn	2, 0x2064
   10974:	6f6d                	.insn	2, 0x6f6d
   10976:	6576                	.insn	2, 0x6576
   10978:	0000                	.insn	2, 0x
   1097a:	0000                	.insn	2, 0x
   1097c:	3030                	.insn	2, 0x3030
   1097e:	3030                	.insn	2, 0x3030
   10980:	3030                	.insn	2, 0x3030
   10982:	3030                	.insn	2, 0x3030
   10984:	3030                	.insn	2, 0x3030
   10986:	3030                	.insn	2, 0x3030
   10988:	3030                	.insn	2, 0x3030
   1098a:	3030                	.insn	2, 0x3030
   1098c:	3030                	.insn	2, 0x3030
   1098e:	3030                	.insn	2, 0x3030
   10990:	3030                	.insn	2, 0x3030
   10992:	0030                	.insn	2, 0x0030
   10994:	6f4e                	.insn	2, 0x6f4e
   10996:	6d72                	.insn	2, 0x6d72
   10998:	6c61                	.insn	2, 0x6c61
   1099a:	4d20                	.insn	2, 0x4d20
   1099c:	0065646f          	jal	s0,669a2 <total_width+0x55a5e>
   109a0:	614d                	.insn	2, 0x614d
   109a2:	646e                	.insn	2, 0x646e
   109a4:	7461                	.insn	2, 0x7461
   109a6:	2079726f          	jal	tp,a83ac <total_width+0x97468>
   109aa:	74706143          	.insn	4, 0x74706143
   109ae:	7275                	.insn	2, 0x7275
   109b0:	7365                	.insn	2, 0x7365
   109b2:	4d20                	.insn	2, 0x4d20
   109b4:	0065646f          	jal	s0,669ba <total_width+0x55a76>
   109b8:	4954                	.insn	2, 0x4954
   109ba:	3a50                	.insn	2, 0x3a50
   109bc:	5520                	.insn	2, 0x5520
   109be:	4c206573          	csrrs	a0,0x4c2,0
   109c2:	74204253          	.insn	4, 0x74204253
   109c6:	7773206f          	j	4393c <total_width+0x329f8>
   109ca:	7469                	.insn	2, 0x7469
   109cc:	62206863          	bltu	zero,sp,10ffc <total_width+0xb8>
   109d0:	7465                	.insn	2, 0x7465
   109d2:	6e656577          	.insn	4, 0x6e656577
   109d6:	7420                	.insn	2, 0x7420
   109d8:	6568                	.insn	2, 0x6568
   109da:	7420                	.insn	2, 0x7420
   109dc:	6d206f77          	.insn	4, 0x6d206f77
   109e0:	7365646f          	jal	s0,67116 <total_width+0x561d2>
   109e4:	0000                	.insn	2, 0x
   109e6:	0000                	.insn	2, 0x
   109e8:	656d6147          	.insn	4, 0x656d6147
   109ec:	4f20                	.insn	2, 0x4f20
   109ee:	6576                	.insn	2, 0x6576
   109f0:	3a72                	.insn	2, 0x3a72
   109f2:	5220                	.insn	2, 0x5220
   109f4:	6465                	.insn	2, 0x6465
   109f6:	7720                	.insn	2, 0x7720
   109f8:	6e69                	.insn	2, 0x6e69
   109fa:	61470073          	.insn	4, 0x61470073
   109fe:	656d                	.insn	2, 0x656d
   10a00:	4f20                	.insn	2, 0x4f20
   10a02:	6576                	.insn	2, 0x6576
   10a04:	3a72                	.insn	2, 0x3a72
   10a06:	4220                	.insn	2, 0x4220
   10a08:	616c                	.insn	2, 0x616c
   10a0a:	77206b63          	bltu	zero,s2,11180 <total_width+0x23c>
   10a0e:	6e69                	.insn	2, 0x6e69
   10a10:	00000073          	ecall
   10a14:	3030                	.insn	2, 0x3030
   10a16:	3030                	.insn	2, 0x3030
   10a18:	3030                	.insn	2, 0x3030
   10a1a:	3030                	.insn	2, 0x3030
   10a1c:	3030                	.insn	2, 0x3030
   10a1e:	3030                	.insn	2, 0x3030
   10a20:	3030                	.insn	2, 0x3030
   10a22:	3030                	.insn	2, 0x3030
   10a24:	0000                	.insn	2, 0x
   10a26:	0000                	.insn	2, 0x
   10a28:	6552                	.insn	2, 0x6552
   10a2a:	7364                	.insn	2, 0x7364
   10a2c:	7420                	.insn	2, 0x7420
   10a2e:	7275                	.insn	2, 0x7275
   10a30:	206e                	.insn	2, 0x206e
   10a32:	2020                	.insn	2, 0x2020
   10a34:	2020                	.insn	2, 0x2020
   10a36:	0000                	.insn	2, 0x
   10a38:	6c42                	.insn	2, 0x6c42
   10a3a:	6361                	.insn	2, 0x6361
   10a3c:	7420736b          	.insn	4, 0x7420736b
   10a40:	7275                	.insn	2, 0x7275
   10a42:	006e                	.insn	2, 0x006e
   10a44:	6966                	.insn	2, 0x6966
   10a46:	7261                	.insn	2, 0x7261
   10a48:	685f 7361 745f      	.insn	6, 0x745f7361685f
   10a4e:	6c69                	.insn	2, 0x6c69
   10a50:	3a65                	.insn	2, 0x3a65
   10a52:	6920                	.insn	2, 0x6920
   10a54:	766e                	.insn	2, 0x766e
   10a56:	6c61                	.insn	2, 0x6c61
   10a58:	6469                	.insn	2, 0x6469
   10a5a:	7420                	.insn	2, 0x7420
   10a5c:	6c69                	.insn	2, 0x6c69
   10a5e:	2065                	.insn	2, 0x2065
   10a60:	6f70                	.insn	2, 0x6f70
   10a62:	69746973          	csrrs	s2,0x697,8
   10a66:	00006e6f          	jal	t3,16a66 <total_width+0x5b22>
   10a6a:	0000                	.insn	2, 0x
   10a6c:	6966                	.insn	2, 0x6966
   10a6e:	7261                	.insn	2, 0x7261
   10a70:	675f 7465 745f      	.insn	6, 0x745f7465675f
   10a76:	6c69                	.insn	2, 0x6c69
   10a78:	3a65                	.insn	2, 0x3a65
   10a7a:	6e20                	.insn	2, 0x6e20
   10a7c:	6974206f          	j	53912 <total_width+0x429ce>
   10a80:	656c                	.insn	2, 0x656c
   10a82:	0000                	.insn	2, 0x
   10a84:	6966                	.insn	2, 0x6966
   10a86:	7261                	.insn	2, 0x7261
   10a88:	675f 7465 745f      	.insn	6, 0x745f7465675f
   10a8e:	6c69                	.insn	2, 0x6c69
   10a90:	3a65                	.insn	2, 0x3a65
   10a92:	7420                	.insn	2, 0x7420
   10a94:	6c69                	.insn	2, 0x6c69
   10a96:	2065                	.insn	2, 0x2065
   10a98:	6168                	.insn	2, 0x6168
   10a9a:	6f622073          	csrs	0x6f6,tp
   10a9e:	6874                	.insn	2, 0x6874
   10aa0:	6320                	.insn	2, 0x6320
   10aa2:	726f6c6f          	jal	s8,1071c8 <__stack_size+0x71c8>
   10aa6:	69660073          	.insn	4, 0x69660073
   10aaa:	7261                	.insn	2, 0x7261
   10aac:	735f 7465 745f      	.insn	6, 0x745f7465735f
   10ab2:	6c69                	.insn	2, 0x6c69
   10ab4:	3a65                	.insn	2, 0x3a65
   10ab6:	6920                	.insn	2, 0x6920
   10ab8:	766e                	.insn	2, 0x766e
   10aba:	6c61                	.insn	2, 0x6c61
   10abc:	6469                	.insn	2, 0x6469
   10abe:	7420                	.insn	2, 0x7420
   10ac0:	6c69                	.insn	2, 0x6c69
   10ac2:	2065                	.insn	2, 0x2065
   10ac4:	6f70                	.insn	2, 0x6f70
   10ac6:	69746973          	csrrs	s2,0x697,8
   10aca:	00006e6f          	jal	t3,16aca <total_width+0x5b86>
   10ace:	0000                	.insn	2, 0x
   10ad0:	6966                	.insn	2, 0x6966
   10ad2:	7261                	.insn	2, 0x7261
   10ad4:	635f 656c 7261      	.insn	6, 0x7261656c635f
   10ada:	745f 6c69 3a65      	.insn	6, 0x3a656c69745f
   10ae0:	6920                	.insn	2, 0x6920
   10ae2:	766e                	.insn	2, 0x766e
   10ae4:	6c61                	.insn	2, 0x6c61
   10ae6:	6469                	.insn	2, 0x6469
   10ae8:	7420                	.insn	2, 0x7420
   10aea:	6c69                	.insn	2, 0x6c69
   10aec:	2065                	.insn	2, 0x2065
   10aee:	6f70                	.insn	2, 0x6f70
   10af0:	69746973          	csrrs	s2,0x697,8
   10af4:	00006e6f          	jal	t3,16af4 <total_width+0x5bb0>
   10af8:	6966                	.insn	2, 0x6966
   10afa:	7261                	.insn	2, 0x7261
   10afc:	635f 656c 7261      	.insn	6, 0x7261656c635f
   10b02:	745f 6c69 3a65      	.insn	6, 0x3a656c69745f
   10b08:	6e20                	.insn	2, 0x6e20
   10b0a:	6974206f          	j	539a0 <total_width+0x42a5c>
   10b0e:	656c                	.insn	2, 0x656c
   10b10:	0000                	.insn	2, 0x
   10b12:	0000                	.insn	2, 0x
   10b14:	6966                	.insn	2, 0x6966
   10b16:	7261                	.insn	2, 0x7261
   10b18:	635f 6e61 645f      	.insn	6, 0x645f6e61635f
   10b1e:	6f72                	.insn	2, 0x6f72
   10b20:	3a70                	.insn	2, 0x3a70
   10b22:	6920                	.insn	2, 0x6920
   10b24:	766e                	.insn	2, 0x766e
   10b26:	6c61                	.insn	2, 0x6c61
   10b28:	6469                	.insn	2, 0x6469
   10b2a:	7820                	.insn	2, 0x7820
   10b2c:	7020                	.insn	2, 0x7020
   10b2e:	7469736f          	jal	t1,a8274 <total_width+0x97330>
   10b32:	6f69                	.insn	2, 0x6f69
   10b34:	006e                	.insn	2, 0x006e
   10b36:	0000                	.insn	2, 0x
   10b38:	636c6163          	bltu	s8,s6,1115a <total_width+0x216>
   10b3c:	6c75                	.insn	2, 0x6c75
   10b3e:	7461                	.insn	2, 0x7461
   10b40:	5f65                	.insn	2, 0x5f65
   10b42:	5f6e6977          	.insn	4, 0x5f6e6977
   10b46:	696c                	.insn	2, 0x696c
   10b48:	656e                	.insn	2, 0x656e
   10b4a:	69645f73          	csrrw	t5,0x696,8
   10b4e:	3a72                	.insn	2, 0x3a72
   10b50:	7420                	.insn	2, 0x7420
   10b52:	6d206f6f          	jal	t5,17224 <total_width+0x62e0>
   10b56:	6e61                	.insn	2, 0x6e61
   10b58:	2079                	.insn	2, 0x2079
   10b5a:	6e6e6977          	.insn	4, 0x6e6e6977
   10b5e:	6e69                	.insn	2, 0x6e69
   10b60:	696c2067          	.insn	4, 0x696c2067
   10b64:	656e                	.insn	2, 0x656e
   10b66:	69660073          	.insn	4, 0x69660073
   10b6a:	7261                	.insn	2, 0x7261
   10b6c:	645f 6f72 5f70      	.insn	6, 0x5f706f72645f
   10b72:	6974                	.insn	2, 0x6974
   10b74:	656c                	.insn	2, 0x656c
   10b76:	203a                	.insn	2, 0x203a
   10b78:	6e6e6163          	bltu	t3,t1,1125a <total_width+0x316>
   10b7c:	6420746f          	jal	s0,181be <total_width+0x727a>
   10b80:	6f72                	.insn	2, 0x6f72
   10b82:	2070                	.insn	2, 0x2070
   10b84:	6974                	.insn	2, 0x6974
   10b86:	656c                	.insn	2, 0x656c
   10b88:	0000                	.insn	2, 0x
   10b8a:	0000                	.insn	2, 0x
   10b8c:	6e75                	.insn	2, 0x6e75
   10b8e:	6572                	.insn	2, 0x6572
   10b90:	6361                	.insn	2, 0x6361
   10b92:	6168                	.insn	2, 0x6168
   10b94:	6c62                	.insn	2, 0x6c62
   10b96:	0065                	.insn	2, 0x0065
   10b98:	72727563          	bgeu	tp,t2,112c2 <total_width+0x37e>
   10b9c:	6e65                	.insn	2, 0x6e65
   10b9e:	5f74                	.insn	2, 0x5f74
   10ba0:	6f62                	.insn	2, 0x6f62
   10ba2:	7261                	.insn	2, 0x7261
   10ba4:	2064                	.insn	2, 0x2064
   10ba6:	6f64                	.insn	2, 0x6f64
   10ba8:	7365                	.insn	2, 0x7365
   10baa:	276e                	.insn	2, 0x276e
   10bac:	2074                	.insn	2, 0x2074
   10bae:	7865                	.insn	2, 0x7865
   10bb0:	7369                	.insn	2, 0x7369
   10bb2:	0074                	.insn	2, 0x0074
   10bb4:	5f746567          	.insn	4, 0x5f746567
   10bb8:	5f6e6977          	.insn	4, 0x5f6e6977
   10bbc:	656d                	.insn	2, 0x656d
   10bbe:	67617373          	csrrc	t1,0x676,2
   10bc2:	3a65                	.insn	2, 0x3a65
   10bc4:	6720                	.insn	2, 0x6720
   10bc6:	6d61                	.insn	2, 0x6d61
   10bc8:	2065                	.insn	2, 0x2065
   10bca:	7369                	.insn	2, 0x7369
   10bcc:	7320                	.insn	2, 0x7320
   10bce:	6974                	.insn	2, 0x6974
   10bd0:	6c6c                	.insn	2, 0x6c6c
   10bd2:	7020                	.insn	2, 0x7020
   10bd4:	616c                	.insn	2, 0x616c
   10bd6:	6979                	.insn	2, 0x6979
   10bd8:	676e                	.insn	2, 0x676e
   10bda:	0000                	.insn	2, 0x
   10bdc:	656d6147          	.insn	4, 0x656d6147
   10be0:	4f20                	.insn	2, 0x4f20
   10be2:	6576                	.insn	2, 0x6576
   10be4:	3a72                	.insn	2, 0x3a72
   10be6:	4420                	.insn	2, 0x4420
   10be8:	6172                	.insn	2, 0x6172
   10bea:	61470077          	.insn	4, 0x61470077
   10bee:	656d                	.insn	2, 0x656d
   10bf0:	4f20                	.insn	2, 0x4f20
   10bf2:	6576                	.insn	2, 0x6576
   10bf4:	3a72                	.insn	2, 0x3a72
   10bf6:	5220                	.insn	2, 0x5220
   10bf8:	6465                	.insn	2, 0x6465
   10bfa:	5720                	.insn	2, 0x5720
   10bfc:	6e69                	.insn	2, 0x6e69
   10bfe:	61470073          	.insn	4, 0x61470073
   10c02:	656d                	.insn	2, 0x656d
   10c04:	4f20                	.insn	2, 0x4f20
   10c06:	6576                	.insn	2, 0x6576
   10c08:	3a72                	.insn	2, 0x3a72
   10c0a:	5920                	.insn	2, 0x5920
   10c0c:	6c65                	.insn	2, 0x6c65
   10c0e:	6f6c                	.insn	2, 0x6f6c
   10c10:	69572077          	.insn	4, 0x69572077
   10c14:	736e                	.insn	2, 0x736e
   10c16:	0000                	.insn	2, 0x
   10c18:	6572                	.insn	2, 0x6572
   10c1a:	646e                	.insn	2, 0x646e
   10c1c:	7265                	.insn	2, 0x7265
   10c1e:	765f 6369 6f74      	.insn	6, 0x6f746369765f
   10c24:	7972                	.insn	2, 0x7972
   10c26:	745f 7865 3a74      	.insn	6, 0x3a747865745f
   10c2c:	6d20                	.insn	2, 0x6d20
   10c2e:	7365                	.insn	2, 0x7365
   10c30:	65676173          	csrrs	sp,hviprio1h,14
   10c34:	6920                	.insn	2, 0x6920
   10c36:	756e2073          	csrs	0x756,t3
   10c3a:	6c6c                	.insn	2, 0x6c6c
   10c3c:	0000                	.insn	2, 0x
	...

00010c40 <offsets>:
   10c40:	0001                	.insn	2, 0x0001
   10c42:	0000                	.insn	2, 0x
   10c44:	ffff                	.insn	2, 0xffff
   10c46:	ffff                	.insn	2, 0xffff
   10c48:	0008                	.insn	2, 0x0008
   10c4a:	0000                	.insn	2, 0x
   10c4c:	fff8                	.insn	2, 0xfff8
   10c4e:	ffff                	.insn	2, 0xffff
   10c50:	00000007          	.insn	4, 0x0007
   10c54:	fff9                	.insn	2, 0xfff9
   10c56:	ffff                	.insn	2, 0xffff
   10c58:	0009                	.insn	2, 0x0009
   10c5a:	0000                	.insn	2, 0x
   10c5c:	fffffff7          	.insn	4, 0xfffffff7
   10c60:	72727563          	bgeu	tp,t2,1138a <total_width+0x446>
   10c64:	6e65                	.insn	2, 0x6e65
   10c66:	5f74                	.insn	2, 0x5f74
   10c68:	6f62                	.insn	2, 0x6f62
   10c6a:	7261                	.insn	2, 0x7261
   10c6c:	2064                	.insn	2, 0x2064
   10c6e:	6f64                	.insn	2, 0x6f64
   10c70:	7365                	.insn	2, 0x7365
   10c72:	276e                	.insn	2, 0x276e
   10c74:	2074                	.insn	2, 0x2074
   10c76:	7865                	.insn	2, 0x7865
   10c78:	7369                	.insn	2, 0x7369
   10c7a:	0074                	.insn	2, 0x0074
   10c7c:	002d                	.insn	2, 0x002d
   10c7e:	0000                	.insn	2, 0x
   10c80:	656d6147          	.insn	4, 0x656d6147
   10c84:	4f20                	.insn	2, 0x4f20
   10c86:	6576                	.insn	2, 0x6576
   10c88:	3a72                	.insn	2, 0x3a72
   10c8a:	0020                	.insn	2, 0x0020
   10c8c:	74696857          	.insn	4, 0x74696857
   10c90:	2065                	.insn	2, 0x2065
   10c92:	736e6957          	.insn	4, 0x736e6957
   10c96:	0000                	.insn	2, 0x
   10c98:	6c42                	.insn	2, 0x6c42
   10c9a:	6361                	.insn	2, 0x6361
   10c9c:	6957206b          	.insn	4, 0x6957206b
   10ca0:	736e                	.insn	2, 0x736e
   10ca2:	0000                	.insn	2, 0x
   10ca4:	7244                	.insn	2, 0x7244
   10ca6:	7761                	.insn	2, 0x7761
   10ca8:	0000                	.insn	2, 0x
   10caa:	0000                	.insn	2, 0x
   10cac:	726f6353          	.insn	4, 0x726f6353
   10cb0:	3a65                	.insn	2, 0x3a65
   10cb2:	0020                	.insn	2, 0x0020
   10cb4:	6c50                	.insn	2, 0x6c50
   10cb6:	7961                	.insn	2, 0x7961
   10cb8:	7265                	.insn	2, 0x7265
   10cba:	203a                	.insn	2, 0x203a
   10cbc:	0000                	.insn	2, 0x
   10cbe:	0000                	.insn	2, 0x
   10cc0:	74696857          	.insn	4, 0x74696857
   10cc4:	0065                	.insn	2, 0x0065
   10cc6:	0000                	.insn	2, 0x
   10cc8:	6c42                	.insn	2, 0x6c42
   10cca:	6361                	.insn	2, 0x6361
   10ccc:	0000006b          	.insn	4, 0x006b
   10cd0:	6c50                	.insn	2, 0x6c50
   10cd2:	7961                	.insn	2, 0x7961
   10cd4:	7265                	.insn	2, 0x7265
   10cd6:	203a                	.insn	2, 0x203a
   10cd8:	6c42                	.insn	2, 0x6c42
   10cda:	6361                	.insn	2, 0x6361
   10cdc:	0000006b          	.insn	4, 0x006b
   10ce0:	726f6353          	.insn	4, 0x726f6353
   10ce4:	3a65                	.insn	2, 0x3a65
   10ce6:	3520                	.insn	2, 0x3520
   10ce8:	2d35                	.insn	2, 0x2d35
   10cea:	3535                	.insn	2, 0x3535
   10cec:	0000                	.insn	2, 0x
	...

00010cf0 <knight_move_offsets>:
   10cf0:	ffffffef          	jal	t6,10cee <offsets+0xae>
   10cf4:	fff1                	.insn	2, 0xfff1
   10cf6:	ffff                	.insn	2, 0xffff
   10cf8:	fffa                	.insn	2, 0xfffa
   10cfa:	ffff                	.insn	2, 0xffff
   10cfc:	000a                	.insn	2, 0x000a
   10cfe:	0000                	.insn	2, 0x
   10d00:	0011                	.insn	2, 0x0011
   10d02:	0000                	.insn	2, 0x
   10d04:	0000000f          	fence	unknown,unknown
   10d08:	0006                	.insn	2, 0x0006
   10d0a:	0000                	.insn	2, 0x
   10d0c:	fff6                	.insn	2, 0xfff6
   10d0e:	ffff                	.insn	2, 0xffff

00010d10 <sliding_piece_move_offsets>:
   10d10:	fff9                	.insn	2, 0xfff9
   10d12:	ffff                	.insn	2, 0xffff
   10d14:	fffffff7          	.insn	4, 0xfffffff7
   10d18:	00000007          	.insn	4, 0x0007
   10d1c:	0009                	.insn	2, 0x0009
   10d1e:	0000                	.insn	2, 0x
   10d20:	fff8                	.insn	2, 0xfff8
   10d22:	ffff                	.insn	2, 0xffff
   10d24:	0001                	.insn	2, 0x0001
   10d26:	0000                	.insn	2, 0x
   10d28:	0008                	.insn	2, 0x0008
   10d2a:	0000                	.insn	2, 0x
   10d2c:	ffff                	.insn	2, 0xffff
   10d2e:	ffff                	.insn	2, 0xffff

00010d30 <king_move_offsets>:
   10d30:	0008                	.insn	2, 0x0008
   10d32:	0000                	.insn	2, 0x
   10d34:	0009                	.insn	2, 0x0009
   10d36:	0000                	.insn	2, 0x
   10d38:	0001                	.insn	2, 0x0001
   10d3a:	0000                	.insn	2, 0x
   10d3c:	fff9                	.insn	2, 0xfff9
   10d3e:	ffff                	.insn	2, 0xffff
   10d40:	fff8                	.insn	2, 0xfff8
   10d42:	ffff                	.insn	2, 0xffff
   10d44:	fffffff7          	.insn	4, 0xfffffff7
   10d48:	ffff                	.insn	2, 0xffff
   10d4a:	ffff                	.insn	2, 0xffff
   10d4c:	00000007          	.insn	4, 0x0007
   10d50:	bec8                	.insn	2, 0xbec8
   10d52:	0000                	.insn	2, 0x
   10d54:	bed8                	.insn	2, 0xbed8
   10d56:	0000                	.insn	2, 0x
   10d58:	bee8                	.insn	2, 0xbee8
   10d5a:	0000                	.insn	2, 0x
   10d5c:	bee8                	.insn	2, 0xbee8
   10d5e:	0000                	.insn	2, 0x
   10d60:	befc                	.insn	2, 0xbefc
   10d62:	0000                	.insn	2, 0x
   10d64:	bf20                	.insn	2, 0xbf20
	...

00010d68 <black_start_position>:
   10d68:	ff00                	.insn	2, 0xff00
   10d6a:	0000                	.insn	2, 0x
   10d6c:	0000                	.insn	2, 0x
   10d6e:	0000                	.insn	2, 0x
   10d70:	0042                	.insn	2, 0x0042
   10d72:	0000                	.insn	2, 0x
   10d74:	0000                	.insn	2, 0x
   10d76:	0000                	.insn	2, 0x
   10d78:	0024                	.insn	2, 0x0024
   10d7a:	0000                	.insn	2, 0x
   10d7c:	0000                	.insn	2, 0x
   10d7e:	0000                	.insn	2, 0x
   10d80:	0081                	.insn	2, 0x0081
   10d82:	0000                	.insn	2, 0x
   10d84:	0000                	.insn	2, 0x
   10d86:	0000                	.insn	2, 0x
   10d88:	0008                	.insn	2, 0x0008
   10d8a:	0000                	.insn	2, 0x
   10d8c:	0000                	.insn	2, 0x
   10d8e:	0000                	.insn	2, 0x
   10d90:	0010                	.insn	2, 0x0010
   10d92:	0000                	.insn	2, 0x
   10d94:	0000                	.insn	2, 0x
	...

00010d98 <white_start_position>:
   10d98:	0000                	.insn	2, 0x
   10d9a:	0000                	.insn	2, 0x
   10d9c:	0000                	.insn	2, 0x
   10d9e:	00ff 0000 0000 0000 	.insn	10, 0x420000000000000000ff
   10da6:	4200 
   10da8:	0000                	.insn	2, 0x
   10daa:	0000                	.insn	2, 0x
   10dac:	0000                	.insn	2, 0x
   10dae:	2400                	.insn	2, 0x2400
   10db0:	0000                	.insn	2, 0x
   10db2:	0000                	.insn	2, 0x
   10db4:	0000                	.insn	2, 0x
   10db6:	8100                	.insn	2, 0x8100
   10db8:	0000                	.insn	2, 0x
   10dba:	0000                	.insn	2, 0x
   10dbc:	0000                	.insn	2, 0x
   10dbe:	0800                	.insn	2, 0x0800
   10dc0:	0000                	.insn	2, 0x
   10dc2:	0000                	.insn	2, 0x
   10dc4:	0000                	.insn	2, 0x
   10dc6:	1000                	.insn	2, 0x1000
   10dc8:	c694                	.insn	2, 0xc694
   10dca:	0000                	.insn	2, 0x
   10dcc:	c6a0                	.insn	2, 0xc6a0
   10dce:	0000                	.insn	2, 0x
   10dd0:	c6ac                	.insn	2, 0xc6ac
   10dd2:	0000                	.insn	2, 0x
   10dd4:	c6b8                	.insn	2, 0xc6b8
   10dd6:	0000                	.insn	2, 0x
   10dd8:	c6c4                	.insn	2, 0xc6c4
   10dda:	0000                	.insn	2, 0x
   10ddc:	c6d0                	.insn	2, 0xc6d0
   10dde:	0000                	.insn	2, 0x
   10de0:	74696857          	.insn	4, 0x74696857
   10de4:	7365                	.insn	2, 0x7365
   10de6:	7420                	.insn	2, 0x7420
   10de8:	7275                	.insn	2, 0x7275
   10dea:	006e                	.insn	2, 0x006e
   10dec:	6c42                	.insn	2, 0x6c42
   10dee:	6361                	.insn	2, 0x6361
   10df0:	7420736b          	.insn	4, 0x7420736b
   10df4:	7275                	.insn	2, 0x7275
   10df6:	006e                	.insn	2, 0x006e
   10df8:	74696857          	.insn	4, 0x74696857
   10dfc:	2065                	.insn	2, 0x2065
   10dfe:	7270                	.insn	2, 0x7270
   10e00:	746f6d6f          	jal	s10,107546 <__stack_size+0x7546>
   10e04:	6e69                	.insn	2, 0x6e69
   10e06:	6c420067          	jr	1732(tp) # 6c4 <handle_exception+0xc8>
   10e0a:	6361                	.insn	2, 0x6361
   10e0c:	7270206b          	.insn	4, 0x7270206b
   10e10:	746f6d6f          	jal	s10,107556 <__stack_size+0x7556>
   10e14:	6e69                	.insn	2, 0x6e69
   10e16:	68570067          	jr	1669(a4)
   10e1a:	7469                	.insn	2, 0x7469
   10e1c:	2065                	.insn	2, 0x2065
   10e1e:	736e6977          	.insn	4, 0x736e6977
   10e22:	0000                	.insn	2, 0x
   10e24:	6c42                	.insn	2, 0x6c42
   10e26:	6361                	.insn	2, 0x6361
   10e28:	6977206b          	.insn	4, 0x6977206b
   10e2c:	736e                	.insn	2, 0x736e
   10e2e:	0000                	.insn	2, 0x
   10e30:	7244                	.insn	2, 0x7244
   10e32:	7761                	.insn	2, 0x7761
   10e34:	0000                	.insn	2, 0x
   10e36:	0000                	.insn	2, 0x
   10e38:	d4f8                	.insn	2, 0xd4f8
   10e3a:	0000                	.insn	2, 0x
   10e3c:	d5e4                	.insn	2, 0xd5e4
   10e3e:	0000                	.insn	2, 0x
   10e40:	d5a8                	.insn	2, 0xd5a8
   10e42:	0000                	.insn	2, 0x
   10e44:	d620                	.insn	2, 0xd620
   10e46:	0000                	.insn	2, 0x
   10e48:	d550                	.insn	2, 0xd550
   10e4a:	0000                	.insn	2, 0x
   10e4c:	6f50                	.insn	2, 0x6f50
   10e4e:	6e69                	.insn	2, 0x6e69
   10e50:	7374                	.insn	2, 0x7374
   10e52:	203a                	.insn	2, 0x203a
   10e54:	0000                	.insn	2, 0x
   10e56:	0000                	.insn	2, 0x
   10e58:	656d6147          	.insn	4, 0x656d6147
   10e5c:	4f20                	.insn	2, 0x4f20
   10e5e:	6576                	.insn	2, 0x6576
   10e60:	0072                	.insn	2, 0x0072

Disassembly of section .srodata:

00010e68 <__modulus>:
   10e68:	ffff                	.insn	2, 0xffff
   10e6a:	7fff                	.insn	2, 0x7fff

00010e6c <__multiplier>:
   10e6c:	4e6d                	.insn	2, 0x4e6d
   10e6e:	41c6                	.insn	2, 0x41c6

00010e70 <__increment>:
   10e70:	3039                	.insn	2, 0x3039
   10e72:	0000                	.insn	2, 0x
   10e74:	0000                	.insn	2, 0x
	...

00010e78 <SPRITE_CHECKERS_STAR>:
   10e78:	1800                	.insn	2, 0x1800
   10e7a:	ff18                	.insn	2, 0xff18
   10e7c:	3c7e                	.insn	2, 0x3c7e
   10e7e:	e77e                	.insn	2, 0xe77e

00010e80 <COLOR_BACKGROUND>:
   10e80:	                	.insn	2, 0x1008

00010e81 <COLOR_BACKGROUND_MISSING_CARD>:
   10e81:	                	.insn	2, 0xb710

00010e82 <COLOR_CARD_FACE_UP_BORDER>:
   10e82:	          	lui	t6,0xa0fff

00010e83 <COLOR_CARD_FACE_UP_FILL>:
   10e83:	                	.insn	2, 0xffff

00010e84 <COLOR_CARD_FACE_DOWN_BORDER>:
   10e84:	    	.insn	14, 0x0006000000280000001ee000a0ff
   10e8c:	   

00010e85 <COLOR_CARD_FACE_DOWN_FILL>:
   10e85:	                	.insn	2, 0x00a0

00010e86 <COLOR_TEXT_BLACK>:
	...

00010e87 <COLOR_TEXT_RED>:
   10e87:	                	.insn	2, 0x1ee0

00010e88 <CARD_WIDTH>:
   10e88:	001e                	.insn	2, 0x001e
	...

00010e8c <CARD_HEIGHT>:
   10e8c:	0028                	.insn	2, 0x0028
	...

00010e90 <MARGIN_TO_EDGE>:
   10e90:	0006                	.insn	2, 0x0006
	...

00010e94 <COLOR_BLACK>:
	...

00010e95 <COLOR_WHITE>:
   10e95:	  	.insn	12, 0x80c49249c4d96dda910091ff
   10e9d:	 

00010e96 <COLOR_BACKGROUND>:
   10e96:	                	.insn	2, 0x0091

00010e97 <COLOR_TEXT>:
	...

00010e98 <COLOR_BACKGROUND>:
   10e98:	                	.insn	2, 0xda91

00010e99 <COLOR_TILE_LIGHT>:
   10e99:	                	.insn	2, 0x6dda

00010e9a <COLOR_TILE_DARK>:
   10e9a:	                	.insn	2, 0xd96d

00010e9b <COLOR_TILE_SELECTED>:
   10e9b:	                	.insn	2, 0xc4d9

00010e9c <COLOR_TILE_HIGHLIGHTED>:
   10e9c:	                	.insn	2, 0x49c4

00010e9d <COLOR_TILE_AVAILABLE_DARK>:
   10e9d:	                	.insn	2, 0x9249

00010e9e <COLOR_TILE_AVAILABLE_LIGHT>:
   10e9e:	                	.insn	2, 0xc492

00010e9f <COLOR_PLAYER_RED_LIGHT>:
   10e9f:	                	.insn	2, 0x80c4

00010ea0 <COLOR_PLAYER_RED_DARK>:
   10ea0:	                	.insn	2, 0x4980

00010ea1 <COLOR_PLAYER_BLACK_LIGHT>:
   10ea1:	                	.insn	2, 0x0049

00010ea2 <COLOR_PLAYER_BLACK_DARK>:
	...

00010ea3 <COLOR_TEXT>:
	...

00010ea4 <COLOR_BLACK>:
   10ea4:	0000                	.insn	2, 0x
	...

00010ea8 <tile_size>:
   10ea8:	0018                	.insn	2, 0x0018
	...

00010eac <width>:
   10eac:	0008                	.insn	2, 0x0008
	...

00010eb0 <height>:
   10eb0:	0008                	.insn	2, 0x0008
	...

00010eb4 <total_size_width>:
   10eb4:	00c0                	.insn	2, 0x00c0
	...

00010eb8 <total_size_height>:
   10eb8:	00c0                	.insn	2, 0x00c0
	...

00010ebc <offset_x>:
   10ebc:	0040                	.insn	2, 0x0040
	...

00010ec0 <offset_y>:
   10ec0:	0018                	.insn	2, 0x0018
	...

00010ec4 <COLOR_BACKGROUND>:
   10ec4:	                	.insn	2, 0x130e

00010ec5 <COLOR_TILE_BACKGROUND>:
   10ec5:	          	or	zero,s9,15

00010ec6 <COLOR_PLAYER_RED>:
   10ec6:	                	.insn	2, 0xfce0

00010ec7 <COLOR_PLAYER_YELLOW>:
   10ec7:	                	.insn	2, 0x00fc

00010ec8 <COLOR_BORDER>:
	...

00010ec9 <COLOR_TEXT>:
   10ec9:	0000                	.insn	2, 0x
	...

00010ecc <tile_size>:
   10ecc:	0018                	.insn	2, 0x0018
	...

00010ed0 <width>:
   10ed0:	00000007          	.insn	4, 0x0007

00010ed4 <height>:
   10ed4:	0006                	.insn	2, 0x0006
	...

00010ed8 <total_size_width>:
   10ed8:	00a2                	.insn	2, 0x00a2
	...

00010edc <total_size_height>:
   10edc:	0000008b          	.insn	4, 0x008b

00010ee0 <offset_x>:
   10ee0:	0000004f          	.insn	4, 0x004f

00010ee4 <offset_y>:
   10ee4:	0032                	.insn	2, 0x0032
	...

00010ee8 <COLOR_BACKGROUND>:
   10ee8:	                	.insn	2, 0x1008

00010ee9 <COLOR_TILE_BACKGROUND>:
   10ee9:	                	.insn	2, 0x1c10

00010eea <COLOR_AVAILABLE>:
   10eea:	                	.insn	2, 0x001c

00010eeb <COLOR_BLACK>:
	...

00010eec <COLOR_WHITE>:
   10eec:	    	.insn	10, 0x0043000000b900fc00ff
   10ef4:	 

00010eed <COLOR_BORDER>:
	...

00010eee <COLOR_BORDER_SELECTED>:
   10eee:	00fc                	.insn	2, 0x00fc

00010ef0 <total_size>:
   10ef0:	00b9                	.insn	2, 0x00b9
	...

00010ef4 <offset_x>:
   10ef4:	00000043          	.insn	4, 0x0043

00010ef8 <offset_y>:
   10ef8:	0000001b          	.insn	4, 0x001b

00010efc <tile_size>:
   10efc:	0018                	.insn	2, 0x0018
	...

00010f00 <COLOR_BLACK>:
	...

00010f01 <COLOR_BACKGROUND>:
   10f01:	                	.insn	2, 0xda91

00010f02 <COLOR_TILE_WHITE_BACKGROUND>:
   10f02:	                	.insn	2, 0x6dda

00010f03 <COLOR_TILE_BLACK_BACKGROUND>:
   10f03:	                	.insn	2, 0xc46d

00010f04 <COLOR_TILE_HIGHLIGHTED>:
   10f04:	                	.insn	2, 0xd9c4

00010f05 <COLOR_TILE_SELECTED>:
   10f05:	                	.insn	2, 0x49d9

00010f06 <COLOR_TILE_AVAILABLE_DARK>:
   10f06:	                	.insn	2, 0x9249

00010f07 <COLOR_TILE_AVAILABLE_LIGHT>:
   10f07:	                	.insn	2, 0x4992

00010f08 <COLOR_PIECE_BLACK_LIGHT>:
   10f08:	                	.insn	2, 0x0049

00010f09 <COLOR_PIECE_BLACK_DARK>:
	...

00010f0a <COLOR_PIECE_WHITE_LIGHT>:
   10f0a:	  	.insn	16, 0x00c0000000080000000800000018b7ff
   10f12:	  

00010f0b <COLOR_PIECE_WHITE_DARK>:
   10f0b:	          	lui	a7,0x1

00010f0c <tile_size>:
   10f0c:	0018                	.insn	2, 0x0018
	...

00010f10 <width>:
   10f10:	0008                	.insn	2, 0x0008
	...

00010f14 <height>:
   10f14:	0008                	.insn	2, 0x0008
	...

00010f18 <total_size_width>:
   10f18:	00c0                	.insn	2, 0x00c0
	...

00010f1c <total_size_height>:
   10f1c:	00c0                	.insn	2, 0x00c0
	...

00010f20 <offset_x>:
   10f20:	0040                	.insn	2, 0x0040
	...

00010f24 <offset_y>:
   10f24:	0018                	.insn	2, 0x0018
	...

00010f28 <COLOR_BACKGROUND>:
	...

00010f29 <COLOR_BOARD_BACKGROUND>:
   10f29:	                	.insn	2, 0xff6e

00010f2a <COLOR_SNAKE>:
   10f2a:	    	.insn	22, 0xffa01425000000280000005000000008000000ffe0ff
   10f32:	    
   10f3a:	   

00010f2b <COLOR_FOOD>:
   10f2b:	                	.insn	2, 0xffe0

00010f2c <COLOR_TEXT>:
   10f2c:	00ff 0000   	.insn	10, 0x005000000008000000ff
   10f34:	 

00010f30 <SNAKE_GRID_SIZE>:
   10f30:	0008                	.insn	2, 0x0008
	...

00010f34 <OFFSET_X>:
   10f34:	0050                	.insn	2, 0x0050
	...

00010f38 <OFFSET_Y>:
   10f38:	0028                	.insn	2, 0x0028
	...

00010f3c <COLOR_BACKGROUND>:
   10f3c:	                	.insn	2, 0x1425

00010f3d <COLOR_BIT_SET>:
   10f3d:	                	.insn	2, 0xa014

00010f3e <COLOR_BIT_UNSET>:
   10f3e:	                	.insn	2, 0xffa0

00010f3f <COLOR_TEXT>:
   10f3f:	Address 0x10f3f is out of bounds.


00010f40 <margin>:
   10f40:	000a                	.insn	2, 0x000a
	...

00010f44 <total_width>:
   10f44:	00e6                	.insn	2, 0x00e6
	...

Disassembly of section .comment:

00000000 <.comment>:
   0:	3a434347          	.insn	4, 0x3a434347
   4:	2820                	.insn	2, 0x2820
   6:	39386367          	.insn	4, 0x39386367
   a:	6431                	.insn	2, 0x6431
   c:	6438                	.insn	2, 0x6438
   e:	20293263          	.insn	4, 0x20293263
  12:	3331                	.insn	2, 0x3331
  14:	322e                	.insn	2, 0x322e
  16:	302e                	.insn	2, 0x302e
	...

Disassembly of section .riscv.attributes:

00000000 <.riscv.attributes>:
   0:	3641                	.insn	2, 0x3641
   2:	0000                	.insn	2, 0x
   4:	7200                	.insn	2, 0x7200
   6:	7369                	.insn	2, 0x7369
   8:	01007663          	bgeu	zero,a6,14 <_isr_routine+0xc>
   c:	002c                	.insn	2, 0x002c
   e:	0000                	.insn	2, 0x
  10:	1004                	.insn	2, 0x1004
  12:	7205                	.insn	2, 0x7205
  14:	3376                	.insn	2, 0x3376
  16:	6932                	.insn	2, 0x6932
  18:	7032                	.insn	2, 0x7032
  1a:	5f31                	.insn	2, 0x5f31
  1c:	326d                	.insn	2, 0x326d
  1e:	3070                	.insn	2, 0x3070
  20:	7a5f 6369 7273      	.insn	6, 0x727363697a5f
  26:	7032                	.insn	2, 0x7032
  28:	5f30                	.insn	2, 0x5f30
  2a:	6d7a                	.insn	2, 0x6d7a
  2c:	756d                	.insn	2, 0x756d
  2e:	316c                	.insn	2, 0x316c
  30:	3070                	.insn	2, 0x3070
  32:	0800                	.insn	2, 0x0800
  34:	0a01                	.insn	2, 0x0a01
  36:	Address 0x36 is out of bounds.

