bin/dtekv-riscv.elf:     file format elf32-littleriscv


Disassembly of section .text:

00000000 <_isr_handler>:
       0:	0080006f          	j	8 <_isr_routine>
       4:	1440006f          	j	148 <_start>

00000008 <_isr_routine>:
       8:	f8010113          	add	sp,sp,-128
       c:	00112023          	sw	ra,0(sp)
      10:	00312423          	sw	gp,8(sp)
      14:	00412623          	sw	tp,12(sp)
      18:	00512823          	sw	t0,16(sp)
      1c:	00612a23          	sw	t1,20(sp)
      20:	00712c23          	sw	t2,24(sp)
      24:	00812e23          	sw	s0,28(sp)
      28:	02912023          	sw	s1,32(sp)
      2c:	02a12223          	sw	a0,36(sp)
      30:	02b12423          	sw	a1,40(sp)
      34:	02c12623          	sw	a2,44(sp)
      38:	02d12823          	sw	a3,48(sp)
      3c:	02e12a23          	sw	a4,52(sp)
      40:	02f12c23          	sw	a5,56(sp)
      44:	03012e23          	sw	a6,60(sp)
      48:	05112023          	sw	a7,64(sp)
      4c:	05212223          	sw	s2,68(sp)
      50:	05312423          	sw	s3,72(sp)
      54:	05412623          	sw	s4,76(sp)
      58:	05512823          	sw	s5,80(sp)
      5c:	05612a23          	sw	s6,84(sp)
      60:	05712c23          	sw	s7,88(sp)
      64:	05812e23          	sw	s8,92(sp)
      68:	07912023          	sw	s9,96(sp)
      6c:	07a12223          	sw	s10,100(sp)
      70:	07b12423          	sw	s11,104(sp)
      74:	07c12623          	sw	t3,108(sp)
      78:	07d12823          	sw	t4,112(sp)
      7c:	07e12a23          	sw	t5,116(sp)
      80:	07f12c23          	sw	t6,120(sp)
      84:	342022f3          	csrr	t0,mcause
      88:	80000337          	lui	t1,0x80000
      8c:	02536463          	bltu	t1,t0,b4 <external_irq>
      90:	00028833          	add	a6,t0,zero
      94:	00b00313          	li	t1,11
      98:	00628463          	beq	t0,t1,a0 <skip_init_args>
      9c:	34102573          	csrr	a0,mepc

000000a0 <skip_init_args>:
      a0:	55c000ef          	jal	5fc <handle_exception>
      a4:	341022f3          	csrr	t0,mepc
      a8:	00428293          	add	t0,t0,4
      ac:	34129073          	csrw	mepc,t0
      b0:	0180006f          	j	c8 <restore>

000000b4 <external_irq>:
      b4:	800002b7          	lui	t0,0x80000
      b8:	fff28293          	add	t0,t0,-1 # 7fffffff <_stack_end+0x7feef0b7>
      bc:	34202373          	csrr	t1,mcause
      c0:	0062f533          	and	a0,t0,t1
      c4:	2f8000ef          	jal	3bc <handle_interrupt>

000000c8 <restore>:
      c8:	00012083          	lw	ra,0(sp)
      cc:	00812183          	lw	gp,8(sp)
      d0:	00c12203          	lw	tp,12(sp)
      d4:	01012283          	lw	t0,16(sp)
      d8:	01412303          	lw	t1,20(sp)
      dc:	01812383          	lw	t2,24(sp)
      e0:	01c12403          	lw	s0,28(sp)
      e4:	02012483          	lw	s1,32(sp)
      e8:	02412503          	lw	a0,36(sp)
      ec:	02812583          	lw	a1,40(sp)
      f0:	02c12603          	lw	a2,44(sp)
      f4:	03012683          	lw	a3,48(sp)
      f8:	03412703          	lw	a4,52(sp)
      fc:	03812783          	lw	a5,56(sp)
     100:	03c12803          	lw	a6,60(sp)
     104:	04012883          	lw	a7,64(sp)
     108:	04412903          	lw	s2,68(sp)
     10c:	04812983          	lw	s3,72(sp)
     110:	04c12a03          	lw	s4,76(sp)
     114:	05012a83          	lw	s5,80(sp)
     118:	05412b03          	lw	s6,84(sp)
     11c:	05812b83          	lw	s7,88(sp)
     120:	05c12c03          	lw	s8,92(sp)
     124:	06012c83          	lw	s9,96(sp)
     128:	06412d03          	lw	s10,100(sp)
     12c:	06812d83          	lw	s11,104(sp)
     130:	06c12e03          	lw	t3,108(sp)
     134:	07012e83          	lw	t4,112(sp)
     138:	07412f03          	lw	t5,116(sp)
     13c:	07812f83          	lw	t6,120(sp)
     140:	08010113          	add	sp,sp,128
     144:	30200073          	mret

00000148 <_start>:
     148:	00111117          	auipc	sp,0x111
     14c:	e0010113          	add	sp,sp,-512 # 110f48 <_stack_end>
     150:	0000f197          	auipc	gp,0xf
     154:	f5418193          	add	gp,gp,-172 # f0a4 <__global_pointer>
     158:	0000e517          	auipc	a0,0xe
     15c:	6a850513          	add	a0,a0,1704 # e800 <welcome_msg>
     160:	00400893          	li	a7,4
     164:	00000073          	ecall
     168:	59c000ef          	jal	704 <main>

0000016c <loop>:
     16c:	0000006f          	j	16c <loop>

00000170 <enable_interrupt>:
     170:	30486073          	csrs	mie,16
     174:	3048e073          	csrs	mie,17
     178:	30496073          	csrs	mie,18
     17c:	3001e073          	csrs	mstatus,3
     180:	00000297          	auipc	t0,0x0
     184:	e8028293          	add	t0,t0,-384 # 0 <_isr_handler>
     188:	30529073          	csrw	mtvec,t0
     18c:	00008067          	ret

00000190 <strcpy>:
     190:	fd010113          	add	sp,sp,-48
     194:	02812623          	sw	s0,44(sp)
     198:	03010413          	add	s0,sp,48
     19c:	fca42e23          	sw	a0,-36(s0)
     1a0:	fcb42c23          	sw	a1,-40(s0)
     1a4:	fe042623          	sw	zero,-20(s0)
     1a8:	0300006f          	j	1d8 <strcpy+0x48>
     1ac:	fec42783          	lw	a5,-20(s0)
     1b0:	fd842703          	lw	a4,-40(s0)
     1b4:	00f70733          	add	a4,a4,a5
     1b8:	fec42783          	lw	a5,-20(s0)
     1bc:	fdc42683          	lw	a3,-36(s0)
     1c0:	00f687b3          	add	a5,a3,a5
     1c4:	00074703          	lbu	a4,0(a4)
     1c8:	00e78023          	sb	a4,0(a5)
     1cc:	fec42783          	lw	a5,-20(s0)
     1d0:	00178793          	add	a5,a5,1
     1d4:	fef42623          	sw	a5,-20(s0)
     1d8:	fec42783          	lw	a5,-20(s0)
     1dc:	fd842703          	lw	a4,-40(s0)
     1e0:	00f707b3          	add	a5,a4,a5
     1e4:	0007c783          	lbu	a5,0(a5)
     1e8:	fc0792e3          	bnez	a5,1ac <strcpy+0x1c>
     1ec:	fec42783          	lw	a5,-20(s0)
     1f0:	fdc42703          	lw	a4,-36(s0)
     1f4:	00f707b3          	add	a5,a4,a5
     1f8:	00078023          	sb	zero,0(a5)
     1fc:	fdc42783          	lw	a5,-36(s0)
     200:	00078513          	mv	a0,a5
     204:	02c12403          	lw	s0,44(sp)
     208:	03010113          	add	sp,sp,48
     20c:	00008067          	ret

00000210 <memcpy>:
     210:	fd010113          	add	sp,sp,-48
     214:	02812623          	sw	s0,44(sp)
     218:	03010413          	add	s0,sp,48
     21c:	fca42e23          	sw	a0,-36(s0)
     220:	fcb42c23          	sw	a1,-40(s0)
     224:	fcc42a23          	sw	a2,-44(s0)
     228:	fe042623          	sw	zero,-20(s0)
     22c:	0300006f          	j	25c <memcpy+0x4c>
     230:	fd842703          	lw	a4,-40(s0)
     234:	fec42783          	lw	a5,-20(s0)
     238:	00f70733          	add	a4,a4,a5
     23c:	fdc42683          	lw	a3,-36(s0)
     240:	fec42783          	lw	a5,-20(s0)
     244:	00f687b3          	add	a5,a3,a5
     248:	00074703          	lbu	a4,0(a4)
     24c:	00e78023          	sb	a4,0(a5)
     250:	fec42783          	lw	a5,-20(s0)
     254:	00178793          	add	a5,a5,1
     258:	fef42623          	sw	a5,-20(s0)
     25c:	fec42703          	lw	a4,-20(s0)
     260:	fd442783          	lw	a5,-44(s0)
     264:	fcf766e3          	bltu	a4,a5,230 <memcpy+0x20>
     268:	fdc42783          	lw	a5,-36(s0)
     26c:	00078513          	mv	a0,a5
     270:	02c12403          	lw	s0,44(sp)
     274:	03010113          	add	sp,sp,48
     278:	00008067          	ret

0000027c <memset>:
     27c:	fd010113          	add	sp,sp,-48
     280:	02812623          	sw	s0,44(sp)
     284:	03010413          	add	s0,sp,48
     288:	fca42e23          	sw	a0,-36(s0)
     28c:	fcb42c23          	sw	a1,-40(s0)
     290:	fcc42a23          	sw	a2,-44(s0)
     294:	fe042623          	sw	zero,-20(s0)
     298:	0280006f          	j	2c0 <memset+0x44>
     29c:	fdc42703          	lw	a4,-36(s0)
     2a0:	fec42783          	lw	a5,-20(s0)
     2a4:	00f707b3          	add	a5,a4,a5
     2a8:	fd842703          	lw	a4,-40(s0)
     2ac:	0ff77713          	zext.b	a4,a4
     2b0:	00e78023          	sb	a4,0(a5)
     2b4:	fec42783          	lw	a5,-20(s0)
     2b8:	00178793          	add	a5,a5,1
     2bc:	fef42623          	sw	a5,-20(s0)
     2c0:	fec42703          	lw	a4,-20(s0)
     2c4:	fd442783          	lw	a5,-44(s0)
     2c8:	fcf76ae3          	bltu	a4,a5,29c <memset+0x20>
     2cc:	fdc42783          	lw	a5,-36(s0)
     2d0:	00078513          	mv	a0,a5
     2d4:	02c12403          	lw	s0,44(sp)
     2d8:	03010113          	add	sp,sp,48
     2dc:	00008067          	ret

000002e0 <abs>:
     2e0:	fe010113          	add	sp,sp,-32
     2e4:	00812e23          	sw	s0,28(sp)
     2e8:	02010413          	add	s0,sp,32
     2ec:	fea42623          	sw	a0,-20(s0)
     2f0:	fec42783          	lw	a5,-20(s0)
     2f4:	41f7d713          	sra	a4,a5,0x1f
     2f8:	fec42783          	lw	a5,-20(s0)
     2fc:	00f747b3          	xor	a5,a4,a5
     300:	40e787b3          	sub	a5,a5,a4
     304:	00078513          	mv	a0,a5
     308:	01c12403          	lw	s0,28(sp)
     30c:	02010113          	add	sp,sp,32
     310:	00008067          	ret

00000314 <rand>:
     314:	ff010113          	add	sp,sp,-16
     318:	00812623          	sw	s0,12(sp)
     31c:	01010413          	add	s0,sp,16
     320:	41c657b7          	lui	a5,0x41c65
     324:	e6d78713          	add	a4,a5,-403 # 41c64e6d <_stack_end+0x41b53f25>
     328:	0000f7b7          	lui	a5,0xf
     32c:	8bc7a783          	lw	a5,-1860(a5) # e8bc <__state>
     330:	02f70733          	mul	a4,a4,a5
     334:	000037b7          	lui	a5,0x3
     338:	03978793          	add	a5,a5,57 # 3039 <render_card_border+0x105>
     33c:	00f70733          	add	a4,a4,a5
     340:	800007b7          	lui	a5,0x80000
     344:	fff78793          	add	a5,a5,-1 # 7fffffff <_stack_end+0x7feef0b7>
     348:	02f77733          	remu	a4,a4,a5
     34c:	0000f7b7          	lui	a5,0xf
     350:	8ae7ae23          	sw	a4,-1860(a5) # e8bc <__state>
     354:	0000f7b7          	lui	a5,0xf
     358:	8bc7a783          	lw	a5,-1860(a5) # e8bc <__state>
     35c:	00078513          	mv	a0,a5
     360:	00c12403          	lw	s0,12(sp)
     364:	01010113          	add	sp,sp,16
     368:	00008067          	ret

0000036c <srand>:
     36c:	fe010113          	add	sp,sp,-32
     370:	00812e23          	sw	s0,28(sp)
     374:	02010413          	add	s0,sp,32
     378:	fea42623          	sw	a0,-20(s0)
     37c:	0000f7b7          	lui	a5,0xf
     380:	fec42703          	lw	a4,-20(s0)
     384:	8ae7ac23          	sw	a4,-1864(a5) # e8b8 <__seed>
     388:	0000f7b7          	lui	a5,0xf
     38c:	8b87a783          	lw	a5,-1864(a5) # e8b8 <__seed>
     390:	00079863          	bnez	a5,3a0 <srand+0x34>
     394:	0000f7b7          	lui	a5,0xf
     398:	00100713          	li	a4,1
     39c:	8ae7ac23          	sw	a4,-1864(a5) # e8b8 <__seed>
     3a0:	0000f7b7          	lui	a5,0xf
     3a4:	fec42703          	lw	a4,-20(s0)
     3a8:	8ae7ae23          	sw	a4,-1860(a5) # e8bc <__state>
     3ac:	00000013          	nop
     3b0:	01c12403          	lw	s0,28(sp)
     3b4:	02010113          	add	sp,sp,32
     3b8:	00008067          	ret

000003bc <handle_interrupt>:
     3bc:	fd010113          	add	sp,sp,-48
     3c0:	02112623          	sw	ra,44(sp)
     3c4:	02812423          	sw	s0,40(sp)
     3c8:	03010413          	add	s0,sp,48
     3cc:	fca42e23          	sw	a0,-36(s0)
     3d0:	0000f7b7          	lui	a5,0xf
     3d4:	8a47a783          	lw	a5,-1884(a5) # e8a4 <main_state>
     3d8:	00178793          	add	a5,a5,1
     3dc:	00900713          	li	a4,9
     3e0:	1cf76063          	bltu	a4,a5,5a0 <handle_interrupt+0x1e4>
     3e4:	00279713          	sll	a4,a5,0x2
     3e8:	000107b7          	lui	a5,0x10
     3ec:	d0078793          	add	a5,a5,-768 # fd00 <last_board+0x4>
     3f0:	00f707b3          	add	a5,a4,a5
     3f4:	0007a783          	lw	a5,0(a5)
     3f8:	00078067          	jr	a5
     3fc:	fdc42503          	lw	a0,-36(s0)
     400:	2b0030ef          	jal	36b0 <main_menu_handle_interrupt>
     404:	00050793          	mv	a5,a0
     408:	fef42623          	sw	a5,-20(s0)
     40c:	fec42703          	lw	a4,-20(s0)
     410:	fff00793          	li	a5,-1
     414:	14f70863          	beq	a4,a5,564 <handle_interrupt+0x1a8>
     418:	fec42703          	lw	a4,-20(s0)
     41c:	0000f7b7          	lui	a5,0xf
     420:	8ae7a223          	sw	a4,-1884(a5) # e8a4 <main_state>
     424:	694080ef          	jal	8ab8 <othello_handler_reset>
     428:	0b40c0ef          	jal	c4dc <chess_handler_reset>
     42c:	595060ef          	jal	71c0 <fiar_handler_reset>
     430:	378050ef          	jal	57a8 <checkers_handler_reset>
     434:	17d020ef          	jal	2db0 <solitaire_handler_reset>
     438:	0e40e0ef          	jal	e51c <bt_handler_reset>
     43c:	025070ef          	jal	7c60 <tetris_handler_reset>
     440:	2a50d0ef          	jal	dee4 <snake_handler_reset>
     444:	1200006f          	j	564 <handle_interrupt+0x1a8>
     448:	fdc42503          	lw	a0,-36(s0)
     44c:	3ec080ef          	jal	8838 <othello_handle_interrupt>
     450:	00050793          	mv	a5,a0
     454:	10078c63          	beqz	a5,56c <handle_interrupt+0x1b0>
     458:	0000f7b7          	lui	a5,0xf
     45c:	fff00713          	li	a4,-1
     460:	8ae7a223          	sw	a4,-1884(a5) # e8a4 <main_state>
     464:	388030ef          	jal	37ec <main_menu_handler_reset>
     468:	1040006f          	j	56c <handle_interrupt+0x1b0>
     46c:	fdc42503          	lw	a0,-36(s0)
     470:	7090b0ef          	jal	c378 <chess_handle_interrupt>
     474:	00050793          	mv	a5,a0
     478:	0e078e63          	beqz	a5,574 <handle_interrupt+0x1b8>
     47c:	0000f7b7          	lui	a5,0xf
     480:	fff00713          	li	a4,-1
     484:	8ae7a223          	sw	a4,-1884(a5) # e8a4 <main_state>
     488:	364030ef          	jal	37ec <main_menu_handler_reset>
     48c:	0e80006f          	j	574 <handle_interrupt+0x1b8>
     490:	fdc42503          	lw	a0,-36(s0)
     494:	439060ef          	jal	70cc <fiar_handle_interrupt>
     498:	00050793          	mv	a5,a0
     49c:	0e078063          	beqz	a5,57c <handle_interrupt+0x1c0>
     4a0:	0000f7b7          	lui	a5,0xf
     4a4:	fff00713          	li	a4,-1
     4a8:	8ae7a223          	sw	a4,-1884(a5) # e8a4 <main_state>
     4ac:	340030ef          	jal	37ec <main_menu_handler_reset>
     4b0:	0cc0006f          	j	57c <handle_interrupt+0x1c0>
     4b4:	fdc42503          	lw	a0,-36(s0)
     4b8:	0fc050ef          	jal	55b4 <checkers_handle_interrupt>
     4bc:	00050793          	mv	a5,a0
     4c0:	0c078263          	beqz	a5,584 <handle_interrupt+0x1c8>
     4c4:	0000f7b7          	lui	a5,0xf
     4c8:	fff00713          	li	a4,-1
     4cc:	8ae7a223          	sw	a4,-1884(a5) # e8a4 <main_state>
     4d0:	31c030ef          	jal	37ec <main_menu_handler_reset>
     4d4:	0b00006f          	j	584 <handle_interrupt+0x1c8>
     4d8:	fdc42503          	lw	a0,-36(s0)
     4dc:	069020ef          	jal	2d44 <solitaire_handle_interrupt>
     4e0:	00050793          	mv	a5,a0
     4e4:	0a078463          	beqz	a5,58c <handle_interrupt+0x1d0>
     4e8:	0000f7b7          	lui	a5,0xf
     4ec:	fff00713          	li	a4,-1
     4f0:	8ae7a223          	sw	a4,-1884(a5) # e8a4 <main_state>
     4f4:	2f8030ef          	jal	37ec <main_menu_handler_reset>
     4f8:	0940006f          	j	58c <handle_interrupt+0x1d0>
     4fc:	fdc42503          	lw	a0,-36(s0)
     500:	7950d0ef          	jal	e494 <bt_handle_interrupt>
     504:	00050793          	mv	a5,a0
     508:	00078a63          	beqz	a5,51c <handle_interrupt+0x160>
     50c:	0000f7b7          	lui	a5,0xf
     510:	fff00713          	li	a4,-1
     514:	8ae7a223          	sw	a4,-1884(a5) # e8a4 <main_state>
     518:	2d4030ef          	jal	37ec <main_menu_handler_reset>
     51c:	fdc42503          	lw	a0,-36(s0)
     520:	6d4070ef          	jal	7bf4 <tetris_handle_interrupt>
     524:	00050793          	mv	a5,a0
     528:	06078663          	beqz	a5,594 <handle_interrupt+0x1d8>
     52c:	0000f7b7          	lui	a5,0xf
     530:	fff00713          	li	a4,-1
     534:	8ae7a223          	sw	a4,-1884(a5) # e8a4 <main_state>
     538:	2b4030ef          	jal	37ec <main_menu_handler_reset>
     53c:	0580006f          	j	594 <handle_interrupt+0x1d8>
     540:	fdc42503          	lw	a0,-36(s0)
     544:	0690d0ef          	jal	ddac <snake_handle_interrupt>
     548:	00050793          	mv	a5,a0
     54c:	04078863          	beqz	a5,59c <handle_interrupt+0x1e0>
     550:	0000f7b7          	lui	a5,0xf
     554:	fff00713          	li	a4,-1
     558:	8ae7a223          	sw	a4,-1884(a5) # e8a4 <main_state>
     55c:	290030ef          	jal	37ec <main_menu_handler_reset>
     560:	03c0006f          	j	59c <handle_interrupt+0x1e0>
     564:	00000013          	nop
     568:	0380006f          	j	5a0 <handle_interrupt+0x1e4>
     56c:	00000013          	nop
     570:	0300006f          	j	5a0 <handle_interrupt+0x1e4>
     574:	00000013          	nop
     578:	0280006f          	j	5a0 <handle_interrupt+0x1e4>
     57c:	00000013          	nop
     580:	0200006f          	j	5a0 <handle_interrupt+0x1e4>
     584:	00000013          	nop
     588:	0180006f          	j	5a0 <handle_interrupt+0x1e4>
     58c:	00000013          	nop
     590:	0100006f          	j	5a0 <handle_interrupt+0x1e4>
     594:	00000013          	nop
     598:	0080006f          	j	5a0 <handle_interrupt+0x1e4>
     59c:	00000013          	nop
     5a0:	fdc42703          	lw	a4,-36(s0)
     5a4:	01200793          	li	a5,18
     5a8:	02f70863          	beq	a4,a5,5d8 <handle_interrupt+0x21c>
     5ac:	fdc42703          	lw	a4,-36(s0)
     5b0:	01200793          	li	a5,18
     5b4:	02e7ea63          	bltu	a5,a4,5e8 <handle_interrupt+0x22c>
     5b8:	fdc42703          	lw	a4,-36(s0)
     5bc:	01000793          	li	a5,16
     5c0:	02f70063          	beq	a4,a5,5e0 <handle_interrupt+0x224>
     5c4:	fdc42703          	lw	a4,-36(s0)
     5c8:	01100793          	li	a5,17
     5cc:	00f71e63          	bne	a4,a5,5e8 <handle_interrupt+0x22c>
     5d0:	458000ef          	jal	a28 <io_switch_irq_reset>
     5d4:	0140006f          	j	5e8 <handle_interrupt+0x22c>
     5d8:	374000ef          	jal	94c <io_button_irq_reset>
     5dc:	00c0006f          	j	5e8 <handle_interrupt+0x22c>
     5e0:	20c000ef          	jal	7ec <io_timer_irq_reset>
     5e4:	00000013          	nop
     5e8:	00000013          	nop
     5ec:	02c12083          	lw	ra,44(sp)
     5f0:	02812403          	lw	s0,40(sp)
     5f4:	03010113          	add	sp,sp,48
     5f8:	00008067          	ret

000005fc <handle_exception>:
     5fc:	fd010113          	add	sp,sp,-48
     600:	02112623          	sw	ra,44(sp)
     604:	02812423          	sw	s0,40(sp)
     608:	03010413          	add	s0,sp,48
     60c:	fea42623          	sw	a0,-20(s0)
     610:	feb42423          	sw	a1,-24(s0)
     614:	fec42223          	sw	a2,-28(s0)
     618:	fed42023          	sw	a3,-32(s0)
     61c:	fce42e23          	sw	a4,-36(s0)
     620:	fcf42c23          	sw	a5,-40(s0)
     624:	fd042a23          	sw	a6,-44(s0)
     628:	fd142823          	sw	a7,-48(s0)
     62c:	fd442703          	lw	a4,-44(s0)
     630:	00b00793          	li	a5,11
     634:	04f70463          	beq	a4,a5,67c <handle_exception+0x80>
     638:	fd442703          	lw	a4,-44(s0)
     63c:	00b00793          	li	a5,11
     640:	06e7ea63          	bltu	a5,a4,6b4 <handle_exception+0xb8>
     644:	fd442783          	lw	a5,-44(s0)
     648:	00078a63          	beqz	a5,65c <handle_exception+0x60>
     64c:	fd442703          	lw	a4,-44(s0)
     650:	00200793          	li	a5,2
     654:	00f70c63          	beq	a4,a5,66c <handle_exception+0x70>
     658:	05c0006f          	j	6b4 <handle_exception+0xb8>
     65c:	000107b7          	lui	a5,0x10
     660:	d2878513          	add	a0,a5,-728 # fd28 <last_board+0x2c>
     664:	1f0000ef          	jal	854 <io_jtag_print>
     668:	05c0006f          	j	6c4 <handle_exception+0xc8>
     66c:	000107b7          	lui	a5,0x10
     670:	d5878513          	add	a0,a5,-680 # fd58 <last_board+0x5c>
     674:	1e0000ef          	jal	854 <io_jtag_print>
     678:	04c0006f          	j	6c4 <handle_exception+0xc8>
     67c:	fd042703          	lw	a4,-48(s0)
     680:	00400793          	li	a5,4
     684:	00f71863          	bne	a4,a5,694 <handle_exception+0x98>
     688:	fec42783          	lw	a5,-20(s0)
     68c:	00078513          	mv	a0,a5
     690:	1c4000ef          	jal	854 <io_jtag_print>
     694:	fd042703          	lw	a4,-48(s0)
     698:	00b00793          	li	a5,11
     69c:	04f71a63          	bne	a4,a5,6f0 <handle_exception+0xf4>
     6a0:	fec42783          	lw	a5,-20(s0)
     6a4:	0ff7f793          	zext.b	a5,a5
     6a8:	00078513          	mv	a0,a5
     6ac:	15c000ef          	jal	808 <io_jtag_printc>
     6b0:	0400006f          	j	6f0 <handle_exception+0xf4>
     6b4:	000107b7          	lui	a5,0x10
     6b8:	d7c78513          	add	a0,a5,-644 # fd7c <last_board+0x80>
     6bc:	198000ef          	jal	854 <io_jtag_print>
     6c0:	00000013          	nop
     6c4:	000107b7          	lui	a5,0x10
     6c8:	d9c78513          	add	a0,a5,-612 # fd9c <last_board+0xa0>
     6cc:	188000ef          	jal	854 <io_jtag_print>
     6d0:	fec42783          	lw	a5,-20(s0)
     6d4:	00078513          	mv	a0,a5
     6d8:	1d4000ef          	jal	8ac <io_jtag_print_dec>
     6dc:	000107b7          	lui	a5,0x10
     6e0:	db078513          	add	a0,a5,-592 # fdb0 <last_board+0xb4>
     6e4:	170000ef          	jal	854 <io_jtag_print>
     6e8:	00000013          	nop
     6ec:	ffdff06f          	j	6e8 <handle_exception+0xec>
     6f0:	00000013          	nop
     6f4:	02c12083          	lw	ra,44(sp)
     6f8:	02812403          	lw	s0,40(sp)
     6fc:	03010113          	add	sp,sp,48
     700:	00008067          	ret

00000704 <main>:
     704:	ff010113          	add	sp,sp,-16
     708:	00112623          	sw	ra,12(sp)
     70c:	00812423          	sw	s0,8(sp)
     710:	01010413          	add	s0,sp,16
     714:	a5dff0ef          	jal	170 <enable_interrupt>
     718:	2b8000ef          	jal	9d0 <io_switch_irq_enable>
     71c:	204000ef          	jal	920 <io_button_irq_enable>
     720:	03200513          	li	a0,50
     724:	08c000ef          	jal	7b0 <io_timer_set_timeout>
     728:	0a8000ef          	jal	7d0 <io_timer_irq_enable>
     72c:	01e00513          	li	a0,30
     730:	c3dff0ef          	jal	36c <srand>
     734:	be1ff0ef          	jal	314 <rand>
     738:	0000f7b7          	lui	a5,0xf
     73c:	8a47a783          	lw	a5,-1884(a5) # e8a4 <main_state>
     740:	00178793          	add	a5,a5,1
     744:	00900713          	li	a4,9
     748:	fef766e3          	bltu	a4,a5,734 <main+0x30>
     74c:	00279713          	sll	a4,a5,0x2
     750:	000107b7          	lui	a5,0x10
     754:	db478793          	add	a5,a5,-588 # fdb4 <last_board+0xb8>
     758:	00f707b3          	add	a5,a4,a5
     75c:	0007a783          	lw	a5,0(a5)
     760:	00078067          	jr	a5
     764:	0ac030ef          	jal	3810 <main_menu_handler_render>
     768:	0440006f          	j	7ac <main+0xa8>
     76c:	410080ef          	jal	8b7c <othello_handler_render>
     770:	03c0006f          	j	7ac <main+0xa8>
     774:	6350b0ef          	jal	c5a8 <chess_handler_render>
     778:	0340006f          	j	7ac <main+0xa8>
     77c:	2d1060ef          	jal	724c <fiar_handler_render>
     780:	02c0006f          	j	7ac <main+0xa8>
     784:	0a8050ef          	jal	582c <checkers_handler_render>
     788:	0240006f          	j	7ac <main+0xa8>
     78c:	648020ef          	jal	2dd4 <solitaire_handler_render>
     790:	01c0006f          	j	7ac <main+0xa8>
     794:	4f0070ef          	jal	7c84 <tetris_handler_render>
     798:	0140006f          	j	7ac <main+0xa8>
     79c:	5d10d0ef          	jal	e56c <bt_handler_render>
     7a0:	00c0006f          	j	7ac <main+0xa8>
     7a4:	7a80d0ef          	jal	df4c <snake_handler_render>
     7a8:	00000013          	nop
     7ac:	f89ff06f          	j	734 <main+0x30>

000007b0 <io_timer_set_timeout>:
     7b0:	fe010113          	add	sp,sp,-32
     7b4:	00812e23          	sw	s0,28(sp)
     7b8:	02010413          	add	s0,sp,32
     7bc:	fea42623          	sw	a0,-20(s0)
     7c0:	00000013          	nop
     7c4:	01c12403          	lw	s0,28(sp)
     7c8:	02010113          	add	sp,sp,32
     7cc:	00008067          	ret

000007d0 <io_timer_irq_enable>:
     7d0:	ff010113          	add	sp,sp,-16
     7d4:	00812623          	sw	s0,12(sp)
     7d8:	01010413          	add	s0,sp,16
     7dc:	00000013          	nop
     7e0:	00c12403          	lw	s0,12(sp)
     7e4:	01010113          	add	sp,sp,16
     7e8:	00008067          	ret

000007ec <io_timer_irq_reset>:
     7ec:	ff010113          	add	sp,sp,-16
     7f0:	00812623          	sw	s0,12(sp)
     7f4:	01010413          	add	s0,sp,16
     7f8:	00000013          	nop
     7fc:	00c12403          	lw	s0,12(sp)
     800:	01010113          	add	sp,sp,16
     804:	00008067          	ret

00000808 <io_jtag_printc>:
     808:	fe010113          	add	sp,sp,-32
     80c:	00812e23          	sw	s0,28(sp)
     810:	02010413          	add	s0,sp,32
     814:	00050793          	mv	a5,a0
     818:	fef407a3          	sb	a5,-17(s0)
     81c:	00000013          	nop
     820:	040007b7          	lui	a5,0x4000
     824:	04478793          	add	a5,a5,68 # 4000044 <_stack_end+0x3eef0fc>
     828:	0007a703          	lw	a4,0(a5)
     82c:	000107b7          	lui	a5,0x10
     830:	fef768e3          	bltu	a4,a5,820 <io_jtag_printc+0x18>
     834:	040007b7          	lui	a5,0x4000
     838:	04078793          	add	a5,a5,64 # 4000040 <_stack_end+0x3eef0f8>
     83c:	fef44703          	lbu	a4,-17(s0)
     840:	00e7a023          	sw	a4,0(a5)
     844:	00000013          	nop
     848:	01c12403          	lw	s0,28(sp)
     84c:	02010113          	add	sp,sp,32
     850:	00008067          	ret

00000854 <io_jtag_print>:
     854:	fe010113          	add	sp,sp,-32
     858:	00112e23          	sw	ra,28(sp)
     85c:	00812c23          	sw	s0,24(sp)
     860:	02010413          	add	s0,sp,32
     864:	fea42623          	sw	a0,-20(s0)
     868:	0200006f          	j	888 <io_jtag_print+0x34>
     86c:	fec42783          	lw	a5,-20(s0)
     870:	0007c783          	lbu	a5,0(a5)
     874:	00078513          	mv	a0,a5
     878:	f91ff0ef          	jal	808 <io_jtag_printc>
     87c:	fec42783          	lw	a5,-20(s0)
     880:	00178793          	add	a5,a5,1
     884:	fef42623          	sw	a5,-20(s0)
     888:	fec42783          	lw	a5,-20(s0)
     88c:	0007c783          	lbu	a5,0(a5)
     890:	fc079ee3          	bnez	a5,86c <io_jtag_print+0x18>
     894:	00000013          	nop
     898:	00000013          	nop
     89c:	01c12083          	lw	ra,28(sp)
     8a0:	01812403          	lw	s0,24(sp)
     8a4:	02010113          	add	sp,sp,32
     8a8:	00008067          	ret

000008ac <io_jtag_print_dec>:
     8ac:	fd010113          	add	sp,sp,-48
     8b0:	02112623          	sw	ra,44(sp)
     8b4:	02812423          	sw	s0,40(sp)
     8b8:	03010413          	add	s0,sp,48
     8bc:	fca42e23          	sw	a0,-36(s0)
     8c0:	fe042623          	sw	zero,-20(s0)
     8c4:	0200006f          	j	8e4 <io_jtag_print_dec+0x38>
     8c8:	fec42783          	lw	a5,-20(s0)
     8cc:	ff078793          	add	a5,a5,-16
     8d0:	008787b3          	add	a5,a5,s0
     8d4:	fe078823          	sb	zero,-16(a5)
     8d8:	fec42783          	lw	a5,-20(s0)
     8dc:	00178793          	add	a5,a5,1
     8e0:	fef42623          	sw	a5,-20(s0)
     8e4:	fec42703          	lw	a4,-20(s0)
     8e8:	00a00793          	li	a5,10
     8ec:	fce7dee3          	bge	a5,a4,8c8 <io_jtag_print_dec+0x1c>
     8f0:	fe040793          	add	a5,s0,-32
     8f4:	00078593          	mv	a1,a5
     8f8:	fdc42503          	lw	a0,-36(s0)
     8fc:	44d010ef          	jal	2548 <num_to_str>
     900:	fe040793          	add	a5,s0,-32
     904:	00078513          	mv	a0,a5
     908:	f4dff0ef          	jal	854 <io_jtag_print>
     90c:	00000013          	nop
     910:	02c12083          	lw	ra,44(sp)
     914:	02812403          	lw	s0,40(sp)
     918:	03010113          	add	sp,sp,48
     91c:	00008067          	ret

00000920 <io_button_irq_enable>:
     920:	ff010113          	add	sp,sp,-16
     924:	00812623          	sw	s0,12(sp)
     928:	01010413          	add	s0,sp,16
     92c:	040007b7          	lui	a5,0x4000
     930:	0d878793          	add	a5,a5,216 # 40000d8 <_stack_end+0x3eef190>
     934:	00100713          	li	a4,1
     938:	00e7a023          	sw	a4,0(a5)
     93c:	00000013          	nop
     940:	00c12403          	lw	s0,12(sp)
     944:	01010113          	add	sp,sp,16
     948:	00008067          	ret

0000094c <io_button_irq_reset>:
     94c:	ff010113          	add	sp,sp,-16
     950:	00812623          	sw	s0,12(sp)
     954:	01010413          	add	s0,sp,16
     958:	040007b7          	lui	a5,0x4000
     95c:	0dc78793          	add	a5,a5,220 # 40000dc <_stack_end+0x3eef194>
     960:	0007a023          	sw	zero,0(a5)
     964:	00000013          	nop
     968:	00c12403          	lw	s0,12(sp)
     96c:	01010113          	add	sp,sp,16
     970:	00008067          	ret

00000974 <io_button>:
     974:	ff010113          	add	sp,sp,-16
     978:	00812623          	sw	s0,12(sp)
     97c:	01010413          	add	s0,sp,16
     980:	040007b7          	lui	a5,0x4000
     984:	0d078793          	add	a5,a5,208 # 40000d0 <_stack_end+0x3eef188>
     988:	0007a783          	lw	a5,0(a5)
     98c:	0017f793          	and	a5,a5,1
     990:	00078513          	mv	a0,a5
     994:	00c12403          	lw	s0,12(sp)
     998:	01010113          	add	sp,sp,16
     99c:	00008067          	ret

000009a0 <io_switch_irq_enable_with_mask>:
     9a0:	fe010113          	add	sp,sp,-32
     9a4:	00812e23          	sw	s0,28(sp)
     9a8:	02010413          	add	s0,sp,32
     9ac:	fea42623          	sw	a0,-20(s0)
     9b0:	040007b7          	lui	a5,0x4000
     9b4:	01878793          	add	a5,a5,24 # 4000018 <_stack_end+0x3eef0d0>
     9b8:	fec42703          	lw	a4,-20(s0)
     9bc:	00e7a023          	sw	a4,0(a5)
     9c0:	00000013          	nop
     9c4:	01c12403          	lw	s0,28(sp)
     9c8:	02010113          	add	sp,sp,32
     9cc:	00008067          	ret

000009d0 <io_switch_irq_enable>:
     9d0:	ff010113          	add	sp,sp,-16
     9d4:	00112623          	sw	ra,12(sp)
     9d8:	00812423          	sw	s0,8(sp)
     9dc:	01010413          	add	s0,sp,16
     9e0:	3ff00513          	li	a0,1023
     9e4:	fbdff0ef          	jal	9a0 <io_switch_irq_enable_with_mask>
     9e8:	00000013          	nop
     9ec:	00c12083          	lw	ra,12(sp)
     9f0:	00812403          	lw	s0,8(sp)
     9f4:	01010113          	add	sp,sp,16
     9f8:	00008067          	ret

000009fc <io_switch>:
     9fc:	ff010113          	add	sp,sp,-16
     a00:	00812623          	sw	s0,12(sp)
     a04:	01010413          	add	s0,sp,16
     a08:	040007b7          	lui	a5,0x4000
     a0c:	01078793          	add	a5,a5,16 # 4000010 <_stack_end+0x3eef0c8>
     a10:	0007a783          	lw	a5,0(a5)
     a14:	3ff7f793          	and	a5,a5,1023
     a18:	00078513          	mv	a0,a5
     a1c:	00c12403          	lw	s0,12(sp)
     a20:	01010113          	add	sp,sp,16
     a24:	00008067          	ret

00000a28 <io_switch_irq_reset>:
     a28:	ff010113          	add	sp,sp,-16
     a2c:	00812623          	sw	s0,12(sp)
     a30:	01010413          	add	s0,sp,16
     a34:	040007b7          	lui	a5,0x4000
     a38:	01c78793          	add	a5,a5,28 # 400001c <_stack_end+0x3eef0d4>
     a3c:	0007a023          	sw	zero,0(a5)
     a40:	00000013          	nop
     a44:	00c12403          	lw	s0,12(sp)
     a48:	01010113          	add	sp,sp,16
     a4c:	00008067          	ret

00000a50 <vga_enable>:
     a50:	ff010113          	add	sp,sp,-16
     a54:	00812623          	sw	s0,12(sp)
     a58:	01010413          	add	s0,sp,16
     a5c:	040007b7          	lui	a5,0x4000
     a60:	10078793          	add	a5,a5,256 # 4000100 <_stack_end+0x3eef1b8>
     a64:	00400713          	li	a4,4
     a68:	00e7a023          	sw	a4,0(a5)
     a6c:	00000013          	nop
     a70:	00c12403          	lw	s0,12(sp)
     a74:	01010113          	add	sp,sp,16
     a78:	00008067          	ret

00000a7c <io_vga_set_pixel>:
     a7c:	fe010113          	add	sp,sp,-32
     a80:	00112e23          	sw	ra,28(sp)
     a84:	00812c23          	sw	s0,24(sp)
     a88:	02010413          	add	s0,sp,32
     a8c:	fea42623          	sw	a0,-20(s0)
     a90:	feb42423          	sw	a1,-24(s0)
     a94:	00060793          	mv	a5,a2
     a98:	fef403a3          	sb	a5,-25(s0)
     a9c:	0000f7b7          	lui	a5,0xf
     aa0:	8c07a783          	lw	a5,-1856(a5) # e8c0 <has_rendered_before>
     aa4:	00079a63          	bnez	a5,ab8 <io_vga_set_pixel+0x3c>
     aa8:	fa9ff0ef          	jal	a50 <vga_enable>
     aac:	0000f7b7          	lui	a5,0xf
     ab0:	00100713          	li	a4,1
     ab4:	8ce7a023          	sw	a4,-1856(a5) # e8c0 <has_rendered_before>
     ab8:	fe842703          	lw	a4,-24(s0)
     abc:	00070793          	mv	a5,a4
     ac0:	00279793          	sll	a5,a5,0x2
     ac4:	00e787b3          	add	a5,a5,a4
     ac8:	00679793          	sll	a5,a5,0x6
     acc:	00078713          	mv	a4,a5
     ad0:	fec42783          	lw	a5,-20(s0)
     ad4:	00f707b3          	add	a5,a4,a5
     ad8:	00078713          	mv	a4,a5
     adc:	080007b7          	lui	a5,0x8000
     ae0:	00f707b3          	add	a5,a4,a5
     ae4:	fe744703          	lbu	a4,-25(s0)
     ae8:	00e78023          	sb	a4,0(a5) # 8000000 <_stack_end+0x7eef0b8>
     aec:	00000013          	nop
     af0:	01c12083          	lw	ra,28(sp)
     af4:	01812403          	lw	s0,24(sp)
     af8:	02010113          	add	sp,sp,32
     afc:	00008067          	ret

00000b00 <io_vga_flush_pixels>:
     b00:	ff010113          	add	sp,sp,-16
     b04:	00812623          	sw	s0,12(sp)
     b08:	01010413          	add	s0,sp,16
     b0c:	040007b7          	lui	a5,0x4000
     b10:	10478793          	add	a5,a5,260 # 4000104 <_stack_end+0x3eef1bc>
     b14:	08000737          	lui	a4,0x8000
     b18:	00e7a023          	sw	a4,0(a5)
     b1c:	00000013          	nop
     b20:	00c12403          	lw	s0,12(sp)
     b24:	01010113          	add	sp,sp,16
     b28:	00008067          	ret

00000b2c <render_sprite_width_16_height_any>:
     b2c:	fb010113          	add	sp,sp,-80
     b30:	04112623          	sw	ra,76(sp)
     b34:	04812423          	sw	s0,72(sp)
     b38:	05010413          	add	s0,sp,80
     b3c:	fca42623          	sw	a0,-52(s0)
     b40:	fcb42423          	sw	a1,-56(s0)
     b44:	fcc42223          	sw	a2,-60(s0)
     b48:	fcd42023          	sw	a3,-64(s0)
     b4c:	fae42e23          	sw	a4,-68(s0)
     b50:	faf42c23          	sw	a5,-72(s0)
     b54:	000107b7          	lui	a5,0x10
     b58:	e1478713          	add	a4,a5,-492 # fe14 <SPRITE_WIDTHS>
     b5c:	fc442783          	lw	a5,-60(s0)
     b60:	00279793          	sll	a5,a5,0x2
     b64:	00f707b3          	add	a5,a4,a5
     b68:	0007a783          	lw	a5,0(a5)
     b6c:	fef42023          	sw	a5,-32(s0)
     b70:	000107b7          	lui	a5,0x10
     b74:	e4878713          	add	a4,a5,-440 # fe48 <SPRITE_HEIGHTS>
     b78:	fc442783          	lw	a5,-60(s0)
     b7c:	00279793          	sll	a5,a5,0x2
     b80:	00f707b3          	add	a5,a4,a5
     b84:	0007a783          	lw	a5,0(a5)
     b88:	fcf42e23          	sw	a5,-36(s0)
     b8c:	000107b7          	lui	a5,0x10
     b90:	de078713          	add	a4,a5,-544 # fde0 <LAYERS>
     b94:	fc442783          	lw	a5,-60(s0)
     b98:	00279793          	sll	a5,a5,0x2
     b9c:	00f707b3          	add	a5,a4,a5
     ba0:	0007a783          	lw	a5,0(a5)
     ba4:	fcf42c23          	sw	a5,-40(s0)
     ba8:	fe042623          	sw	zero,-20(s0)
     bac:	0c00006f          	j	c6c <render_sprite_width_16_height_any+0x140>
     bb0:	fe042423          	sw	zero,-24(s0)
     bb4:	0a00006f          	j	c54 <render_sprite_width_16_height_any+0x128>
     bb8:	fe042223          	sw	zero,-28(s0)
     bbc:	0800006f          	j	c3c <render_sprite_width_16_height_any+0x110>
     bc0:	fe442703          	lw	a4,-28(s0)
     bc4:	fdc42783          	lw	a5,-36(s0)
     bc8:	02f70733          	mul	a4,a4,a5
     bcc:	fec42783          	lw	a5,-20(s0)
     bd0:	00f707b3          	add	a5,a4,a5
     bd4:	00179793          	sll	a5,a5,0x1
     bd8:	fc042703          	lw	a4,-64(s0)
     bdc:	00f707b3          	add	a5,a4,a5
     be0:	0007d783          	lhu	a5,0(a5)
     be4:	00078713          	mv	a4,a5
     be8:	fe842783          	lw	a5,-24(s0)
     bec:	40f757b3          	sra	a5,a4,a5
     bf0:	0017f793          	and	a5,a5,1
     bf4:	02078e63          	beqz	a5,c30 <render_sprite_width_16_height_any+0x104>
     bf8:	fcc42703          	lw	a4,-52(s0)
     bfc:	fe842783          	lw	a5,-24(s0)
     c00:	00f706b3          	add	a3,a4,a5
     c04:	fc842703          	lw	a4,-56(s0)
     c08:	fec42783          	lw	a5,-20(s0)
     c0c:	00f705b3          	add	a1,a4,a5
     c10:	fe442783          	lw	a5,-28(s0)
     c14:	fbc42703          	lw	a4,-68(s0)
     c18:	00f707b3          	add	a5,a4,a5
     c1c:	0007c783          	lbu	a5,0(a5)
     c20:	00078613          	mv	a2,a5
     c24:	00068513          	mv	a0,a3
     c28:	e55ff0ef          	jal	a7c <io_vga_set_pixel>
     c2c:	01c0006f          	j	c48 <render_sprite_width_16_height_any+0x11c>
     c30:	fe442783          	lw	a5,-28(s0)
     c34:	00178793          	add	a5,a5,1
     c38:	fef42223          	sw	a5,-28(s0)
     c3c:	fe442703          	lw	a4,-28(s0)
     c40:	fd842783          	lw	a5,-40(s0)
     c44:	f6f74ee3          	blt	a4,a5,bc0 <render_sprite_width_16_height_any+0x94>
     c48:	fe842783          	lw	a5,-24(s0)
     c4c:	00178793          	add	a5,a5,1
     c50:	fef42423          	sw	a5,-24(s0)
     c54:	fe842703          	lw	a4,-24(s0)
     c58:	fe042783          	lw	a5,-32(s0)
     c5c:	f4f74ee3          	blt	a4,a5,bb8 <render_sprite_width_16_height_any+0x8c>
     c60:	fec42783          	lw	a5,-20(s0)
     c64:	00178793          	add	a5,a5,1
     c68:	fef42623          	sw	a5,-20(s0)
     c6c:	fec42703          	lw	a4,-20(s0)
     c70:	fdc42783          	lw	a5,-36(s0)
     c74:	f2f74ee3          	blt	a4,a5,bb0 <render_sprite_width_16_height_any+0x84>
     c78:	00000013          	nop
     c7c:	00000013          	nop
     c80:	04c12083          	lw	ra,76(sp)
     c84:	04812403          	lw	s0,72(sp)
     c88:	05010113          	add	sp,sp,80
     c8c:	00008067          	ret

00000c90 <render_sprite_width_8_height_8>:
     c90:	fa010113          	add	sp,sp,-96
     c94:	04112e23          	sw	ra,92(sp)
     c98:	04812c23          	sw	s0,88(sp)
     c9c:	05212a23          	sw	s2,84(sp)
     ca0:	05312823          	sw	s3,80(sp)
     ca4:	05412623          	sw	s4,76(sp)
     ca8:	05512423          	sw	s5,72(sp)
     cac:	06010413          	add	s0,sp,96
     cb0:	faa42e23          	sw	a0,-68(s0)
     cb4:	fab42c23          	sw	a1,-72(s0)
     cb8:	fac42a23          	sw	a2,-76(s0)
     cbc:	fad42823          	sw	a3,-80(s0)
     cc0:	fae42623          	sw	a4,-84(s0)
     cc4:	faf42423          	sw	a5,-88(s0)
     cc8:	00800793          	li	a5,8
     ccc:	fcf42823          	sw	a5,-48(s0)
     cd0:	00800793          	li	a5,8
     cd4:	fcf42623          	sw	a5,-52(s0)
     cd8:	000107b7          	lui	a5,0x10
     cdc:	de078713          	add	a4,a5,-544 # fde0 <LAYERS>
     ce0:	fb442783          	lw	a5,-76(s0)
     ce4:	00279793          	sll	a5,a5,0x2
     ce8:	00f707b3          	add	a5,a4,a5
     cec:	0007a783          	lw	a5,0(a5)
     cf0:	fcf42423          	sw	a5,-56(s0)
     cf4:	fc042e23          	sw	zero,-36(s0)
     cf8:	1140006f          	j	e0c <render_sprite_width_8_height_8+0x17c>
     cfc:	fc042c23          	sw	zero,-40(s0)
     d00:	0f40006f          	j	df4 <render_sprite_width_8_height_8+0x164>
     d04:	fc042a23          	sw	zero,-44(s0)
     d08:	0d40006f          	j	ddc <render_sprite_width_8_height_8+0x14c>
     d0c:	fd442703          	lw	a4,-44(s0)
     d10:	fcc42783          	lw	a5,-52(s0)
     d14:	02f707b3          	mul	a5,a4,a5
     d18:	00379793          	sll	a5,a5,0x3
     d1c:	fb042703          	lw	a4,-80(s0)
     d20:	00f707b3          	add	a5,a4,a5
     d24:	0007a603          	lw	a2,0(a5)
     d28:	0047a683          	lw	a3,4(a5)
     d2c:	fdc42783          	lw	a5,-36(s0)
     d30:	00379713          	sll	a4,a5,0x3
     d34:	fd842783          	lw	a5,-40(s0)
     d38:	00f707b3          	add	a5,a4,a5
     d3c:	fe078713          	add	a4,a5,-32
     d40:	00074a63          	bltz	a4,d54 <render_sprite_width_8_height_8+0xc4>
     d44:	00100793          	li	a5,1
     d48:	00e799b3          	sll	s3,a5,a4
     d4c:	00000913          	li	s2,0
     d50:	02c0006f          	j	d7c <render_sprite_width_8_height_8+0xec>
     d54:	00100713          	li	a4,1
     d58:	00175593          	srl	a1,a4,0x1
     d5c:	01f00713          	li	a4,31
     d60:	40f70733          	sub	a4,a4,a5
     d64:	00e5d733          	srl	a4,a1,a4
     d68:	00000593          	li	a1,0
     d6c:	00f599b3          	sll	s3,a1,a5
     d70:	013769b3          	or	s3,a4,s3
     d74:	00100713          	li	a4,1
     d78:	00f71933          	sll	s2,a4,a5
     d7c:	00090713          	mv	a4,s2
     d80:	00098793          	mv	a5,s3
     d84:	00e67a33          	and	s4,a2,a4
     d88:	00f6fab3          	and	s5,a3,a5
     d8c:	000a0793          	mv	a5,s4
     d90:	0157e7b3          	or	a5,a5,s5
     d94:	02078e63          	beqz	a5,dd0 <render_sprite_width_8_height_8+0x140>
     d98:	fbc42703          	lw	a4,-68(s0)
     d9c:	fd842783          	lw	a5,-40(s0)
     da0:	00f706b3          	add	a3,a4,a5
     da4:	fb842703          	lw	a4,-72(s0)
     da8:	fdc42783          	lw	a5,-36(s0)
     dac:	00f705b3          	add	a1,a4,a5
     db0:	fd442783          	lw	a5,-44(s0)
     db4:	fac42703          	lw	a4,-84(s0)
     db8:	00f707b3          	add	a5,a4,a5
     dbc:	0007c783          	lbu	a5,0(a5)
     dc0:	00078613          	mv	a2,a5
     dc4:	00068513          	mv	a0,a3
     dc8:	cb5ff0ef          	jal	a7c <io_vga_set_pixel>
     dcc:	01c0006f          	j	de8 <render_sprite_width_8_height_8+0x158>
     dd0:	fd442783          	lw	a5,-44(s0)
     dd4:	00178793          	add	a5,a5,1
     dd8:	fcf42a23          	sw	a5,-44(s0)
     ddc:	fd442703          	lw	a4,-44(s0)
     de0:	fc842783          	lw	a5,-56(s0)
     de4:	f2f744e3          	blt	a4,a5,d0c <render_sprite_width_8_height_8+0x7c>
     de8:	fd842783          	lw	a5,-40(s0)
     dec:	00178793          	add	a5,a5,1
     df0:	fcf42c23          	sw	a5,-40(s0)
     df4:	fd842703          	lw	a4,-40(s0)
     df8:	fd042783          	lw	a5,-48(s0)
     dfc:	f0f744e3          	blt	a4,a5,d04 <render_sprite_width_8_height_8+0x74>
     e00:	fdc42783          	lw	a5,-36(s0)
     e04:	00178793          	add	a5,a5,1
     e08:	fcf42e23          	sw	a5,-36(s0)
     e0c:	fdc42703          	lw	a4,-36(s0)
     e10:	fcc42783          	lw	a5,-52(s0)
     e14:	eef744e3          	blt	a4,a5,cfc <render_sprite_width_8_height_8+0x6c>
     e18:	00000013          	nop
     e1c:	00000013          	nop
     e20:	05c12083          	lw	ra,92(sp)
     e24:	05812403          	lw	s0,88(sp)
     e28:	05412903          	lw	s2,84(sp)
     e2c:	05012983          	lw	s3,80(sp)
     e30:	04c12a03          	lw	s4,76(sp)
     e34:	04812a83          	lw	s5,72(sp)
     e38:	06010113          	add	sp,sp,96
     e3c:	00008067          	ret

00000e40 <render_sprite>:
     e40:	fd010113          	add	sp,sp,-48
     e44:	02112623          	sw	ra,44(sp)
     e48:	02812423          	sw	s0,40(sp)
     e4c:	03010413          	add	s0,sp,48
     e50:	fea42623          	sw	a0,-20(s0)
     e54:	feb42423          	sw	a1,-24(s0)
     e58:	fec42223          	sw	a2,-28(s0)
     e5c:	fed42023          	sw	a3,-32(s0)
     e60:	fce42e23          	sw	a4,-36(s0)
     e64:	000107b7          	lui	a5,0x10
     e68:	de078713          	add	a4,a5,-544 # fde0 <LAYERS>
     e6c:	fe442783          	lw	a5,-28(s0)
     e70:	00279793          	sll	a5,a5,0x2
     e74:	00f707b3          	add	a5,a4,a5
     e78:	0007a703          	lw	a4,0(a5)
     e7c:	fdc42783          	lw	a5,-36(s0)
     e80:	00f70863          	beq	a4,a5,e90 <render_sprite+0x50>
     e84:	000107b7          	lui	a5,0x10
     e88:	0b878513          	add	a0,a5,184 # 100b8 <SPRITE_CARD_CLUBS+0x20>
     e8c:	558010ef          	jal	23e4 <panic>
     e90:	fe442783          	lw	a5,-28(s0)
     e94:	00279713          	sll	a4,a5,0x2
     e98:	000107b7          	lui	a5,0x10
     e9c:	0d478793          	add	a5,a5,212 # 100d4 <SPRITE_CARD_CLUBS+0x3c>
     ea0:	00f707b3          	add	a5,a4,a5
     ea4:	0007a783          	lw	a5,0(a5)
     ea8:	00078067          	jr	a5
     eac:	fdc42783          	lw	a5,-36(s0)
     eb0:	fe042703          	lw	a4,-32(s0)
     eb4:	000106b7          	lui	a3,0x10
     eb8:	e7c68693          	add	a3,a3,-388 # fe7c <SPRITE_CARD_SPADES>
     ebc:	fe442603          	lw	a2,-28(s0)
     ec0:	fe842583          	lw	a1,-24(s0)
     ec4:	fec42503          	lw	a0,-20(s0)
     ec8:	c65ff0ef          	jal	b2c <render_sprite_width_16_height_any>
     ecc:	1b40006f          	j	1080 <render_sprite+0x240>
     ed0:	fdc42783          	lw	a5,-36(s0)
     ed4:	fe042703          	lw	a4,-32(s0)
     ed8:	000106b7          	lui	a3,0x10
     edc:	e9c68693          	add	a3,a3,-356 # fe9c <SPRITE_CHESS_PAWN>
     ee0:	fe442603          	lw	a2,-28(s0)
     ee4:	fe842583          	lw	a1,-24(s0)
     ee8:	fec42503          	lw	a0,-20(s0)
     eec:	c41ff0ef          	jal	b2c <render_sprite_width_16_height_any>
     ef0:	1900006f          	j	1080 <render_sprite+0x240>
     ef4:	fdc42783          	lw	a5,-36(s0)
     ef8:	fe042703          	lw	a4,-32(s0)
     efc:	000106b7          	lui	a3,0x10
     f00:	edc68693          	add	a3,a3,-292 # fedc <SPRITE_CHESS_KNIGHT>
     f04:	fe442603          	lw	a2,-28(s0)
     f08:	fe842583          	lw	a1,-24(s0)
     f0c:	fec42503          	lw	a0,-20(s0)
     f10:	c1dff0ef          	jal	b2c <render_sprite_width_16_height_any>
     f14:	16c0006f          	j	1080 <render_sprite+0x240>
     f18:	fdc42783          	lw	a5,-36(s0)
     f1c:	fe042703          	lw	a4,-32(s0)
     f20:	000106b7          	lui	a3,0x10
     f24:	f1c68693          	add	a3,a3,-228 # ff1c <SPRITE_CHESS_QUEEN>
     f28:	fe442603          	lw	a2,-28(s0)
     f2c:	fe842583          	lw	a1,-24(s0)
     f30:	fec42503          	lw	a0,-20(s0)
     f34:	bf9ff0ef          	jal	b2c <render_sprite_width_16_height_any>
     f38:	1480006f          	j	1080 <render_sprite+0x240>
     f3c:	fdc42783          	lw	a5,-36(s0)
     f40:	fe042703          	lw	a4,-32(s0)
     f44:	000106b7          	lui	a3,0x10
     f48:	f5c68693          	add	a3,a3,-164 # ff5c <SPRITE_CHESS_KING>
     f4c:	fe442603          	lw	a2,-28(s0)
     f50:	fe842583          	lw	a1,-24(s0)
     f54:	fec42503          	lw	a0,-20(s0)
     f58:	bd5ff0ef          	jal	b2c <render_sprite_width_16_height_any>
     f5c:	1240006f          	j	1080 <render_sprite+0x240>
     f60:	fdc42783          	lw	a5,-36(s0)
     f64:	fe042703          	lw	a4,-32(s0)
     f68:	000106b7          	lui	a3,0x10
     f6c:	f9c68693          	add	a3,a3,-100 # ff9c <SPRITE_CHESS_BISHOP>
     f70:	fe442603          	lw	a2,-28(s0)
     f74:	fe842583          	lw	a1,-24(s0)
     f78:	fec42503          	lw	a0,-20(s0)
     f7c:	bb1ff0ef          	jal	b2c <render_sprite_width_16_height_any>
     f80:	1000006f          	j	1080 <render_sprite+0x240>
     f84:	fdc42783          	lw	a5,-36(s0)
     f88:	fe042703          	lw	a4,-32(s0)
     f8c:	000116b7          	lui	a3,0x11
     f90:	e7868693          	add	a3,a3,-392 # 10e78 <SPRITE_CHECKERS_STAR>
     f94:	fe442603          	lw	a2,-28(s0)
     f98:	fe842583          	lw	a1,-24(s0)
     f9c:	fec42503          	lw	a0,-20(s0)
     fa0:	cf1ff0ef          	jal	c90 <render_sprite_width_8_height_8>
     fa4:	0dc0006f          	j	1080 <render_sprite+0x240>
     fa8:	fdc42783          	lw	a5,-36(s0)
     fac:	fe042703          	lw	a4,-32(s0)
     fb0:	000106b7          	lui	a3,0x10
     fb4:	fe068693          	add	a3,a3,-32 # ffe0 <SPRITE_TETRIS_BLOCK>
     fb8:	fe442603          	lw	a2,-28(s0)
     fbc:	fe842583          	lw	a1,-24(s0)
     fc0:	fec42503          	lw	a0,-20(s0)
     fc4:	ccdff0ef          	jal	c90 <render_sprite_width_8_height_8>
     fc8:	0b80006f          	j	1080 <render_sprite+0x240>
     fcc:	fdc42783          	lw	a5,-36(s0)
     fd0:	fe042703          	lw	a4,-32(s0)
     fd4:	000106b7          	lui	a3,0x10
     fd8:	ff868693          	add	a3,a3,-8 # fff8 <SPRITE_CARD_HEARTS>
     fdc:	fe442603          	lw	a2,-28(s0)
     fe0:	fe842583          	lw	a1,-24(s0)
     fe4:	fec42503          	lw	a0,-20(s0)
     fe8:	b45ff0ef          	jal	b2c <render_sprite_width_16_height_any>
     fec:	0940006f          	j	1080 <render_sprite+0x240>
     ff0:	fdc42783          	lw	a5,-36(s0)
     ff4:	fe042703          	lw	a4,-32(s0)
     ff8:	000106b7          	lui	a3,0x10
     ffc:	01868693          	add	a3,a3,24 # 10018 <SPRITE_CARD_DIAMONDS>
    1000:	fe442603          	lw	a2,-28(s0)
    1004:	fe842583          	lw	a1,-24(s0)
    1008:	fec42503          	lw	a0,-20(s0)
    100c:	b21ff0ef          	jal	b2c <render_sprite_width_16_height_any>
    1010:	0700006f          	j	1080 <render_sprite+0x240>
    1014:	fdc42783          	lw	a5,-36(s0)
    1018:	fe042703          	lw	a4,-32(s0)
    101c:	000106b7          	lui	a3,0x10
    1020:	03868693          	add	a3,a3,56 # 10038 <SPRITE_REFRESH>
    1024:	fe442603          	lw	a2,-28(s0)
    1028:	fe842583          	lw	a1,-24(s0)
    102c:	fec42503          	lw	a0,-20(s0)
    1030:	afdff0ef          	jal	b2c <render_sprite_width_16_height_any>
    1034:	04c0006f          	j	1080 <render_sprite+0x240>
    1038:	fdc42783          	lw	a5,-36(s0)
    103c:	fe042703          	lw	a4,-32(s0)
    1040:	000106b7          	lui	a3,0x10
    1044:	05868693          	add	a3,a3,88 # 10058 <SPRITE_CHESS_ROOK>
    1048:	fe442603          	lw	a2,-28(s0)
    104c:	fe842583          	lw	a1,-24(s0)
    1050:	fec42503          	lw	a0,-20(s0)
    1054:	ad9ff0ef          	jal	b2c <render_sprite_width_16_height_any>
    1058:	0280006f          	j	1080 <render_sprite+0x240>
    105c:	fdc42783          	lw	a5,-36(s0)
    1060:	fe042703          	lw	a4,-32(s0)
    1064:	000106b7          	lui	a3,0x10
    1068:	09868693          	add	a3,a3,152 # 10098 <SPRITE_CARD_CLUBS>
    106c:	fe442603          	lw	a2,-28(s0)
    1070:	fe842583          	lw	a1,-24(s0)
    1074:	fec42503          	lw	a0,-20(s0)
    1078:	ab5ff0ef          	jal	b2c <render_sprite_width_16_height_any>
    107c:	00000013          	nop
    1080:	00000013          	nop
    1084:	02c12083          	lw	ra,44(sp)
    1088:	02812403          	lw	s0,40(sp)
    108c:	03010113          	add	sp,sp,48
    1090:	00008067          	ret

00001094 <plot_line_low>:
    1094:	fb010113          	add	sp,sp,-80
    1098:	04112623          	sw	ra,76(sp)
    109c:	04812423          	sw	s0,72(sp)
    10a0:	05010413          	add	s0,sp,80
    10a4:	fca42623          	sw	a0,-52(s0)
    10a8:	fcb42423          	sw	a1,-56(s0)
    10ac:	fcc42223          	sw	a2,-60(s0)
    10b0:	fcd42023          	sw	a3,-64(s0)
    10b4:	00070793          	mv	a5,a4
    10b8:	faf40fa3          	sb	a5,-65(s0)
    10bc:	fc442703          	lw	a4,-60(s0)
    10c0:	fcc42783          	lw	a5,-52(s0)
    10c4:	40f707b3          	sub	a5,a4,a5
    10c8:	fcf42c23          	sw	a5,-40(s0)
    10cc:	fc042703          	lw	a4,-64(s0)
    10d0:	fc842783          	lw	a5,-56(s0)
    10d4:	40f707b3          	sub	a5,a4,a5
    10d8:	fef42623          	sw	a5,-20(s0)
    10dc:	00100793          	li	a5,1
    10e0:	fef42423          	sw	a5,-24(s0)
    10e4:	fec42783          	lw	a5,-20(s0)
    10e8:	0007dc63          	bgez	a5,1100 <plot_line_low+0x6c>
    10ec:	fff00793          	li	a5,-1
    10f0:	fef42423          	sw	a5,-24(s0)
    10f4:	fec42783          	lw	a5,-20(s0)
    10f8:	40f007b3          	neg	a5,a5
    10fc:	fef42623          	sw	a5,-20(s0)
    1100:	fec42783          	lw	a5,-20(s0)
    1104:	00179713          	sll	a4,a5,0x1
    1108:	fd842783          	lw	a5,-40(s0)
    110c:	40f707b3          	sub	a5,a4,a5
    1110:	fef42223          	sw	a5,-28(s0)
    1114:	fc842783          	lw	a5,-56(s0)
    1118:	fef42023          	sw	a5,-32(s0)
    111c:	fcc42783          	lw	a5,-52(s0)
    1120:	fcf42e23          	sw	a5,-36(s0)
    1124:	0700006f          	j	1194 <plot_line_low+0x100>
    1128:	fbf44783          	lbu	a5,-65(s0)
    112c:	00078613          	mv	a2,a5
    1130:	fe042583          	lw	a1,-32(s0)
    1134:	fdc42503          	lw	a0,-36(s0)
    1138:	945ff0ef          	jal	a7c <io_vga_set_pixel>
    113c:	fe442783          	lw	a5,-28(s0)
    1140:	02f05a63          	blez	a5,1174 <plot_line_low+0xe0>
    1144:	fe042703          	lw	a4,-32(s0)
    1148:	fe842783          	lw	a5,-24(s0)
    114c:	00f707b3          	add	a5,a4,a5
    1150:	fef42023          	sw	a5,-32(s0)
    1154:	fec42703          	lw	a4,-20(s0)
    1158:	fd842783          	lw	a5,-40(s0)
    115c:	40f707b3          	sub	a5,a4,a5
    1160:	00179793          	sll	a5,a5,0x1
    1164:	fe442703          	lw	a4,-28(s0)
    1168:	00f707b3          	add	a5,a4,a5
    116c:	fef42223          	sw	a5,-28(s0)
    1170:	0180006f          	j	1188 <plot_line_low+0xf4>
    1174:	fec42783          	lw	a5,-20(s0)
    1178:	00179793          	sll	a5,a5,0x1
    117c:	fe442703          	lw	a4,-28(s0)
    1180:	00f707b3          	add	a5,a4,a5
    1184:	fef42223          	sw	a5,-28(s0)
    1188:	fdc42783          	lw	a5,-36(s0)
    118c:	00178793          	add	a5,a5,1
    1190:	fcf42e23          	sw	a5,-36(s0)
    1194:	fdc42703          	lw	a4,-36(s0)
    1198:	fc442783          	lw	a5,-60(s0)
    119c:	f8e7d6e3          	bge	a5,a4,1128 <plot_line_low+0x94>
    11a0:	00000013          	nop
    11a4:	00000013          	nop
    11a8:	04c12083          	lw	ra,76(sp)
    11ac:	04812403          	lw	s0,72(sp)
    11b0:	05010113          	add	sp,sp,80
    11b4:	00008067          	ret

000011b8 <plot_line_high>:
    11b8:	fb010113          	add	sp,sp,-80
    11bc:	04112623          	sw	ra,76(sp)
    11c0:	04812423          	sw	s0,72(sp)
    11c4:	05010413          	add	s0,sp,80
    11c8:	fca42623          	sw	a0,-52(s0)
    11cc:	fcb42423          	sw	a1,-56(s0)
    11d0:	fcc42223          	sw	a2,-60(s0)
    11d4:	fcd42023          	sw	a3,-64(s0)
    11d8:	00070793          	mv	a5,a4
    11dc:	faf40fa3          	sb	a5,-65(s0)
    11e0:	fc442703          	lw	a4,-60(s0)
    11e4:	fcc42783          	lw	a5,-52(s0)
    11e8:	40f707b3          	sub	a5,a4,a5
    11ec:	fef42623          	sw	a5,-20(s0)
    11f0:	fc042703          	lw	a4,-64(s0)
    11f4:	fc842783          	lw	a5,-56(s0)
    11f8:	40f707b3          	sub	a5,a4,a5
    11fc:	fcf42c23          	sw	a5,-40(s0)
    1200:	00100793          	li	a5,1
    1204:	fef42423          	sw	a5,-24(s0)
    1208:	fec42783          	lw	a5,-20(s0)
    120c:	0007dc63          	bgez	a5,1224 <plot_line_high+0x6c>
    1210:	fff00793          	li	a5,-1
    1214:	fef42423          	sw	a5,-24(s0)
    1218:	fec42783          	lw	a5,-20(s0)
    121c:	40f007b3          	neg	a5,a5
    1220:	fef42623          	sw	a5,-20(s0)
    1224:	fec42783          	lw	a5,-20(s0)
    1228:	00179713          	sll	a4,a5,0x1
    122c:	fd842783          	lw	a5,-40(s0)
    1230:	40f707b3          	sub	a5,a4,a5
    1234:	fef42223          	sw	a5,-28(s0)
    1238:	fcc42783          	lw	a5,-52(s0)
    123c:	fef42023          	sw	a5,-32(s0)
    1240:	fc842783          	lw	a5,-56(s0)
    1244:	fcf42e23          	sw	a5,-36(s0)
    1248:	0700006f          	j	12b8 <plot_line_high+0x100>
    124c:	fbf44783          	lbu	a5,-65(s0)
    1250:	00078613          	mv	a2,a5
    1254:	fdc42583          	lw	a1,-36(s0)
    1258:	fe042503          	lw	a0,-32(s0)
    125c:	821ff0ef          	jal	a7c <io_vga_set_pixel>
    1260:	fe442783          	lw	a5,-28(s0)
    1264:	02f05a63          	blez	a5,1298 <plot_line_high+0xe0>
    1268:	fe042703          	lw	a4,-32(s0)
    126c:	fe842783          	lw	a5,-24(s0)
    1270:	00f707b3          	add	a5,a4,a5
    1274:	fef42023          	sw	a5,-32(s0)
    1278:	fec42703          	lw	a4,-20(s0)
    127c:	fd842783          	lw	a5,-40(s0)
    1280:	40f707b3          	sub	a5,a4,a5
    1284:	00179793          	sll	a5,a5,0x1
    1288:	fe442703          	lw	a4,-28(s0)
    128c:	00f707b3          	add	a5,a4,a5
    1290:	fef42223          	sw	a5,-28(s0)
    1294:	0180006f          	j	12ac <plot_line_high+0xf4>
    1298:	fec42783          	lw	a5,-20(s0)
    129c:	00179793          	sll	a5,a5,0x1
    12a0:	fe442703          	lw	a4,-28(s0)
    12a4:	00f707b3          	add	a5,a4,a5
    12a8:	fef42223          	sw	a5,-28(s0)
    12ac:	fdc42783          	lw	a5,-36(s0)
    12b0:	00178793          	add	a5,a5,1
    12b4:	fcf42e23          	sw	a5,-36(s0)
    12b8:	fdc42703          	lw	a4,-36(s0)
    12bc:	fc042783          	lw	a5,-64(s0)
    12c0:	f8e7d6e3          	bge	a5,a4,124c <plot_line_high+0x94>
    12c4:	00000013          	nop
    12c8:	00000013          	nop
    12cc:	04c12083          	lw	ra,76(sp)
    12d0:	04812403          	lw	s0,72(sp)
    12d4:	05010113          	add	sp,sp,80
    12d8:	00008067          	ret

000012dc <render_line>:
    12dc:	fd010113          	add	sp,sp,-48
    12e0:	02112623          	sw	ra,44(sp)
    12e4:	02812423          	sw	s0,40(sp)
    12e8:	03010413          	add	s0,sp,48
    12ec:	fea42623          	sw	a0,-20(s0)
    12f0:	feb42423          	sw	a1,-24(s0)
    12f4:	fec42223          	sw	a2,-28(s0)
    12f8:	fed42023          	sw	a3,-32(s0)
    12fc:	00070793          	mv	a5,a4
    1300:	fcf40fa3          	sb	a5,-33(s0)
    1304:	fe042703          	lw	a4,-32(s0)
    1308:	fe842783          	lw	a5,-24(s0)
    130c:	40f70733          	sub	a4,a4,a5
    1310:	41f75793          	sra	a5,a4,0x1f
    1314:	00e7c733          	xor	a4,a5,a4
    1318:	40f70733          	sub	a4,a4,a5
    131c:	fe442683          	lw	a3,-28(s0)
    1320:	fec42783          	lw	a5,-20(s0)
    1324:	40f687b3          	sub	a5,a3,a5
    1328:	41f7d693          	sra	a3,a5,0x1f
    132c:	00f6c7b3          	xor	a5,a3,a5
    1330:	40d787b3          	sub	a5,a5,a3
    1334:	04f75863          	bge	a4,a5,1384 <render_line+0xa8>
    1338:	fec42703          	lw	a4,-20(s0)
    133c:	fe442783          	lw	a5,-28(s0)
    1340:	02e7d263          	bge	a5,a4,1364 <render_line+0x88>
    1344:	fdf44783          	lbu	a5,-33(s0)
    1348:	00078713          	mv	a4,a5
    134c:	fe842683          	lw	a3,-24(s0)
    1350:	fec42603          	lw	a2,-20(s0)
    1354:	fe042583          	lw	a1,-32(s0)
    1358:	fe442503          	lw	a0,-28(s0)
    135c:	d39ff0ef          	jal	1094 <plot_line_low>
    1360:	06c0006f          	j	13cc <render_line+0xf0>
    1364:	fdf44783          	lbu	a5,-33(s0)
    1368:	00078713          	mv	a4,a5
    136c:	fe042683          	lw	a3,-32(s0)
    1370:	fe442603          	lw	a2,-28(s0)
    1374:	fe842583          	lw	a1,-24(s0)
    1378:	fec42503          	lw	a0,-20(s0)
    137c:	d19ff0ef          	jal	1094 <plot_line_low>
    1380:	04c0006f          	j	13cc <render_line+0xf0>
    1384:	fe842703          	lw	a4,-24(s0)
    1388:	fe042783          	lw	a5,-32(s0)
    138c:	02e7d263          	bge	a5,a4,13b0 <render_line+0xd4>
    1390:	fdf44783          	lbu	a5,-33(s0)
    1394:	00078713          	mv	a4,a5
    1398:	fe842683          	lw	a3,-24(s0)
    139c:	fec42603          	lw	a2,-20(s0)
    13a0:	fe042583          	lw	a1,-32(s0)
    13a4:	fe442503          	lw	a0,-28(s0)
    13a8:	e11ff0ef          	jal	11b8 <plot_line_high>
    13ac:	0200006f          	j	13cc <render_line+0xf0>
    13b0:	fdf44783          	lbu	a5,-33(s0)
    13b4:	00078713          	mv	a4,a5
    13b8:	fe042683          	lw	a3,-32(s0)
    13bc:	fe442603          	lw	a2,-28(s0)
    13c0:	fe842583          	lw	a1,-24(s0)
    13c4:	fec42503          	lw	a0,-20(s0)
    13c8:	df1ff0ef          	jal	11b8 <plot_line_high>
    13cc:	00000013          	nop
    13d0:	02c12083          	lw	ra,44(sp)
    13d4:	02812403          	lw	s0,40(sp)
    13d8:	03010113          	add	sp,sp,48
    13dc:	00008067          	ret

000013e0 <render_rect_border>:
    13e0:	fc010113          	add	sp,sp,-64
    13e4:	02112e23          	sw	ra,60(sp)
    13e8:	02812c23          	sw	s0,56(sp)
    13ec:	04010413          	add	s0,sp,64
    13f0:	fca42e23          	sw	a0,-36(s0)
    13f4:	fcb42c23          	sw	a1,-40(s0)
    13f8:	fcc42a23          	sw	a2,-44(s0)
    13fc:	fcd42823          	sw	a3,-48(s0)
    1400:	00070793          	mv	a5,a4
    1404:	fcf407a3          	sb	a5,-49(s0)
    1408:	fe042623          	sw	zero,-20(s0)
    140c:	0600006f          	j	146c <render_rect_border+0x8c>
    1410:	fdc42703          	lw	a4,-36(s0)
    1414:	fec42783          	lw	a5,-20(s0)
    1418:	00f707b3          	add	a5,a4,a5
    141c:	fcf44703          	lbu	a4,-49(s0)
    1420:	00070613          	mv	a2,a4
    1424:	fd842583          	lw	a1,-40(s0)
    1428:	00078513          	mv	a0,a5
    142c:	e50ff0ef          	jal	a7c <io_vga_set_pixel>
    1430:	fdc42703          	lw	a4,-36(s0)
    1434:	fec42783          	lw	a5,-20(s0)
    1438:	00f706b3          	add	a3,a4,a5
    143c:	fd842703          	lw	a4,-40(s0)
    1440:	fd042783          	lw	a5,-48(s0)
    1444:	00f707b3          	add	a5,a4,a5
    1448:	fff78793          	add	a5,a5,-1
    144c:	fcf44703          	lbu	a4,-49(s0)
    1450:	00070613          	mv	a2,a4
    1454:	00078593          	mv	a1,a5
    1458:	00068513          	mv	a0,a3
    145c:	e20ff0ef          	jal	a7c <io_vga_set_pixel>
    1460:	fec42783          	lw	a5,-20(s0)
    1464:	00178793          	add	a5,a5,1
    1468:	fef42623          	sw	a5,-20(s0)
    146c:	fec42703          	lw	a4,-20(s0)
    1470:	fd442783          	lw	a5,-44(s0)
    1474:	f8f74ee3          	blt	a4,a5,1410 <render_rect_border+0x30>
    1478:	fe042423          	sw	zero,-24(s0)
    147c:	0600006f          	j	14dc <render_rect_border+0xfc>
    1480:	fd842703          	lw	a4,-40(s0)
    1484:	fe842783          	lw	a5,-24(s0)
    1488:	00f707b3          	add	a5,a4,a5
    148c:	fcf44703          	lbu	a4,-49(s0)
    1490:	00070613          	mv	a2,a4
    1494:	00078593          	mv	a1,a5
    1498:	fdc42503          	lw	a0,-36(s0)
    149c:	de0ff0ef          	jal	a7c <io_vga_set_pixel>
    14a0:	fdc42703          	lw	a4,-36(s0)
    14a4:	fd442783          	lw	a5,-44(s0)
    14a8:	00f707b3          	add	a5,a4,a5
    14ac:	fff78693          	add	a3,a5,-1
    14b0:	fd842703          	lw	a4,-40(s0)
    14b4:	fe842783          	lw	a5,-24(s0)
    14b8:	00f707b3          	add	a5,a4,a5
    14bc:	fcf44703          	lbu	a4,-49(s0)
    14c0:	00070613          	mv	a2,a4
    14c4:	00078593          	mv	a1,a5
    14c8:	00068513          	mv	a0,a3
    14cc:	db0ff0ef          	jal	a7c <io_vga_set_pixel>
    14d0:	fe842783          	lw	a5,-24(s0)
    14d4:	00178793          	add	a5,a5,1
    14d8:	fef42423          	sw	a5,-24(s0)
    14dc:	fe842703          	lw	a4,-24(s0)
    14e0:	fd042783          	lw	a5,-48(s0)
    14e4:	f8f74ee3          	blt	a4,a5,1480 <render_rect_border+0xa0>
    14e8:	00000013          	nop
    14ec:	00000013          	nop
    14f0:	03c12083          	lw	ra,60(sp)
    14f4:	03812403          	lw	s0,56(sp)
    14f8:	04010113          	add	sp,sp,64
    14fc:	00008067          	ret

00001500 <render_rect_fill>:
    1500:	fc010113          	add	sp,sp,-64
    1504:	02112e23          	sw	ra,60(sp)
    1508:	02812c23          	sw	s0,56(sp)
    150c:	04010413          	add	s0,sp,64
    1510:	fca42e23          	sw	a0,-36(s0)
    1514:	fcb42c23          	sw	a1,-40(s0)
    1518:	fcc42a23          	sw	a2,-44(s0)
    151c:	fcd42823          	sw	a3,-48(s0)
    1520:	00070793          	mv	a5,a4
    1524:	fcf407a3          	sb	a5,-49(s0)
    1528:	fe042623          	sw	zero,-20(s0)
    152c:	05c0006f          	j	1588 <render_rect_fill+0x88>
    1530:	fe042423          	sw	zero,-24(s0)
    1534:	03c0006f          	j	1570 <render_rect_fill+0x70>
    1538:	fdc42703          	lw	a4,-36(s0)
    153c:	fec42783          	lw	a5,-20(s0)
    1540:	00f706b3          	add	a3,a4,a5
    1544:	fd842703          	lw	a4,-40(s0)
    1548:	fe842783          	lw	a5,-24(s0)
    154c:	00f707b3          	add	a5,a4,a5
    1550:	fcf44703          	lbu	a4,-49(s0)
    1554:	00070613          	mv	a2,a4
    1558:	00078593          	mv	a1,a5
    155c:	00068513          	mv	a0,a3
    1560:	d1cff0ef          	jal	a7c <io_vga_set_pixel>
    1564:	fe842783          	lw	a5,-24(s0)
    1568:	00178793          	add	a5,a5,1
    156c:	fef42423          	sw	a5,-24(s0)
    1570:	fe842703          	lw	a4,-24(s0)
    1574:	fd042783          	lw	a5,-48(s0)
    1578:	fcf740e3          	blt	a4,a5,1538 <render_rect_fill+0x38>
    157c:	fec42783          	lw	a5,-20(s0)
    1580:	00178793          	add	a5,a5,1
    1584:	fef42623          	sw	a5,-20(s0)
    1588:	fec42703          	lw	a4,-20(s0)
    158c:	fd442783          	lw	a5,-44(s0)
    1590:	faf740e3          	blt	a4,a5,1530 <render_rect_fill+0x30>
    1594:	00000013          	nop
    1598:	00000013          	nop
    159c:	03c12083          	lw	ra,60(sp)
    15a0:	03812403          	lw	s0,56(sp)
    15a4:	04010113          	add	sp,sp,64
    15a8:	00008067          	ret

000015ac <render_20x20_circle>:
    15ac:	f3010113          	add	sp,sp,-208
    15b0:	0c112623          	sw	ra,204(sp)
    15b4:	0c812423          	sw	s0,200(sp)
    15b8:	0d010413          	add	s0,sp,208
    15bc:	f2a42e23          	sw	a0,-196(s0)
    15c0:	f2b42c23          	sw	a1,-200(s0)
    15c4:	00060793          	mv	a5,a2
    15c8:	f2f40ba3          	sb	a5,-201(s0)
    15cc:	000107b7          	lui	a5,0x10
    15d0:	10878713          	add	a4,a5,264 # 10108 <SPRITE_CARD_CLUBS+0x70>
    15d4:	f9840793          	add	a5,s0,-104
    15d8:	00070693          	mv	a3,a4
    15dc:	05000713          	li	a4,80
    15e0:	00070613          	mv	a2,a4
    15e4:	00068593          	mv	a1,a3
    15e8:	00078513          	mv	a0,a5
    15ec:	c25fe0ef          	jal	210 <memcpy>
    15f0:	000107b7          	lui	a5,0x10
    15f4:	15878713          	add	a4,a5,344 # 10158 <SPRITE_CARD_CLUBS+0xc0>
    15f8:	f4840793          	add	a5,s0,-184
    15fc:	00070693          	mv	a3,a4
    1600:	05000713          	li	a4,80
    1604:	00070613          	mv	a2,a4
    1608:	00068593          	mv	a1,a3
    160c:	00078513          	mv	a0,a5
    1610:	c01fe0ef          	jal	210 <memcpy>
    1614:	fe042623          	sw	zero,-20(s0)
    1618:	0840006f          	j	169c <render_20x20_circle+0xf0>
    161c:	fe042423          	sw	zero,-24(s0)
    1620:	0540006f          	j	1674 <render_20x20_circle+0xc8>
    1624:	fec42783          	lw	a5,-20(s0)
    1628:	00279793          	sll	a5,a5,0x2
    162c:	ff078793          	add	a5,a5,-16
    1630:	008787b3          	add	a5,a5,s0
    1634:	fa87a703          	lw	a4,-88(a5)
    1638:	f3c42783          	lw	a5,-196(s0)
    163c:	00f70733          	add	a4,a4,a5
    1640:	fe842783          	lw	a5,-24(s0)
    1644:	00f706b3          	add	a3,a4,a5
    1648:	f3842703          	lw	a4,-200(s0)
    164c:	fec42783          	lw	a5,-20(s0)
    1650:	00f707b3          	add	a5,a4,a5
    1654:	f3744703          	lbu	a4,-201(s0)
    1658:	00070613          	mv	a2,a4
    165c:	00078593          	mv	a1,a5
    1660:	00068513          	mv	a0,a3
    1664:	c18ff0ef          	jal	a7c <io_vga_set_pixel>
    1668:	fe842783          	lw	a5,-24(s0)
    166c:	00178793          	add	a5,a5,1
    1670:	fef42423          	sw	a5,-24(s0)
    1674:	fec42783          	lw	a5,-20(s0)
    1678:	00279793          	sll	a5,a5,0x2
    167c:	ff078793          	add	a5,a5,-16
    1680:	008787b3          	add	a5,a5,s0
    1684:	f587a783          	lw	a5,-168(a5)
    1688:	fe842703          	lw	a4,-24(s0)
    168c:	f8f74ce3          	blt	a4,a5,1624 <render_20x20_circle+0x78>
    1690:	fec42783          	lw	a5,-20(s0)
    1694:	00178793          	add	a5,a5,1
    1698:	fef42623          	sw	a5,-20(s0)
    169c:	fec42703          	lw	a4,-20(s0)
    16a0:	01300793          	li	a5,19
    16a4:	f6e7dce3          	bge	a5,a4,161c <render_20x20_circle+0x70>
    16a8:	00000013          	nop
    16ac:	00000013          	nop
    16b0:	0cc12083          	lw	ra,204(sp)
    16b4:	0c812403          	lw	s0,200(sp)
    16b8:	0d010113          	add	sp,sp,208
    16bc:	00008067          	ret

000016c0 <render_12x12_circle>:
    16c0:	f7010113          	add	sp,sp,-144
    16c4:	08112623          	sw	ra,140(sp)
    16c8:	08812423          	sw	s0,136(sp)
    16cc:	09010413          	add	s0,sp,144
    16d0:	f6a42e23          	sw	a0,-132(s0)
    16d4:	f6b42c23          	sw	a1,-136(s0)
    16d8:	00060793          	mv	a5,a2
    16dc:	f6f40ba3          	sb	a5,-137(s0)
    16e0:	000107b7          	lui	a5,0x10
    16e4:	1a878793          	add	a5,a5,424 # 101a8 <SPRITE_CARD_CLUBS+0x110>
    16e8:	0007af03          	lw	t5,0(a5)
    16ec:	0047ae83          	lw	t4,4(a5)
    16f0:	0087ae03          	lw	t3,8(a5)
    16f4:	00c7a303          	lw	t1,12(a5)
    16f8:	0107a883          	lw	a7,16(a5)
    16fc:	0147a803          	lw	a6,20(a5)
    1700:	0187a503          	lw	a0,24(a5)
    1704:	01c7a583          	lw	a1,28(a5)
    1708:	0207a603          	lw	a2,32(a5)
    170c:	0247a683          	lw	a3,36(a5)
    1710:	0287a703          	lw	a4,40(a5)
    1714:	02c7a783          	lw	a5,44(a5)
    1718:	fbe42c23          	sw	t5,-72(s0)
    171c:	fbd42e23          	sw	t4,-68(s0)
    1720:	fdc42023          	sw	t3,-64(s0)
    1724:	fc642223          	sw	t1,-60(s0)
    1728:	fd142423          	sw	a7,-56(s0)
    172c:	fd042623          	sw	a6,-52(s0)
    1730:	fca42823          	sw	a0,-48(s0)
    1734:	fcb42a23          	sw	a1,-44(s0)
    1738:	fcc42c23          	sw	a2,-40(s0)
    173c:	fcd42e23          	sw	a3,-36(s0)
    1740:	fee42023          	sw	a4,-32(s0)
    1744:	fef42223          	sw	a5,-28(s0)
    1748:	000107b7          	lui	a5,0x10
    174c:	1d878793          	add	a5,a5,472 # 101d8 <SPRITE_CARD_CLUBS+0x140>
    1750:	0007af03          	lw	t5,0(a5)
    1754:	0047ae83          	lw	t4,4(a5)
    1758:	0087ae03          	lw	t3,8(a5)
    175c:	00c7a303          	lw	t1,12(a5)
    1760:	0107a883          	lw	a7,16(a5)
    1764:	0147a803          	lw	a6,20(a5)
    1768:	0187a503          	lw	a0,24(a5)
    176c:	01c7a583          	lw	a1,28(a5)
    1770:	0207a603          	lw	a2,32(a5)
    1774:	0247a683          	lw	a3,36(a5)
    1778:	0287a703          	lw	a4,40(a5)
    177c:	02c7a783          	lw	a5,44(a5)
    1780:	f9e42423          	sw	t5,-120(s0)
    1784:	f9d42623          	sw	t4,-116(s0)
    1788:	f9c42823          	sw	t3,-112(s0)
    178c:	f8642a23          	sw	t1,-108(s0)
    1790:	f9142c23          	sw	a7,-104(s0)
    1794:	f9042e23          	sw	a6,-100(s0)
    1798:	faa42023          	sw	a0,-96(s0)
    179c:	fab42223          	sw	a1,-92(s0)
    17a0:	fac42423          	sw	a2,-88(s0)
    17a4:	fad42623          	sw	a3,-84(s0)
    17a8:	fae42823          	sw	a4,-80(s0)
    17ac:	faf42a23          	sw	a5,-76(s0)
    17b0:	fe042623          	sw	zero,-20(s0)
    17b4:	0840006f          	j	1838 <render_12x12_circle+0x178>
    17b8:	fe042423          	sw	zero,-24(s0)
    17bc:	0540006f          	j	1810 <render_12x12_circle+0x150>
    17c0:	fec42783          	lw	a5,-20(s0)
    17c4:	00279793          	sll	a5,a5,0x2
    17c8:	ff078793          	add	a5,a5,-16
    17cc:	008787b3          	add	a5,a5,s0
    17d0:	fc87a703          	lw	a4,-56(a5)
    17d4:	f7c42783          	lw	a5,-132(s0)
    17d8:	00f70733          	add	a4,a4,a5
    17dc:	fe842783          	lw	a5,-24(s0)
    17e0:	00f706b3          	add	a3,a4,a5
    17e4:	f7842703          	lw	a4,-136(s0)
    17e8:	fec42783          	lw	a5,-20(s0)
    17ec:	00f707b3          	add	a5,a4,a5
    17f0:	f7744703          	lbu	a4,-137(s0)
    17f4:	00070613          	mv	a2,a4
    17f8:	00078593          	mv	a1,a5
    17fc:	00068513          	mv	a0,a3
    1800:	a7cff0ef          	jal	a7c <io_vga_set_pixel>
    1804:	fe842783          	lw	a5,-24(s0)
    1808:	00178793          	add	a5,a5,1
    180c:	fef42423          	sw	a5,-24(s0)
    1810:	fec42783          	lw	a5,-20(s0)
    1814:	00279793          	sll	a5,a5,0x2
    1818:	ff078793          	add	a5,a5,-16
    181c:	008787b3          	add	a5,a5,s0
    1820:	f987a783          	lw	a5,-104(a5)
    1824:	fe842703          	lw	a4,-24(s0)
    1828:	f8f74ce3          	blt	a4,a5,17c0 <render_12x12_circle+0x100>
    182c:	fec42783          	lw	a5,-20(s0)
    1830:	00178793          	add	a5,a5,1
    1834:	fef42623          	sw	a5,-20(s0)
    1838:	fec42703          	lw	a4,-20(s0)
    183c:	00b00793          	li	a5,11
    1840:	f6e7dce3          	bge	a5,a4,17b8 <render_12x12_circle+0xf8>
    1844:	00000013          	nop
    1848:	00000013          	nop
    184c:	08c12083          	lw	ra,140(sp)
    1850:	08812403          	lw	s0,136(sp)
    1854:	09010113          	add	sp,sp,144
    1858:	00008067          	ret

0000185c <render_8x8_circle>:
    185c:	f9010113          	add	sp,sp,-112
    1860:	06112623          	sw	ra,108(sp)
    1864:	06812423          	sw	s0,104(sp)
    1868:	07010413          	add	s0,sp,112
    186c:	f8a42e23          	sw	a0,-100(s0)
    1870:	f8b42c23          	sw	a1,-104(s0)
    1874:	00060793          	mv	a5,a2
    1878:	f8f40ba3          	sb	a5,-105(s0)
    187c:	000107b7          	lui	a5,0x10
    1880:	20878793          	add	a5,a5,520 # 10208 <SPRITE_CARD_CLUBS+0x170>
    1884:	0007a883          	lw	a7,0(a5)
    1888:	0047a803          	lw	a6,4(a5)
    188c:	0087a503          	lw	a0,8(a5)
    1890:	00c7a583          	lw	a1,12(a5)
    1894:	0107a603          	lw	a2,16(a5)
    1898:	0147a683          	lw	a3,20(a5)
    189c:	0187a703          	lw	a4,24(a5)
    18a0:	01c7a783          	lw	a5,28(a5)
    18a4:	fd142423          	sw	a7,-56(s0)
    18a8:	fd042623          	sw	a6,-52(s0)
    18ac:	fca42823          	sw	a0,-48(s0)
    18b0:	fcb42a23          	sw	a1,-44(s0)
    18b4:	fcc42c23          	sw	a2,-40(s0)
    18b8:	fcd42e23          	sw	a3,-36(s0)
    18bc:	fee42023          	sw	a4,-32(s0)
    18c0:	fef42223          	sw	a5,-28(s0)
    18c4:	000107b7          	lui	a5,0x10
    18c8:	22878793          	add	a5,a5,552 # 10228 <SPRITE_CARD_CLUBS+0x190>
    18cc:	0007a883          	lw	a7,0(a5)
    18d0:	0047a803          	lw	a6,4(a5)
    18d4:	0087a503          	lw	a0,8(a5)
    18d8:	00c7a583          	lw	a1,12(a5)
    18dc:	0107a603          	lw	a2,16(a5)
    18e0:	0147a683          	lw	a3,20(a5)
    18e4:	0187a703          	lw	a4,24(a5)
    18e8:	01c7a783          	lw	a5,28(a5)
    18ec:	fb142423          	sw	a7,-88(s0)
    18f0:	fb042623          	sw	a6,-84(s0)
    18f4:	faa42823          	sw	a0,-80(s0)
    18f8:	fab42a23          	sw	a1,-76(s0)
    18fc:	fac42c23          	sw	a2,-72(s0)
    1900:	fad42e23          	sw	a3,-68(s0)
    1904:	fce42023          	sw	a4,-64(s0)
    1908:	fcf42223          	sw	a5,-60(s0)
    190c:	fe042623          	sw	zero,-20(s0)
    1910:	0840006f          	j	1994 <render_8x8_circle+0x138>
    1914:	fe042423          	sw	zero,-24(s0)
    1918:	0540006f          	j	196c <render_8x8_circle+0x110>
    191c:	fec42783          	lw	a5,-20(s0)
    1920:	00279793          	sll	a5,a5,0x2
    1924:	ff078793          	add	a5,a5,-16
    1928:	008787b3          	add	a5,a5,s0
    192c:	fd87a703          	lw	a4,-40(a5)
    1930:	f9c42783          	lw	a5,-100(s0)
    1934:	00f70733          	add	a4,a4,a5
    1938:	fe842783          	lw	a5,-24(s0)
    193c:	00f706b3          	add	a3,a4,a5
    1940:	f9842703          	lw	a4,-104(s0)
    1944:	fec42783          	lw	a5,-20(s0)
    1948:	00f707b3          	add	a5,a4,a5
    194c:	f9744703          	lbu	a4,-105(s0)
    1950:	00070613          	mv	a2,a4
    1954:	00078593          	mv	a1,a5
    1958:	00068513          	mv	a0,a3
    195c:	920ff0ef          	jal	a7c <io_vga_set_pixel>
    1960:	fe842783          	lw	a5,-24(s0)
    1964:	00178793          	add	a5,a5,1
    1968:	fef42423          	sw	a5,-24(s0)
    196c:	fec42783          	lw	a5,-20(s0)
    1970:	00279793          	sll	a5,a5,0x2
    1974:	ff078793          	add	a5,a5,-16
    1978:	008787b3          	add	a5,a5,s0
    197c:	fb87a783          	lw	a5,-72(a5)
    1980:	fe842703          	lw	a4,-24(s0)
    1984:	f8f74ce3          	blt	a4,a5,191c <render_8x8_circle+0xc0>
    1988:	fec42783          	lw	a5,-20(s0)
    198c:	00178793          	add	a5,a5,1
    1990:	fef42623          	sw	a5,-20(s0)
    1994:	fec42703          	lw	a4,-20(s0)
    1998:	00700793          	li	a5,7
    199c:	f6e7dce3          	bge	a5,a4,1914 <render_8x8_circle+0xb8>
    19a0:	00000013          	nop
    19a4:	00000013          	nop
    19a8:	06c12083          	lw	ra,108(sp)
    19ac:	06812403          	lw	s0,104(sp)
    19b0:	07010113          	add	sp,sp,112
    19b4:	00008067          	ret

000019b8 <render_character>:
    19b8:	fd010113          	add	sp,sp,-48
    19bc:	02112623          	sw	ra,44(sp)
    19c0:	02812423          	sw	s0,40(sp)
    19c4:	03010413          	add	s0,sp,48
    19c8:	fcd42c23          	sw	a3,-40(s0)
    19cc:	fce42a23          	sw	a4,-44(s0)
    19d0:	fcf42823          	sw	a5,-48(s0)
    19d4:	00050793          	mv	a5,a0
    19d8:	fcf40fa3          	sb	a5,-33(s0)
    19dc:	00058793          	mv	a5,a1
    19e0:	fcf40f23          	sb	a5,-34(s0)
    19e4:	00060793          	mv	a5,a2
    19e8:	fcf40ea3          	sb	a5,-35(s0)
    19ec:	fdf44783          	lbu	a5,-33(s0)
    19f0:	00010737          	lui	a4,0x10
    19f4:	24870713          	add	a4,a4,584 # 10248 <glyphs_code>
    19f8:	00279793          	sll	a5,a5,0x2
    19fc:	00f707b3          	add	a5,a4,a5
    1a00:	0007a783          	lw	a5,0(a5)
    1a04:	02079663          	bnez	a5,1a30 <render_character+0x78>
    1a08:	fdf44783          	lbu	a5,-33(s0)
    1a0c:	00010737          	lui	a4,0x10
    1a10:	44870713          	add	a4,a4,1096 # 10448 <glyphs_width>
    1a14:	00279793          	sll	a5,a5,0x2
    1a18:	00f707b3          	add	a5,a4,a5
    1a1c:	0007a783          	lw	a5,0(a5)
    1a20:	00079863          	bnez	a5,1a30 <render_character+0x78>
    1a24:	000107b7          	lui	a5,0x10
    1a28:	64878513          	add	a0,a5,1608 # 10648 <glyphs_width+0x200>
    1a2c:	1b9000ef          	jal	23e4 <panic>
    1a30:	fe042623          	sw	zero,-20(s0)
    1a34:	12c0006f          	j	1b60 <render_character+0x1a8>
    1a38:	fe042423          	sw	zero,-24(s0)
    1a3c:	10c0006f          	j	1b48 <render_character+0x190>
    1a40:	fec42703          	lw	a4,-20(s0)
    1a44:	00500793          	li	a5,5
    1a48:	04f71063          	bne	a4,a5,1a88 <render_character+0xd0>
    1a4c:	fd042783          	lw	a5,-48(s0)
    1a50:	0007a703          	lw	a4,0(a5)
    1a54:	fd842783          	lw	a5,-40(s0)
    1a58:	00f70733          	add	a4,a4,a5
    1a5c:	fec42783          	lw	a5,-20(s0)
    1a60:	00f706b3          	add	a3,a4,a5
    1a64:	fd442703          	lw	a4,-44(s0)
    1a68:	fe842783          	lw	a5,-24(s0)
    1a6c:	00f707b3          	add	a5,a4,a5
    1a70:	fdd44703          	lbu	a4,-35(s0)
    1a74:	00070613          	mv	a2,a4
    1a78:	00078593          	mv	a1,a5
    1a7c:	00068513          	mv	a0,a3
    1a80:	ffdfe0ef          	jal	a7c <io_vga_set_pixel>
    1a84:	0b80006f          	j	1b3c <render_character+0x184>
    1a88:	fdf44783          	lbu	a5,-33(s0)
    1a8c:	00010737          	lui	a4,0x10
    1a90:	24870713          	add	a4,a4,584 # 10248 <glyphs_code>
    1a94:	00279793          	sll	a5,a5,0x2
    1a98:	00f707b3          	add	a5,a4,a5
    1a9c:	0007a683          	lw	a3,0(a5)
    1aa0:	fe842703          	lw	a4,-24(s0)
    1aa4:	00070793          	mv	a5,a4
    1aa8:	00279793          	sll	a5,a5,0x2
    1aac:	00e78733          	add	a4,a5,a4
    1ab0:	fec42783          	lw	a5,-20(s0)
    1ab4:	00f707b3          	add	a5,a4,a5
    1ab8:	00100713          	li	a4,1
    1abc:	00f717b3          	sll	a5,a4,a5
    1ac0:	00f6f7b3          	and	a5,a3,a5
    1ac4:	04078063          	beqz	a5,1b04 <render_character+0x14c>
    1ac8:	fd042783          	lw	a5,-48(s0)
    1acc:	0007a703          	lw	a4,0(a5)
    1ad0:	fd842783          	lw	a5,-40(s0)
    1ad4:	00f70733          	add	a4,a4,a5
    1ad8:	fec42783          	lw	a5,-20(s0)
    1adc:	00f706b3          	add	a3,a4,a5
    1ae0:	fd442703          	lw	a4,-44(s0)
    1ae4:	fe842783          	lw	a5,-24(s0)
    1ae8:	00f707b3          	add	a5,a4,a5
    1aec:	fde44703          	lbu	a4,-34(s0)
    1af0:	00070613          	mv	a2,a4
    1af4:	00078593          	mv	a1,a5
    1af8:	00068513          	mv	a0,a3
    1afc:	f81fe0ef          	jal	a7c <io_vga_set_pixel>
    1b00:	03c0006f          	j	1b3c <render_character+0x184>
    1b04:	fd042783          	lw	a5,-48(s0)
    1b08:	0007a703          	lw	a4,0(a5)
    1b0c:	fd842783          	lw	a5,-40(s0)
    1b10:	00f70733          	add	a4,a4,a5
    1b14:	fec42783          	lw	a5,-20(s0)
    1b18:	00f706b3          	add	a3,a4,a5
    1b1c:	fd442703          	lw	a4,-44(s0)
    1b20:	fe842783          	lw	a5,-24(s0)
    1b24:	00f707b3          	add	a5,a4,a5
    1b28:	fdd44703          	lbu	a4,-35(s0)
    1b2c:	00070613          	mv	a2,a4
    1b30:	00078593          	mv	a1,a5
    1b34:	00068513          	mv	a0,a3
    1b38:	f45fe0ef          	jal	a7c <io_vga_set_pixel>
    1b3c:	fe842783          	lw	a5,-24(s0)
    1b40:	00178793          	add	a5,a5,1
    1b44:	fef42423          	sw	a5,-24(s0)
    1b48:	fe842703          	lw	a4,-24(s0)
    1b4c:	00500793          	li	a5,5
    1b50:	eee7d8e3          	bge	a5,a4,1a40 <render_character+0x88>
    1b54:	fec42783          	lw	a5,-20(s0)
    1b58:	00178793          	add	a5,a5,1
    1b5c:	fef42623          	sw	a5,-20(s0)
    1b60:	fec42703          	lw	a4,-20(s0)
    1b64:	00500793          	li	a5,5
    1b68:	ece7d8e3          	bge	a5,a4,1a38 <render_character+0x80>
    1b6c:	fd042783          	lw	a5,-48(s0)
    1b70:	0007a783          	lw	a5,0(a5)
    1b74:	00078693          	mv	a3,a5
    1b78:	fdf44783          	lbu	a5,-33(s0)
    1b7c:	00010737          	lui	a4,0x10
    1b80:	44870713          	add	a4,a4,1096 # 10448 <glyphs_width>
    1b84:	00279793          	sll	a5,a5,0x2
    1b88:	00f707b3          	add	a5,a4,a5
    1b8c:	0007a783          	lw	a5,0(a5)
    1b90:	00f687b3          	add	a5,a3,a5
    1b94:	00178793          	add	a5,a5,1
    1b98:	00078713          	mv	a4,a5
    1b9c:	fd042783          	lw	a5,-48(s0)
    1ba0:	00e7a023          	sw	a4,0(a5)
    1ba4:	00000013          	nop
    1ba8:	02c12083          	lw	ra,44(sp)
    1bac:	02812403          	lw	s0,40(sp)
    1bb0:	03010113          	add	sp,sp,48
    1bb4:	00008067          	ret

00001bb8 <render_character_rot_180>:
    1bb8:	fd010113          	add	sp,sp,-48
    1bbc:	02112623          	sw	ra,44(sp)
    1bc0:	02812423          	sw	s0,40(sp)
    1bc4:	03010413          	add	s0,sp,48
    1bc8:	fcd42c23          	sw	a3,-40(s0)
    1bcc:	fce42a23          	sw	a4,-44(s0)
    1bd0:	fcf42823          	sw	a5,-48(s0)
    1bd4:	00050793          	mv	a5,a0
    1bd8:	fcf40fa3          	sb	a5,-33(s0)
    1bdc:	00058793          	mv	a5,a1
    1be0:	fcf40f23          	sb	a5,-34(s0)
    1be4:	00060793          	mv	a5,a2
    1be8:	fcf40ea3          	sb	a5,-35(s0)
    1bec:	fdf44783          	lbu	a5,-33(s0)
    1bf0:	00010737          	lui	a4,0x10
    1bf4:	24870713          	add	a4,a4,584 # 10248 <glyphs_code>
    1bf8:	00279793          	sll	a5,a5,0x2
    1bfc:	00f707b3          	add	a5,a4,a5
    1c00:	0007a783          	lw	a5,0(a5)
    1c04:	02079663          	bnez	a5,1c30 <render_character_rot_180+0x78>
    1c08:	fdf44783          	lbu	a5,-33(s0)
    1c0c:	00010737          	lui	a4,0x10
    1c10:	44870713          	add	a4,a4,1096 # 10448 <glyphs_width>
    1c14:	00279793          	sll	a5,a5,0x2
    1c18:	00f707b3          	add	a5,a4,a5
    1c1c:	0007a783          	lw	a5,0(a5)
    1c20:	00079863          	bnez	a5,1c30 <render_character_rot_180+0x78>
    1c24:	000107b7          	lui	a5,0x10
    1c28:	64878513          	add	a0,a5,1608 # 10648 <glyphs_width+0x200>
    1c2c:	7b8000ef          	jal	23e4 <panic>
    1c30:	fdf44783          	lbu	a5,-33(s0)
    1c34:	00010737          	lui	a4,0x10
    1c38:	44870713          	add	a4,a4,1096 # 10448 <glyphs_width>
    1c3c:	00279793          	sll	a5,a5,0x2
    1c40:	00f707b3          	add	a5,a4,a5
    1c44:	0007a783          	lw	a5,0(a5)
    1c48:	fef42223          	sw	a5,-28(s0)
    1c4c:	fe042623          	sw	zero,-20(s0)
    1c50:	1400006f          	j	1d90 <render_character_rot_180+0x1d8>
    1c54:	fe042423          	sw	zero,-24(s0)
    1c58:	1200006f          	j	1d78 <render_character_rot_180+0x1c0>
    1c5c:	fec42703          	lw	a4,-20(s0)
    1c60:	fe442783          	lw	a5,-28(s0)
    1c64:	04f71063          	bne	a4,a5,1ca4 <render_character_rot_180+0xec>
    1c68:	fd042783          	lw	a5,-48(s0)
    1c6c:	0007a703          	lw	a4,0(a5)
    1c70:	fd842783          	lw	a5,-40(s0)
    1c74:	00f70733          	add	a4,a4,a5
    1c78:	fec42783          	lw	a5,-20(s0)
    1c7c:	00f706b3          	add	a3,a4,a5
    1c80:	fd442703          	lw	a4,-44(s0)
    1c84:	fe842783          	lw	a5,-24(s0)
    1c88:	00f707b3          	add	a5,a4,a5
    1c8c:	fdd44703          	lbu	a4,-35(s0)
    1c90:	00070613          	mv	a2,a4
    1c94:	00078593          	mv	a1,a5
    1c98:	00068513          	mv	a0,a3
    1c9c:	de1fe0ef          	jal	a7c <io_vga_set_pixel>
    1ca0:	0cc0006f          	j	1d6c <render_character_rot_180+0x1b4>
    1ca4:	fdf44783          	lbu	a5,-33(s0)
    1ca8:	00010737          	lui	a4,0x10
    1cac:	24870713          	add	a4,a4,584 # 10248 <glyphs_code>
    1cb0:	00279793          	sll	a5,a5,0x2
    1cb4:	00f707b3          	add	a5,a4,a5
    1cb8:	0007a683          	lw	a3,0(a5)
    1cbc:	fe442783          	lw	a5,-28(s0)
    1cc0:	fff78713          	add	a4,a5,-1
    1cc4:	fec42783          	lw	a5,-20(s0)
    1cc8:	40f70633          	sub	a2,a4,a5
    1ccc:	00500713          	li	a4,5
    1cd0:	fe842783          	lw	a5,-24(s0)
    1cd4:	40f70733          	sub	a4,a4,a5
    1cd8:	00070793          	mv	a5,a4
    1cdc:	00279793          	sll	a5,a5,0x2
    1ce0:	00e787b3          	add	a5,a5,a4
    1ce4:	00f607b3          	add	a5,a2,a5
    1ce8:	00100713          	li	a4,1
    1cec:	00f717b3          	sll	a5,a4,a5
    1cf0:	00f6f7b3          	and	a5,a3,a5
    1cf4:	04078063          	beqz	a5,1d34 <render_character_rot_180+0x17c>
    1cf8:	fd042783          	lw	a5,-48(s0)
    1cfc:	0007a703          	lw	a4,0(a5)
    1d00:	fd842783          	lw	a5,-40(s0)
    1d04:	00f70733          	add	a4,a4,a5
    1d08:	fec42783          	lw	a5,-20(s0)
    1d0c:	00f706b3          	add	a3,a4,a5
    1d10:	fd442703          	lw	a4,-44(s0)
    1d14:	fe842783          	lw	a5,-24(s0)
    1d18:	00f707b3          	add	a5,a4,a5
    1d1c:	fde44703          	lbu	a4,-34(s0)
    1d20:	00070613          	mv	a2,a4
    1d24:	00078593          	mv	a1,a5
    1d28:	00068513          	mv	a0,a3
    1d2c:	d51fe0ef          	jal	a7c <io_vga_set_pixel>
    1d30:	03c0006f          	j	1d6c <render_character_rot_180+0x1b4>
    1d34:	fd042783          	lw	a5,-48(s0)
    1d38:	0007a703          	lw	a4,0(a5)
    1d3c:	fd842783          	lw	a5,-40(s0)
    1d40:	00f70733          	add	a4,a4,a5
    1d44:	fec42783          	lw	a5,-20(s0)
    1d48:	00f706b3          	add	a3,a4,a5
    1d4c:	fd442703          	lw	a4,-44(s0)
    1d50:	fe842783          	lw	a5,-24(s0)
    1d54:	00f707b3          	add	a5,a4,a5
    1d58:	fdd44703          	lbu	a4,-35(s0)
    1d5c:	00070613          	mv	a2,a4
    1d60:	00078593          	mv	a1,a5
    1d64:	00068513          	mv	a0,a3
    1d68:	d15fe0ef          	jal	a7c <io_vga_set_pixel>
    1d6c:	fe842783          	lw	a5,-24(s0)
    1d70:	00178793          	add	a5,a5,1
    1d74:	fef42423          	sw	a5,-24(s0)
    1d78:	fe842703          	lw	a4,-24(s0)
    1d7c:	00500793          	li	a5,5
    1d80:	ece7dee3          	bge	a5,a4,1c5c <render_character_rot_180+0xa4>
    1d84:	fec42783          	lw	a5,-20(s0)
    1d88:	00178793          	add	a5,a5,1
    1d8c:	fef42623          	sw	a5,-20(s0)
    1d90:	fe442703          	lw	a4,-28(s0)
    1d94:	fec42783          	lw	a5,-20(s0)
    1d98:	eaf75ee3          	bge	a4,a5,1c54 <render_character_rot_180+0x9c>
    1d9c:	fd042783          	lw	a5,-48(s0)
    1da0:	0007a783          	lw	a5,0(a5)
    1da4:	00078693          	mv	a3,a5
    1da8:	fdf44783          	lbu	a5,-33(s0)
    1dac:	00010737          	lui	a4,0x10
    1db0:	44870713          	add	a4,a4,1096 # 10448 <glyphs_width>
    1db4:	00279793          	sll	a5,a5,0x2
    1db8:	00f707b3          	add	a5,a4,a5
    1dbc:	0007a783          	lw	a5,0(a5)
    1dc0:	00f687b3          	add	a5,a3,a5
    1dc4:	00178793          	add	a5,a5,1
    1dc8:	00078713          	mv	a4,a5
    1dcc:	fd042783          	lw	a5,-48(s0)
    1dd0:	00e7a023          	sw	a4,0(a5)
    1dd4:	00000013          	nop
    1dd8:	02c12083          	lw	ra,44(sp)
    1ddc:	02812403          	lw	s0,40(sp)
    1de0:	03010113          	add	sp,sp,48
    1de4:	00008067          	ret

00001de8 <clear_character>:
    1de8:	fd010113          	add	sp,sp,-48
    1dec:	02112623          	sw	ra,44(sp)
    1df0:	02812423          	sw	s0,40(sp)
    1df4:	03010413          	add	s0,sp,48
    1df8:	00050793          	mv	a5,a0
    1dfc:	fcc42c23          	sw	a2,-40(s0)
    1e00:	fcd42a23          	sw	a3,-44(s0)
    1e04:	fce42823          	sw	a4,-48(s0)
    1e08:	fcf40fa3          	sb	a5,-33(s0)
    1e0c:	00058793          	mv	a5,a1
    1e10:	fcf40f23          	sb	a5,-34(s0)
    1e14:	fdf44783          	lbu	a5,-33(s0)
    1e18:	00010737          	lui	a4,0x10
    1e1c:	24870713          	add	a4,a4,584 # 10248 <glyphs_code>
    1e20:	00279793          	sll	a5,a5,0x2
    1e24:	00f707b3          	add	a5,a4,a5
    1e28:	0007a783          	lw	a5,0(a5)
    1e2c:	02079663          	bnez	a5,1e58 <clear_character+0x70>
    1e30:	fdf44783          	lbu	a5,-33(s0)
    1e34:	00010737          	lui	a4,0x10
    1e38:	44870713          	add	a4,a4,1096 # 10448 <glyphs_width>
    1e3c:	00279793          	sll	a5,a5,0x2
    1e40:	00f707b3          	add	a5,a4,a5
    1e44:	0007a783          	lw	a5,0(a5)
    1e48:	00079863          	bnez	a5,1e58 <clear_character+0x70>
    1e4c:	000107b7          	lui	a5,0x10
    1e50:	64878513          	add	a0,a5,1608 # 10648 <glyphs_width+0x200>
    1e54:	590000ef          	jal	23e4 <panic>
    1e58:	fe042623          	sw	zero,-20(s0)
    1e5c:	0680006f          	j	1ec4 <clear_character+0xdc>
    1e60:	fe042423          	sw	zero,-24(s0)
    1e64:	0480006f          	j	1eac <clear_character+0xc4>
    1e68:	fd042783          	lw	a5,-48(s0)
    1e6c:	0007a703          	lw	a4,0(a5)
    1e70:	fd842783          	lw	a5,-40(s0)
    1e74:	00f70733          	add	a4,a4,a5
    1e78:	fec42783          	lw	a5,-20(s0)
    1e7c:	00f706b3          	add	a3,a4,a5
    1e80:	fd442703          	lw	a4,-44(s0)
    1e84:	fe842783          	lw	a5,-24(s0)
    1e88:	00f707b3          	add	a5,a4,a5
    1e8c:	fde44703          	lbu	a4,-34(s0)
    1e90:	00070613          	mv	a2,a4
    1e94:	00078593          	mv	a1,a5
    1e98:	00068513          	mv	a0,a3
    1e9c:	be1fe0ef          	jal	a7c <io_vga_set_pixel>
    1ea0:	fe842783          	lw	a5,-24(s0)
    1ea4:	00178793          	add	a5,a5,1
    1ea8:	fef42423          	sw	a5,-24(s0)
    1eac:	fe842703          	lw	a4,-24(s0)
    1eb0:	00500793          	li	a5,5
    1eb4:	fae7dae3          	bge	a5,a4,1e68 <clear_character+0x80>
    1eb8:	fec42783          	lw	a5,-20(s0)
    1ebc:	00178793          	add	a5,a5,1
    1ec0:	fef42623          	sw	a5,-20(s0)
    1ec4:	fec42703          	lw	a4,-20(s0)
    1ec8:	00500793          	li	a5,5
    1ecc:	f8e7dae3          	bge	a5,a4,1e60 <clear_character+0x78>
    1ed0:	fd042783          	lw	a5,-48(s0)
    1ed4:	0007a783          	lw	a5,0(a5)
    1ed8:	00078693          	mv	a3,a5
    1edc:	fdf44783          	lbu	a5,-33(s0)
    1ee0:	00010737          	lui	a4,0x10
    1ee4:	44870713          	add	a4,a4,1096 # 10448 <glyphs_width>
    1ee8:	00279793          	sll	a5,a5,0x2
    1eec:	00f707b3          	add	a5,a4,a5
    1ef0:	0007a783          	lw	a5,0(a5)
    1ef4:	00f687b3          	add	a5,a3,a5
    1ef8:	00178793          	add	a5,a5,1
    1efc:	00078713          	mv	a4,a5
    1f00:	fd042783          	lw	a5,-48(s0)
    1f04:	00e7a023          	sw	a4,0(a5)
    1f08:	00000013          	nop
    1f0c:	02c12083          	lw	ra,44(sp)
    1f10:	02812403          	lw	s0,40(sp)
    1f14:	03010113          	add	sp,sp,48
    1f18:	00008067          	ret

00001f1c <render_text>:
    1f1c:	fc010113          	add	sp,sp,-64
    1f20:	02112e23          	sw	ra,60(sp)
    1f24:	02812c23          	sw	s0,56(sp)
    1f28:	04010413          	add	s0,sp,64
    1f2c:	fca42e23          	sw	a0,-36(s0)
    1f30:	fcd42a23          	sw	a3,-44(s0)
    1f34:	fce42823          	sw	a4,-48(s0)
    1f38:	fcf42623          	sw	a5,-52(s0)
    1f3c:	00058793          	mv	a5,a1
    1f40:	fcf40da3          	sb	a5,-37(s0)
    1f44:	00060793          	mv	a5,a2
    1f48:	fcf40d23          	sb	a5,-38(s0)
    1f4c:	fe042423          	sw	zero,-24(s0)
    1f50:	fcc42783          	lw	a5,-52(s0)
    1f54:	00078863          	beqz	a5,1f64 <render_text+0x48>
    1f58:	fcc42783          	lw	a5,-52(s0)
    1f5c:	0007a783          	lw	a5,0(a5)
    1f60:	fef42423          	sw	a5,-24(s0)
    1f64:	fe042623          	sw	zero,-20(s0)
    1f68:	0380006f          	j	1fa0 <render_text+0x84>
    1f6c:	fec42783          	lw	a5,-20(s0)
    1f70:	fdc42703          	lw	a4,-36(s0)
    1f74:	00f707b3          	add	a5,a4,a5
    1f78:	0007c503          	lbu	a0,0(a5)
    1f7c:	fe840793          	add	a5,s0,-24
    1f80:	fda44603          	lbu	a2,-38(s0)
    1f84:	fdb44583          	lbu	a1,-37(s0)
    1f88:	fd042703          	lw	a4,-48(s0)
    1f8c:	fd442683          	lw	a3,-44(s0)
    1f90:	a29ff0ef          	jal	19b8 <render_character>
    1f94:	fec42783          	lw	a5,-20(s0)
    1f98:	00178793          	add	a5,a5,1
    1f9c:	fef42623          	sw	a5,-20(s0)
    1fa0:	fec42783          	lw	a5,-20(s0)
    1fa4:	fdc42703          	lw	a4,-36(s0)
    1fa8:	00f707b3          	add	a5,a4,a5
    1fac:	0007c783          	lbu	a5,0(a5)
    1fb0:	fa079ee3          	bnez	a5,1f6c <render_text+0x50>
    1fb4:	fcc42783          	lw	a5,-52(s0)
    1fb8:	00078863          	beqz	a5,1fc8 <render_text+0xac>
    1fbc:	fe842703          	lw	a4,-24(s0)
    1fc0:	fcc42783          	lw	a5,-52(s0)
    1fc4:	00e7a023          	sw	a4,0(a5)
    1fc8:	00000013          	nop
    1fcc:	03c12083          	lw	ra,60(sp)
    1fd0:	03812403          	lw	s0,56(sp)
    1fd4:	04010113          	add	sp,sp,64
    1fd8:	00008067          	ret

00001fdc <render_text_rot_180>:
    1fdc:	fc010113          	add	sp,sp,-64
    1fe0:	02112e23          	sw	ra,60(sp)
    1fe4:	02812c23          	sw	s0,56(sp)
    1fe8:	04010413          	add	s0,sp,64
    1fec:	fca42e23          	sw	a0,-36(s0)
    1ff0:	fcd42a23          	sw	a3,-44(s0)
    1ff4:	fce42823          	sw	a4,-48(s0)
    1ff8:	fcf42623          	sw	a5,-52(s0)
    1ffc:	00058793          	mv	a5,a1
    2000:	fcf40da3          	sb	a5,-37(s0)
    2004:	00060793          	mv	a5,a2
    2008:	fcf40d23          	sb	a5,-38(s0)
    200c:	fe042223          	sw	zero,-28(s0)
    2010:	fcc42783          	lw	a5,-52(s0)
    2014:	00078863          	beqz	a5,2024 <render_text_rot_180+0x48>
    2018:	fcc42783          	lw	a5,-52(s0)
    201c:	0007a783          	lw	a5,0(a5)
    2020:	fef42223          	sw	a5,-28(s0)
    2024:	fe042623          	sw	zero,-20(s0)
    2028:	0100006f          	j	2038 <render_text_rot_180+0x5c>
    202c:	fec42783          	lw	a5,-20(s0)
    2030:	00178793          	add	a5,a5,1
    2034:	fef42623          	sw	a5,-20(s0)
    2038:	fec42783          	lw	a5,-20(s0)
    203c:	fdc42703          	lw	a4,-36(s0)
    2040:	00f707b3          	add	a5,a4,a5
    2044:	0007c783          	lbu	a5,0(a5)
    2048:	fe0792e3          	bnez	a5,202c <render_text_rot_180+0x50>
    204c:	fec42783          	lw	a5,-20(s0)
    2050:	fff78793          	add	a5,a5,-1
    2054:	fef42423          	sw	a5,-24(s0)
    2058:	0380006f          	j	2090 <render_text_rot_180+0xb4>
    205c:	fe842783          	lw	a5,-24(s0)
    2060:	fdc42703          	lw	a4,-36(s0)
    2064:	00f707b3          	add	a5,a4,a5
    2068:	0007c503          	lbu	a0,0(a5)
    206c:	fe440793          	add	a5,s0,-28
    2070:	fda44603          	lbu	a2,-38(s0)
    2074:	fdb44583          	lbu	a1,-37(s0)
    2078:	fd042703          	lw	a4,-48(s0)
    207c:	fd442683          	lw	a3,-44(s0)
    2080:	b39ff0ef          	jal	1bb8 <render_character_rot_180>
    2084:	fe842783          	lw	a5,-24(s0)
    2088:	fff78793          	add	a5,a5,-1
    208c:	fef42423          	sw	a5,-24(s0)
    2090:	fe842783          	lw	a5,-24(s0)
    2094:	fc07d4e3          	bgez	a5,205c <render_text_rot_180+0x80>
    2098:	fcc42783          	lw	a5,-52(s0)
    209c:	00078863          	beqz	a5,20ac <render_text_rot_180+0xd0>
    20a0:	fe442703          	lw	a4,-28(s0)
    20a4:	fcc42783          	lw	a5,-52(s0)
    20a8:	00e7a023          	sw	a4,0(a5)
    20ac:	00000013          	nop
    20b0:	03c12083          	lw	ra,60(sp)
    20b4:	03812403          	lw	s0,56(sp)
    20b8:	04010113          	add	sp,sp,64
    20bc:	00008067          	ret

000020c0 <render_text_number>:
    20c0:	fc010113          	add	sp,sp,-64
    20c4:	02112e23          	sw	ra,60(sp)
    20c8:	02812c23          	sw	s0,56(sp)
    20cc:	04010413          	add	s0,sp,64
    20d0:	fca42e23          	sw	a0,-36(s0)
    20d4:	fcd42a23          	sw	a3,-44(s0)
    20d8:	fce42823          	sw	a4,-48(s0)
    20dc:	fcf42623          	sw	a5,-52(s0)
    20e0:	00058793          	mv	a5,a1
    20e4:	fcf40da3          	sb	a5,-37(s0)
    20e8:	00060793          	mv	a5,a2
    20ec:	fcf40d23          	sb	a5,-38(s0)
    20f0:	fe042623          	sw	zero,-20(s0)
    20f4:	0240006f          	j	2118 <render_text_number+0x58>
    20f8:	0000f7b7          	lui	a5,0xf
    20fc:	8c478713          	add	a4,a5,-1852 # e8c4 <game_int.0>
    2100:	fec42783          	lw	a5,-20(s0)
    2104:	00f707b3          	add	a5,a4,a5
    2108:	00078023          	sb	zero,0(a5)
    210c:	fec42783          	lw	a5,-20(s0)
    2110:	00178793          	add	a5,a5,1
    2114:	fef42623          	sw	a5,-20(s0)
    2118:	fec42703          	lw	a4,-20(s0)
    211c:	01f00793          	li	a5,31
    2120:	fce7dce3          	bge	a5,a4,20f8 <render_text_number+0x38>
    2124:	0000f7b7          	lui	a5,0xf
    2128:	8c478593          	add	a1,a5,-1852 # e8c4 <game_int.0>
    212c:	fdc42503          	lw	a0,-36(s0)
    2130:	418000ef          	jal	2548 <num_to_str>
    2134:	fe042223          	sw	zero,-28(s0)
    2138:	fcc42783          	lw	a5,-52(s0)
    213c:	00078863          	beqz	a5,214c <render_text_number+0x8c>
    2140:	fcc42783          	lw	a5,-52(s0)
    2144:	0007a783          	lw	a5,0(a5)
    2148:	fef42223          	sw	a5,-28(s0)
    214c:	fe042423          	sw	zero,-24(s0)
    2150:	03c0006f          	j	218c <render_text_number+0xcc>
    2154:	0000f7b7          	lui	a5,0xf
    2158:	8c478713          	add	a4,a5,-1852 # e8c4 <game_int.0>
    215c:	fe842783          	lw	a5,-24(s0)
    2160:	00f707b3          	add	a5,a4,a5
    2164:	0007c503          	lbu	a0,0(a5)
    2168:	fe440793          	add	a5,s0,-28
    216c:	fda44603          	lbu	a2,-38(s0)
    2170:	fdb44583          	lbu	a1,-37(s0)
    2174:	fd042703          	lw	a4,-48(s0)
    2178:	fd442683          	lw	a3,-44(s0)
    217c:	83dff0ef          	jal	19b8 <render_character>
    2180:	fe842783          	lw	a5,-24(s0)
    2184:	00178793          	add	a5,a5,1
    2188:	fef42423          	sw	a5,-24(s0)
    218c:	0000f7b7          	lui	a5,0xf
    2190:	8c478713          	add	a4,a5,-1852 # e8c4 <game_int.0>
    2194:	fe842783          	lw	a5,-24(s0)
    2198:	00f707b3          	add	a5,a4,a5
    219c:	0007c783          	lbu	a5,0(a5)
    21a0:	fa079ae3          	bnez	a5,2154 <render_text_number+0x94>
    21a4:	fcc42783          	lw	a5,-52(s0)
    21a8:	00078863          	beqz	a5,21b8 <render_text_number+0xf8>
    21ac:	fe442703          	lw	a4,-28(s0)
    21b0:	fcc42783          	lw	a5,-52(s0)
    21b4:	00e7a023          	sw	a4,0(a5)
    21b8:	00000013          	nop
    21bc:	03c12083          	lw	ra,60(sp)
    21c0:	03812403          	lw	s0,56(sp)
    21c4:	04010113          	add	sp,sp,64
    21c8:	00008067          	ret

000021cc <render_text_clear>:
    21cc:	fc010113          	add	sp,sp,-64
    21d0:	02112e23          	sw	ra,60(sp)
    21d4:	02812c23          	sw	s0,56(sp)
    21d8:	04010413          	add	s0,sp,64
    21dc:	fca42e23          	sw	a0,-36(s0)
    21e0:	00058793          	mv	a5,a1
    21e4:	fcc42a23          	sw	a2,-44(s0)
    21e8:	fcd42823          	sw	a3,-48(s0)
    21ec:	fce42623          	sw	a4,-52(s0)
    21f0:	fcf40da3          	sb	a5,-37(s0)
    21f4:	fe042423          	sw	zero,-24(s0)
    21f8:	fcc42783          	lw	a5,-52(s0)
    21fc:	00078863          	beqz	a5,220c <render_text_clear+0x40>
    2200:	fcc42783          	lw	a5,-52(s0)
    2204:	0007a783          	lw	a5,0(a5)
    2208:	fef42423          	sw	a5,-24(s0)
    220c:	fe042623          	sw	zero,-20(s0)
    2210:	0380006f          	j	2248 <render_text_clear+0x7c>
    2214:	fec42783          	lw	a5,-20(s0)
    2218:	fdc42703          	lw	a4,-36(s0)
    221c:	00f707b3          	add	a5,a4,a5
    2220:	0007c783          	lbu	a5,0(a5)
    2224:	fe840713          	add	a4,s0,-24
    2228:	fdb44583          	lbu	a1,-37(s0)
    222c:	fd042683          	lw	a3,-48(s0)
    2230:	fd442603          	lw	a2,-44(s0)
    2234:	00078513          	mv	a0,a5
    2238:	bb1ff0ef          	jal	1de8 <clear_character>
    223c:	fec42783          	lw	a5,-20(s0)
    2240:	00178793          	add	a5,a5,1
    2244:	fef42623          	sw	a5,-20(s0)
    2248:	fec42783          	lw	a5,-20(s0)
    224c:	fdc42703          	lw	a4,-36(s0)
    2250:	00f707b3          	add	a5,a4,a5
    2254:	0007c783          	lbu	a5,0(a5)
    2258:	fa079ee3          	bnez	a5,2214 <render_text_clear+0x48>
    225c:	fcc42783          	lw	a5,-52(s0)
    2260:	00078863          	beqz	a5,2270 <render_text_clear+0xa4>
    2264:	fe842703          	lw	a4,-24(s0)
    2268:	fcc42783          	lw	a5,-52(s0)
    226c:	00e7a023          	sw	a4,0(a5)
    2270:	00000013          	nop
    2274:	03c12083          	lw	ra,60(sp)
    2278:	03812403          	lw	s0,56(sp)
    227c:	04010113          	add	sp,sp,64
    2280:	00008067          	ret

00002284 <render_text_width>:
    2284:	fd010113          	add	sp,sp,-48
    2288:	02812623          	sw	s0,44(sp)
    228c:	03010413          	add	s0,sp,48
    2290:	fca42e23          	sw	a0,-36(s0)
    2294:	fe042623          	sw	zero,-20(s0)
    2298:	fe042423          	sw	zero,-24(s0)
    229c:	0480006f          	j	22e4 <render_text_width+0x60>
    22a0:	fe842783          	lw	a5,-24(s0)
    22a4:	fdc42703          	lw	a4,-36(s0)
    22a8:	00f707b3          	add	a5,a4,a5
    22ac:	0007c783          	lbu	a5,0(a5)
    22b0:	00078693          	mv	a3,a5
    22b4:	000107b7          	lui	a5,0x10
    22b8:	44878713          	add	a4,a5,1096 # 10448 <glyphs_width>
    22bc:	00269793          	sll	a5,a3,0x2
    22c0:	00f707b3          	add	a5,a4,a5
    22c4:	0007a703          	lw	a4,0(a5)
    22c8:	fec42783          	lw	a5,-20(s0)
    22cc:	00f707b3          	add	a5,a4,a5
    22d0:	00178793          	add	a5,a5,1
    22d4:	fef42623          	sw	a5,-20(s0)
    22d8:	fe842783          	lw	a5,-24(s0)
    22dc:	00178793          	add	a5,a5,1
    22e0:	fef42423          	sw	a5,-24(s0)
    22e4:	fe842783          	lw	a5,-24(s0)
    22e8:	fdc42703          	lw	a4,-36(s0)
    22ec:	00f707b3          	add	a5,a4,a5
    22f0:	0007c783          	lbu	a5,0(a5)
    22f4:	fa0796e3          	bnez	a5,22a0 <render_text_width+0x1c>
    22f8:	fec42783          	lw	a5,-20(s0)
    22fc:	00078513          	mv	a0,a5
    2300:	02c12403          	lw	s0,44(sp)
    2304:	03010113          	add	sp,sp,48
    2308:	00008067          	ret

0000230c <render_background>:
    230c:	fd010113          	add	sp,sp,-48
    2310:	02112623          	sw	ra,44(sp)
    2314:	02812423          	sw	s0,40(sp)
    2318:	03010413          	add	s0,sp,48
    231c:	fca42e23          	sw	a0,-36(s0)
    2320:	fe042623          	sw	zero,-20(s0)
    2324:	0540006f          	j	2378 <render_background+0x6c>
    2328:	fe042423          	sw	zero,-24(s0)
    232c:	0340006f          	j	2360 <render_background+0x54>
    2330:	fdc42783          	lw	a5,-36(s0)
    2334:	fe842583          	lw	a1,-24(s0)
    2338:	fec42503          	lw	a0,-20(s0)
    233c:	000780e7          	jalr	a5
    2340:	00050793          	mv	a5,a0
    2344:	00078613          	mv	a2,a5
    2348:	fe842583          	lw	a1,-24(s0)
    234c:	fec42503          	lw	a0,-20(s0)
    2350:	f2cfe0ef          	jal	a7c <io_vga_set_pixel>
    2354:	fe842783          	lw	a5,-24(s0)
    2358:	00178793          	add	a5,a5,1
    235c:	fef42423          	sw	a5,-24(s0)
    2360:	fe842703          	lw	a4,-24(s0)
    2364:	0ef00793          	li	a5,239
    2368:	fce7d4e3          	bge	a5,a4,2330 <render_background+0x24>
    236c:	fec42783          	lw	a5,-20(s0)
    2370:	00178793          	add	a5,a5,1
    2374:	fef42623          	sw	a5,-20(s0)
    2378:	fec42703          	lw	a4,-20(s0)
    237c:	13f00793          	li	a5,319
    2380:	fae7d4e3          	bge	a5,a4,2328 <render_background+0x1c>
    2384:	00000013          	nop
    2388:	00000013          	nop
    238c:	02c12083          	lw	ra,44(sp)
    2390:	02812403          	lw	s0,40(sp)
    2394:	03010113          	add	sp,sp,48
    2398:	00008067          	ret

0000239c <render_background_solid>:
    239c:	fe010113          	add	sp,sp,-32
    23a0:	00112e23          	sw	ra,28(sp)
    23a4:	00812c23          	sw	s0,24(sp)
    23a8:	02010413          	add	s0,sp,32
    23ac:	00050793          	mv	a5,a0
    23b0:	fef407a3          	sb	a5,-17(s0)
    23b4:	fef44783          	lbu	a5,-17(s0)
    23b8:	00078713          	mv	a4,a5
    23bc:	0f000693          	li	a3,240
    23c0:	14000613          	li	a2,320
    23c4:	00000593          	li	a1,0
    23c8:	00000513          	li	a0,0
    23cc:	934ff0ef          	jal	1500 <render_rect_fill>
    23d0:	00000013          	nop
    23d4:	01c12083          	lw	ra,28(sp)
    23d8:	01812403          	lw	s0,24(sp)
    23dc:	02010113          	add	sp,sp,32
    23e0:	00008067          	ret

000023e4 <panic>:
    23e4:	fe010113          	add	sp,sp,-32
    23e8:	00812e23          	sw	s0,28(sp)
    23ec:	02010413          	add	s0,sp,32
    23f0:	fea42623          	sw	a0,-20(s0)
    23f4:	00000013          	nop
    23f8:	ffdff06f          	j	23f4 <panic+0x10>

000023fc <delay>:
    23fc:	fd010113          	add	sp,sp,-48
    2400:	02812623          	sw	s0,44(sp)
    2404:	03010413          	add	s0,sp,48
    2408:	fca42e23          	sw	a0,-36(s0)
    240c:	fe042623          	sw	zero,-20(s0)
    2410:	0100006f          	j	2420 <delay+0x24>
    2414:	fec42783          	lw	a5,-20(s0)
    2418:	00178793          	add	a5,a5,1
    241c:	fef42623          	sw	a5,-20(s0)
    2420:	fec42703          	lw	a4,-20(s0)
    2424:	fdc42783          	lw	a5,-36(s0)
    2428:	fef746e3          	blt	a4,a5,2414 <delay+0x18>
    242c:	00000013          	nop
    2430:	00000013          	nop
    2434:	02c12403          	lw	s0,44(sp)
    2438:	03010113          	add	sp,sp,48
    243c:	00008067          	ret

00002440 <long_long_popcount>:
    2440:	fd010113          	add	sp,sp,-48
    2444:	02812623          	sw	s0,44(sp)
    2448:	03010413          	add	s0,sp,48
    244c:	fca42c23          	sw	a0,-40(s0)
    2450:	fcb42e23          	sw	a1,-36(s0)
    2454:	fe042623          	sw	zero,-20(s0)
    2458:	fe042423          	sw	zero,-24(s0)
    245c:	0780006f          	j	24d4 <long_long_popcount+0x94>
    2460:	fe842683          	lw	a3,-24(s0)
    2464:	fe068693          	add	a3,a3,-32
    2468:	0006cc63          	bltz	a3,2480 <long_long_popcount+0x40>
    246c:	fdc42603          	lw	a2,-36(s0)
    2470:	40d65733          	sra	a4,a2,a3
    2474:	fdc42683          	lw	a3,-36(s0)
    2478:	41f6d793          	sra	a5,a3,0x1f
    247c:	0380006f          	j	24b4 <long_long_popcount+0x74>
    2480:	fdc42683          	lw	a3,-36(s0)
    2484:	00169613          	sll	a2,a3,0x1
    2488:	01f00593          	li	a1,31
    248c:	fe842683          	lw	a3,-24(s0)
    2490:	40d586b3          	sub	a3,a1,a3
    2494:	00d616b3          	sll	a3,a2,a3
    2498:	fe842603          	lw	a2,-24(s0)
    249c:	fd842583          	lw	a1,-40(s0)
    24a0:	00c5d733          	srl	a4,a1,a2
    24a4:	00e6e733          	or	a4,a3,a4
    24a8:	fe842683          	lw	a3,-24(s0)
    24ac:	fdc42603          	lw	a2,-36(s0)
    24b0:	40d657b3          	sra	a5,a2,a3
    24b4:	00070693          	mv	a3,a4
    24b8:	0016f693          	and	a3,a3,1
    24bc:	fec42603          	lw	a2,-20(s0)
    24c0:	00d606b3          	add	a3,a2,a3
    24c4:	fed42623          	sw	a3,-20(s0)
    24c8:	fe842683          	lw	a3,-24(s0)
    24cc:	00168693          	add	a3,a3,1
    24d0:	fed42423          	sw	a3,-24(s0)
    24d4:	fe842603          	lw	a2,-24(s0)
    24d8:	03f00693          	li	a3,63
    24dc:	f8c6d2e3          	bge	a3,a2,2460 <long_long_popcount+0x20>
    24e0:	fec42783          	lw	a5,-20(s0)
    24e4:	00078513          	mv	a0,a5
    24e8:	02c12403          	lw	s0,44(sp)
    24ec:	03010113          	add	sp,sp,48
    24f0:	00008067          	ret

000024f4 <clamp>:
    24f4:	fe010113          	add	sp,sp,-32
    24f8:	00812e23          	sw	s0,28(sp)
    24fc:	02010413          	add	s0,sp,32
    2500:	fea42623          	sw	a0,-20(s0)
    2504:	feb42423          	sw	a1,-24(s0)
    2508:	fec42223          	sw	a2,-28(s0)
    250c:	fec42703          	lw	a4,-20(s0)
    2510:	fe842783          	lw	a5,-24(s0)
    2514:	00f75663          	bge	a4,a5,2520 <clamp+0x2c>
    2518:	fe842783          	lw	a5,-24(s0)
    251c:	01c0006f          	j	2538 <clamp+0x44>
    2520:	fec42703          	lw	a4,-20(s0)
    2524:	fe442783          	lw	a5,-28(s0)
    2528:	00e7d663          	bge	a5,a4,2534 <clamp+0x40>
    252c:	fe442783          	lw	a5,-28(s0)
    2530:	0080006f          	j	2538 <clamp+0x44>
    2534:	fec42783          	lw	a5,-20(s0)
    2538:	00078513          	mv	a0,a5
    253c:	01c12403          	lw	s0,28(sp)
    2540:	02010113          	add	sp,sp,32
    2544:	00008067          	ret

00002548 <num_to_str>:
    2548:	fd010113          	add	sp,sp,-48
    254c:	02812623          	sw	s0,44(sp)
    2550:	03010413          	add	s0,sp,48
    2554:	fca42e23          	sw	a0,-36(s0)
    2558:	fcb42c23          	sw	a1,-40(s0)
    255c:	fe042623          	sw	zero,-20(s0)
    2560:	3b9ad7b7          	lui	a5,0x3b9ad
    2564:	a0078793          	add	a5,a5,-1536 # 3b9aca00 <_stack_end+0x3b89bab8>
    2568:	fef42423          	sw	a5,-24(s0)
    256c:	fe0403a3          	sb	zero,-25(s0)
    2570:	fdc42703          	lw	a4,-36(s0)
    2574:	fe842783          	lw	a5,-24(s0)
    2578:	02f757b3          	divu	a5,a4,a5
    257c:	fef42023          	sw	a5,-32(s0)
    2580:	fe042783          	lw	a5,-32(s0)
    2584:	00078663          	beqz	a5,2590 <num_to_str+0x48>
    2588:	00100793          	li	a5,1
    258c:	fef403a3          	sb	a5,-25(s0)
    2590:	fe744783          	lbu	a5,-25(s0)
    2594:	02078863          	beqz	a5,25c4 <num_to_str+0x7c>
    2598:	fe042783          	lw	a5,-32(s0)
    259c:	0ff7f713          	zext.b	a4,a5
    25a0:	fec42783          	lw	a5,-20(s0)
    25a4:	fd842683          	lw	a3,-40(s0)
    25a8:	00f687b3          	add	a5,a3,a5
    25ac:	03070713          	add	a4,a4,48
    25b0:	0ff77713          	zext.b	a4,a4
    25b4:	00e78023          	sb	a4,0(a5)
    25b8:	fec42783          	lw	a5,-20(s0)
    25bc:	00178793          	add	a5,a5,1
    25c0:	fef42623          	sw	a5,-20(s0)
    25c4:	fdc42703          	lw	a4,-36(s0)
    25c8:	fe042683          	lw	a3,-32(s0)
    25cc:	fe842783          	lw	a5,-24(s0)
    25d0:	02f687b3          	mul	a5,a3,a5
    25d4:	40f707b3          	sub	a5,a4,a5
    25d8:	fcf42e23          	sw	a5,-36(s0)
    25dc:	fe842703          	lw	a4,-24(s0)
    25e0:	00a00793          	li	a5,10
    25e4:	02f757b3          	divu	a5,a4,a5
    25e8:	fef42423          	sw	a5,-24(s0)
    25ec:	fe842783          	lw	a5,-24(s0)
    25f0:	f80790e3          	bnez	a5,2570 <num_to_str+0x28>
    25f4:	fe744783          	lbu	a5,-25(s0)
    25f8:	00079c63          	bnez	a5,2610 <num_to_str+0xc8>
    25fc:	fec42783          	lw	a5,-20(s0)
    2600:	fd842703          	lw	a4,-40(s0)
    2604:	00f707b3          	add	a5,a4,a5
    2608:	03000713          	li	a4,48
    260c:	00e78023          	sb	a4,0(a5)
    2610:	fec42783          	lw	a5,-20(s0)
    2614:	00178793          	add	a5,a5,1
    2618:	00078513          	mv	a0,a5
    261c:	02c12403          	lw	s0,44(sp)
    2620:	03010113          	add	sp,sp,48
    2624:	00008067          	ret

00002628 <shuffle>:
    2628:	fd010113          	add	sp,sp,-48
    262c:	02112623          	sw	ra,44(sp)
    2630:	02812423          	sw	s0,40(sp)
    2634:	03010413          	add	s0,sp,48
    2638:	fca42e23          	sw	a0,-36(s0)
    263c:	fcb42c23          	sw	a1,-40(s0)
    2640:	fd842703          	lw	a4,-40(s0)
    2644:	00100793          	li	a5,1
    2648:	0ae7fc63          	bgeu	a5,a4,2700 <shuffle+0xd8>
    264c:	fe042623          	sw	zero,-20(s0)
    2650:	0a00006f          	j	26f0 <shuffle+0xc8>
    2654:	cc1fd0ef          	jal	314 <rand>
    2658:	00050793          	mv	a5,a0
    265c:	00078693          	mv	a3,a5
    2660:	fd842703          	lw	a4,-40(s0)
    2664:	fec42783          	lw	a5,-20(s0)
    2668:	40f707b3          	sub	a5,a4,a5
    266c:	80000737          	lui	a4,0x80000
    2670:	fff70713          	add	a4,a4,-1 # 7fffffff <_stack_end+0x7feef0b7>
    2674:	02f757b3          	divu	a5,a4,a5
    2678:	00178793          	add	a5,a5,1
    267c:	02f6d7b3          	divu	a5,a3,a5
    2680:	fec42703          	lw	a4,-20(s0)
    2684:	00f707b3          	add	a5,a4,a5
    2688:	fef42423          	sw	a5,-24(s0)
    268c:	fe842783          	lw	a5,-24(s0)
    2690:	00279793          	sll	a5,a5,0x2
    2694:	fdc42703          	lw	a4,-36(s0)
    2698:	00f707b3          	add	a5,a4,a5
    269c:	0007a783          	lw	a5,0(a5)
    26a0:	fef42223          	sw	a5,-28(s0)
    26a4:	fec42783          	lw	a5,-20(s0)
    26a8:	00279793          	sll	a5,a5,0x2
    26ac:	fdc42703          	lw	a4,-36(s0)
    26b0:	00f70733          	add	a4,a4,a5
    26b4:	fe842783          	lw	a5,-24(s0)
    26b8:	00279793          	sll	a5,a5,0x2
    26bc:	fdc42683          	lw	a3,-36(s0)
    26c0:	00f687b3          	add	a5,a3,a5
    26c4:	00072703          	lw	a4,0(a4)
    26c8:	00e7a023          	sw	a4,0(a5)
    26cc:	fec42783          	lw	a5,-20(s0)
    26d0:	00279793          	sll	a5,a5,0x2
    26d4:	fdc42703          	lw	a4,-36(s0)
    26d8:	00f707b3          	add	a5,a4,a5
    26dc:	fe442703          	lw	a4,-28(s0)
    26e0:	00e7a023          	sw	a4,0(a5)
    26e4:	fec42783          	lw	a5,-20(s0)
    26e8:	00178793          	add	a5,a5,1
    26ec:	fef42623          	sw	a5,-20(s0)
    26f0:	fd842783          	lw	a5,-40(s0)
    26f4:	fff78793          	add	a5,a5,-1
    26f8:	fec42703          	lw	a4,-20(s0)
    26fc:	f4f76ce3          	bltu	a4,a5,2654 <shuffle+0x2c>
    2700:	00000013          	nop
    2704:	02c12083          	lw	ra,44(sp)
    2708:	02812403          	lw	s0,40(sp)
    270c:	03010113          	add	sp,sp,48
    2710:	00008067          	ret

00002714 <solitaire_card_rank_to_str>:
    2714:	fe010113          	add	sp,sp,-32
    2718:	00812e23          	sw	s0,28(sp)
    271c:	02010413          	add	s0,sp,32
    2720:	fea42623          	sw	a0,-20(s0)
    2724:	fec42703          	lw	a4,-20(s0)
    2728:	00d00793          	li	a5,13
    272c:	0ae7ee63          	bltu	a5,a4,27e8 <solitaire_card_rank_to_str+0xd4>
    2730:	fec42783          	lw	a5,-20(s0)
    2734:	00279713          	sll	a4,a5,0x2
    2738:	000107b7          	lui	a5,0x10
    273c:	69478793          	add	a5,a5,1684 # 10694 <glyphs_width+0x24c>
    2740:	00f707b3          	add	a5,a4,a5
    2744:	0007a783          	lw	a5,0(a5)
    2748:	00078067          	jr	a5
    274c:	000107b7          	lui	a5,0x10
    2750:	66078793          	add	a5,a5,1632 # 10660 <glyphs_width+0x218>
    2754:	0940006f          	j	27e8 <solitaire_card_rank_to_str+0xd4>
    2758:	000107b7          	lui	a5,0x10
    275c:	66478793          	add	a5,a5,1636 # 10664 <glyphs_width+0x21c>
    2760:	0880006f          	j	27e8 <solitaire_card_rank_to_str+0xd4>
    2764:	000107b7          	lui	a5,0x10
    2768:	66878793          	add	a5,a5,1640 # 10668 <glyphs_width+0x220>
    276c:	07c0006f          	j	27e8 <solitaire_card_rank_to_str+0xd4>
    2770:	000107b7          	lui	a5,0x10
    2774:	66c78793          	add	a5,a5,1644 # 1066c <glyphs_width+0x224>
    2778:	0700006f          	j	27e8 <solitaire_card_rank_to_str+0xd4>
    277c:	000107b7          	lui	a5,0x10
    2780:	67078793          	add	a5,a5,1648 # 10670 <glyphs_width+0x228>
    2784:	0640006f          	j	27e8 <solitaire_card_rank_to_str+0xd4>
    2788:	000107b7          	lui	a5,0x10
    278c:	67478793          	add	a5,a5,1652 # 10674 <glyphs_width+0x22c>
    2790:	0580006f          	j	27e8 <solitaire_card_rank_to_str+0xd4>
    2794:	000107b7          	lui	a5,0x10
    2798:	67878793          	add	a5,a5,1656 # 10678 <glyphs_width+0x230>
    279c:	04c0006f          	j	27e8 <solitaire_card_rank_to_str+0xd4>
    27a0:	000107b7          	lui	a5,0x10
    27a4:	67c78793          	add	a5,a5,1660 # 1067c <glyphs_width+0x234>
    27a8:	0400006f          	j	27e8 <solitaire_card_rank_to_str+0xd4>
    27ac:	000107b7          	lui	a5,0x10
    27b0:	68078793          	add	a5,a5,1664 # 10680 <glyphs_width+0x238>
    27b4:	0340006f          	j	27e8 <solitaire_card_rank_to_str+0xd4>
    27b8:	000107b7          	lui	a5,0x10
    27bc:	68478793          	add	a5,a5,1668 # 10684 <glyphs_width+0x23c>
    27c0:	0280006f          	j	27e8 <solitaire_card_rank_to_str+0xd4>
    27c4:	000107b7          	lui	a5,0x10
    27c8:	68878793          	add	a5,a5,1672 # 10688 <glyphs_width+0x240>
    27cc:	01c0006f          	j	27e8 <solitaire_card_rank_to_str+0xd4>
    27d0:	000107b7          	lui	a5,0x10
    27d4:	68c78793          	add	a5,a5,1676 # 1068c <glyphs_width+0x244>
    27d8:	0100006f          	j	27e8 <solitaire_card_rank_to_str+0xd4>
    27dc:	000107b7          	lui	a5,0x10
    27e0:	69078793          	add	a5,a5,1680 # 10690 <glyphs_width+0x248>
    27e4:	0040006f          	j	27e8 <solitaire_card_rank_to_str+0xd4>
    27e8:	00078513          	mv	a0,a5
    27ec:	01c12403          	lw	s0,28(sp)
    27f0:	02010113          	add	sp,sp,32
    27f4:	00008067          	ret

000027f8 <solitaire_suit_is_red>:
    27f8:	fe010113          	add	sp,sp,-32
    27fc:	00812e23          	sw	s0,28(sp)
    2800:	02010413          	add	s0,sp,32
    2804:	fea42623          	sw	a0,-20(s0)
    2808:	fec42783          	lw	a5,-20(s0)
    280c:	00078863          	beqz	a5,281c <solitaire_suit_is_red+0x24>
    2810:	fec42703          	lw	a4,-20(s0)
    2814:	00200793          	li	a5,2
    2818:	00f71663          	bne	a4,a5,2824 <solitaire_suit_is_red+0x2c>
    281c:	00100793          	li	a5,1
    2820:	0080006f          	j	2828 <solitaire_suit_is_red+0x30>
    2824:	00000793          	li	a5,0
    2828:	0017f793          	and	a5,a5,1
    282c:	0ff7f793          	zext.b	a5,a5
    2830:	00078513          	mv	a0,a5
    2834:	01c12403          	lw	s0,28(sp)
    2838:	02010113          	add	sp,sp,32
    283c:	00008067          	ret

00002840 <solitaire_init_deck>:
    2840:	fd010113          	add	sp,sp,-48
    2844:	02812623          	sw	s0,44(sp)
    2848:	03010413          	add	s0,sp,48
    284c:	fca42e23          	sw	a0,-36(s0)
    2850:	fe042623          	sw	zero,-20(s0)
    2854:	0a00006f          	j	28f4 <solitaire_init_deck+0xb4>
    2858:	fec42703          	lw	a4,-20(s0)
    285c:	00d00793          	li	a5,13
    2860:	02f767b3          	rem	a5,a4,a5
    2864:	00178693          	add	a3,a5,1
    2868:	fec42703          	lw	a4,-20(s0)
    286c:	00070793          	mv	a5,a4
    2870:	00179793          	sll	a5,a5,0x1
    2874:	00e787b3          	add	a5,a5,a4
    2878:	00279793          	sll	a5,a5,0x2
    287c:	00078713          	mv	a4,a5
    2880:	fdc42783          	lw	a5,-36(s0)
    2884:	00e787b3          	add	a5,a5,a4
    2888:	00068713          	mv	a4,a3
    288c:	00e7a223          	sw	a4,4(a5)
    2890:	fec42703          	lw	a4,-20(s0)
    2894:	00d00793          	li	a5,13
    2898:	02f746b3          	div	a3,a4,a5
    289c:	fec42703          	lw	a4,-20(s0)
    28a0:	00070793          	mv	a5,a4
    28a4:	00179793          	sll	a5,a5,0x1
    28a8:	00e787b3          	add	a5,a5,a4
    28ac:	00279793          	sll	a5,a5,0x2
    28b0:	00078713          	mv	a4,a5
    28b4:	fdc42783          	lw	a5,-36(s0)
    28b8:	00e787b3          	add	a5,a5,a4
    28bc:	00068713          	mv	a4,a3
    28c0:	00e7a023          	sw	a4,0(a5)
    28c4:	fec42703          	lw	a4,-20(s0)
    28c8:	00070793          	mv	a5,a4
    28cc:	00179793          	sll	a5,a5,0x1
    28d0:	00e787b3          	add	a5,a5,a4
    28d4:	00279793          	sll	a5,a5,0x2
    28d8:	00078713          	mv	a4,a5
    28dc:	fdc42783          	lw	a5,-36(s0)
    28e0:	00e787b3          	add	a5,a5,a4
    28e4:	00078423          	sb	zero,8(a5)
    28e8:	fec42783          	lw	a5,-20(s0)
    28ec:	00178793          	add	a5,a5,1
    28f0:	fef42623          	sw	a5,-20(s0)
    28f4:	fec42703          	lw	a4,-20(s0)
    28f8:	03300793          	li	a5,51
    28fc:	f4e7dee3          	bge	a5,a4,2858 <solitaire_init_deck+0x18>
    2900:	00000013          	nop
    2904:	00000013          	nop
    2908:	02c12403          	lw	s0,44(sp)
    290c:	03010113          	add	sp,sp,48
    2910:	00008067          	ret

00002914 <solitaire_shuffle_deck>:
    2914:	fc010113          	add	sp,sp,-64
    2918:	02112e23          	sw	ra,60(sp)
    291c:	02812c23          	sw	s0,56(sp)
    2920:	04010413          	add	s0,sp,64
    2924:	fca42623          	sw	a0,-52(s0)
    2928:	fe042623          	sw	zero,-20(s0)
    292c:	1000006f          	j	2a2c <solitaire_shuffle_deck+0x118>
    2930:	9e5fd0ef          	jal	314 <rand>
    2934:	00050693          	mv	a3,a0
    2938:	03300713          	li	a4,51
    293c:	fec42783          	lw	a5,-20(s0)
    2940:	40f707b3          	sub	a5,a4,a5
    2944:	02f6e733          	rem	a4,a3,a5
    2948:	fec42783          	lw	a5,-20(s0)
    294c:	00f707b3          	add	a5,a4,a5
    2950:	00178793          	add	a5,a5,1
    2954:	fef42423          	sw	a5,-24(s0)
    2958:	fec42703          	lw	a4,-20(s0)
    295c:	00070793          	mv	a5,a4
    2960:	00179793          	sll	a5,a5,0x1
    2964:	00e787b3          	add	a5,a5,a4
    2968:	00279793          	sll	a5,a5,0x2
    296c:	00078713          	mv	a4,a5
    2970:	fcc42783          	lw	a5,-52(s0)
    2974:	00e787b3          	add	a5,a5,a4
    2978:	0007a703          	lw	a4,0(a5)
    297c:	fce42e23          	sw	a4,-36(s0)
    2980:	0047a703          	lw	a4,4(a5)
    2984:	fee42023          	sw	a4,-32(s0)
    2988:	0087a783          	lw	a5,8(a5)
    298c:	fef42223          	sw	a5,-28(s0)
    2990:	fe842703          	lw	a4,-24(s0)
    2994:	00070793          	mv	a5,a4
    2998:	00179793          	sll	a5,a5,0x1
    299c:	00e787b3          	add	a5,a5,a4
    29a0:	00279793          	sll	a5,a5,0x2
    29a4:	00078713          	mv	a4,a5
    29a8:	fcc42783          	lw	a5,-52(s0)
    29ac:	00e78733          	add	a4,a5,a4
    29b0:	fec42683          	lw	a3,-20(s0)
    29b4:	00068793          	mv	a5,a3
    29b8:	00179793          	sll	a5,a5,0x1
    29bc:	00d787b3          	add	a5,a5,a3
    29c0:	00279793          	sll	a5,a5,0x2
    29c4:	00078693          	mv	a3,a5
    29c8:	fcc42783          	lw	a5,-52(s0)
    29cc:	00d787b3          	add	a5,a5,a3
    29d0:	00072683          	lw	a3,0(a4)
    29d4:	00d7a023          	sw	a3,0(a5)
    29d8:	00472683          	lw	a3,4(a4)
    29dc:	00d7a223          	sw	a3,4(a5)
    29e0:	00872703          	lw	a4,8(a4)
    29e4:	00e7a423          	sw	a4,8(a5)
    29e8:	fe842703          	lw	a4,-24(s0)
    29ec:	00070793          	mv	a5,a4
    29f0:	00179793          	sll	a5,a5,0x1
    29f4:	00e787b3          	add	a5,a5,a4
    29f8:	00279793          	sll	a5,a5,0x2
    29fc:	00078713          	mv	a4,a5
    2a00:	fcc42783          	lw	a5,-52(s0)
    2a04:	00e787b3          	add	a5,a5,a4
    2a08:	fdc42703          	lw	a4,-36(s0)
    2a0c:	00e7a023          	sw	a4,0(a5)
    2a10:	fe042703          	lw	a4,-32(s0)
    2a14:	00e7a223          	sw	a4,4(a5)
    2a18:	fe442703          	lw	a4,-28(s0)
    2a1c:	00e7a423          	sw	a4,8(a5)
    2a20:	fec42783          	lw	a5,-20(s0)
    2a24:	00178793          	add	a5,a5,1
    2a28:	fef42623          	sw	a5,-20(s0)
    2a2c:	fec42703          	lw	a4,-20(s0)
    2a30:	03200793          	li	a5,50
    2a34:	eee7dee3          	bge	a5,a4,2930 <solitaire_shuffle_deck+0x1c>
    2a38:	00000013          	nop
    2a3c:	00000013          	nop
    2a40:	03c12083          	lw	ra,60(sp)
    2a44:	03812403          	lw	s0,56(sp)
    2a48:	04010113          	add	sp,sp,64
    2a4c:	00008067          	ret

00002a50 <solitaire_new_game>:
    2a50:	fd010113          	add	sp,sp,-48
    2a54:	02112623          	sw	ra,44(sp)
    2a58:	02812423          	sw	s0,40(sp)
    2a5c:	03010413          	add	s0,sp,48
    2a60:	fca42e23          	sw	a0,-36(s0)
    2a64:	fdc42783          	lw	a5,-36(s0)
    2a68:	00078513          	mv	a0,a5
    2a6c:	dd5ff0ef          	jal	2840 <solitaire_init_deck>
    2a70:	fdc42783          	lw	a5,-36(s0)
    2a74:	00078513          	mv	a0,a5
    2a78:	e9dff0ef          	jal	2914 <solitaire_shuffle_deck>
    2a7c:	fdc42783          	lw	a5,-36(s0)
    2a80:	03400713          	li	a4,52
    2a84:	26e7a823          	sw	a4,624(a5)
    2a88:	fdc42783          	lw	a5,-36(s0)
    2a8c:	4e07a223          	sw	zero,1252(a5)
    2a90:	fdc42703          	lw	a4,-36(s0)
    2a94:	000017b7          	lui	a5,0x1
    2a98:	d1c78793          	add	a5,a5,-740 # d1c <render_sprite_width_8_height_8+0x8c>
    2a9c:	00f707b3          	add	a5,a4,a5
    2aa0:	01c00613          	li	a2,28
    2aa4:	00000593          	li	a1,0
    2aa8:	00078513          	mv	a0,a5
    2aac:	fd0fd0ef          	jal	27c <memset>
    2ab0:	fdc42703          	lw	a4,-36(s0)
    2ab4:	000017b7          	lui	a5,0x1
    2ab8:	00f707b3          	add	a5,a4,a5
    2abc:	d607a423          	sw	zero,-664(a5) # d68 <render_sprite_width_8_height_8+0xd8>
    2ac0:	fe042623          	sw	zero,-20(s0)
    2ac4:	0e80006f          	j	2bac <solitaire_new_game+0x15c>
    2ac8:	fe042423          	sw	zero,-24(s0)
    2acc:	0880006f          	j	2b54 <solitaire_new_game+0x104>
    2ad0:	fdc42783          	lw	a5,-36(s0)
    2ad4:	2707a783          	lw	a5,624(a5)
    2ad8:	fff78713          	add	a4,a5,-1
    2adc:	fdc42783          	lw	a5,-36(s0)
    2ae0:	26e7a823          	sw	a4,624(a5)
    2ae4:	fdc42783          	lw	a5,-36(s0)
    2ae8:	2707a683          	lw	a3,624(a5)
    2aec:	fdc42603          	lw	a2,-36(s0)
    2af0:	fe842703          	lw	a4,-24(s0)
    2af4:	fec42583          	lw	a1,-20(s0)
    2af8:	00070793          	mv	a5,a4
    2afc:	00179793          	sll	a5,a5,0x1
    2b00:	00e787b3          	add	a5,a5,a4
    2b04:	00279793          	sll	a5,a5,0x2
    2b08:	12c00713          	li	a4,300
    2b0c:	02e58733          	mul	a4,a1,a4
    2b10:	00e78733          	add	a4,a5,a4
    2b14:	00e60733          	add	a4,a2,a4
    2b18:	fdc42603          	lw	a2,-36(s0)
    2b1c:	00068793          	mv	a5,a3
    2b20:	00179793          	sll	a5,a5,0x1
    2b24:	00d787b3          	add	a5,a5,a3
    2b28:	00279793          	sll	a5,a5,0x2
    2b2c:	00f607b3          	add	a5,a2,a5
    2b30:	0007a683          	lw	a3,0(a5)
    2b34:	4ed72423          	sw	a3,1256(a4)
    2b38:	0047a683          	lw	a3,4(a5)
    2b3c:	4ed72623          	sw	a3,1260(a4)
    2b40:	0087a783          	lw	a5,8(a5)
    2b44:	4ef72823          	sw	a5,1264(a4)
    2b48:	fe842783          	lw	a5,-24(s0)
    2b4c:	00178793          	add	a5,a5,1
    2b50:	fef42423          	sw	a5,-24(s0)
    2b54:	fe842703          	lw	a4,-24(s0)
    2b58:	fec42783          	lw	a5,-20(s0)
    2b5c:	f6f74ae3          	blt	a4,a5,2ad0 <solitaire_new_game+0x80>
    2b60:	fec42783          	lw	a5,-20(s0)
    2b64:	00178793          	add	a5,a5,1
    2b68:	00078693          	mv	a3,a5
    2b6c:	fdc42703          	lw	a4,-36(s0)
    2b70:	fec42783          	lw	a5,-20(s0)
    2b74:	34478793          	add	a5,a5,836
    2b78:	00279793          	sll	a5,a5,0x2
    2b7c:	00f707b3          	add	a5,a4,a5
    2b80:	00d7a623          	sw	a3,12(a5)
    2b84:	fdc42703          	lw	a4,-36(s0)
    2b88:	fec42683          	lw	a3,-20(s0)
    2b8c:	13800793          	li	a5,312
    2b90:	02f687b3          	mul	a5,a3,a5
    2b94:	00f707b3          	add	a5,a4,a5
    2b98:	00100713          	li	a4,1
    2b9c:	4ee78823          	sb	a4,1264(a5)
    2ba0:	fec42783          	lw	a5,-20(s0)
    2ba4:	00178793          	add	a5,a5,1
    2ba8:	fef42623          	sw	a5,-20(s0)
    2bac:	fec42703          	lw	a4,-20(s0)
    2bb0:	00600793          	li	a5,6
    2bb4:	f0e7dae3          	bge	a5,a4,2ac8 <solitaire_new_game+0x78>
    2bb8:	00000013          	nop
    2bbc:	00000013          	nop
    2bc0:	02c12083          	lw	ra,44(sp)
    2bc4:	02812403          	lw	s0,40(sp)
    2bc8:	03010113          	add	sp,sp,48
    2bcc:	00008067          	ret

00002bd0 <solitaire_move_top_card_to_discard>:
    2bd0:	fe010113          	add	sp,sp,-32
    2bd4:	00112e23          	sw	ra,28(sp)
    2bd8:	00812c23          	sw	s0,24(sp)
    2bdc:	02010413          	add	s0,sp,32
    2be0:	fea42623          	sw	a0,-20(s0)
    2be4:	fec42783          	lw	a5,-20(s0)
    2be8:	2707a783          	lw	a5,624(a5)
    2bec:	00079863          	bnez	a5,2bfc <solitaire_move_top_card_to_discard+0x2c>
    2bf0:	000107b7          	lui	a5,0x10
    2bf4:	6cc78513          	add	a0,a5,1740 # 106cc <glyphs_width+0x284>
    2bf8:	fecff0ef          	jal	23e4 <panic>
    2bfc:	fec42783          	lw	a5,-20(s0)
    2c00:	2707a783          	lw	a5,624(a5)
    2c04:	fff78713          	add	a4,a5,-1
    2c08:	fec42783          	lw	a5,-20(s0)
    2c0c:	26e7a823          	sw	a4,624(a5)
    2c10:	fec42783          	lw	a5,-20(s0)
    2c14:	2707a683          	lw	a3,624(a5)
    2c18:	fec42783          	lw	a5,-20(s0)
    2c1c:	4e47a703          	lw	a4,1252(a5)
    2c20:	fec42603          	lw	a2,-20(s0)
    2c24:	00070793          	mv	a5,a4
    2c28:	00179793          	sll	a5,a5,0x1
    2c2c:	00e787b3          	add	a5,a5,a4
    2c30:	00279793          	sll	a5,a5,0x2
    2c34:	00f60733          	add	a4,a2,a5
    2c38:	fec42603          	lw	a2,-20(s0)
    2c3c:	00068793          	mv	a5,a3
    2c40:	00179793          	sll	a5,a5,0x1
    2c44:	00d787b3          	add	a5,a5,a3
    2c48:	00279793          	sll	a5,a5,0x2
    2c4c:	00f607b3          	add	a5,a2,a5
    2c50:	0007a683          	lw	a3,0(a5)
    2c54:	26d72a23          	sw	a3,628(a4)
    2c58:	0047a683          	lw	a3,4(a5)
    2c5c:	26d72c23          	sw	a3,632(a4)
    2c60:	0087a783          	lw	a5,8(a5)
    2c64:	26f72e23          	sw	a5,636(a4)
    2c68:	fec42783          	lw	a5,-20(s0)
    2c6c:	4e47a783          	lw	a5,1252(a5)
    2c70:	00178713          	add	a4,a5,1
    2c74:	fec42783          	lw	a5,-20(s0)
    2c78:	4ee7a223          	sw	a4,1252(a5)
    2c7c:	00000013          	nop
    2c80:	01c12083          	lw	ra,28(sp)
    2c84:	01812403          	lw	s0,24(sp)
    2c88:	02010113          	add	sp,sp,32
    2c8c:	00008067          	ret

00002c90 <solitaire_move_discard_back_to_deck>:
    2c90:	fd010113          	add	sp,sp,-48
    2c94:	02812623          	sw	s0,44(sp)
    2c98:	03010413          	add	s0,sp,48
    2c9c:	fca42e23          	sw	a0,-36(s0)
    2ca0:	fe042623          	sw	zero,-20(s0)
    2ca4:	0780006f          	j	2d1c <solitaire_move_discard_back_to_deck+0x8c>
    2ca8:	fdc42783          	lw	a5,-36(s0)
    2cac:	2707a703          	lw	a4,624(a5)
    2cb0:	fdc42683          	lw	a3,-36(s0)
    2cb4:	00070793          	mv	a5,a4
    2cb8:	00179793          	sll	a5,a5,0x1
    2cbc:	00e787b3          	add	a5,a5,a4
    2cc0:	00279793          	sll	a5,a5,0x2
    2cc4:	00f68733          	add	a4,a3,a5
    2cc8:	fdc42603          	lw	a2,-36(s0)
    2ccc:	fec42683          	lw	a3,-20(s0)
    2cd0:	00068793          	mv	a5,a3
    2cd4:	00179793          	sll	a5,a5,0x1
    2cd8:	00d787b3          	add	a5,a5,a3
    2cdc:	00279793          	sll	a5,a5,0x2
    2ce0:	00f607b3          	add	a5,a2,a5
    2ce4:	2747a683          	lw	a3,628(a5)
    2ce8:	00d72023          	sw	a3,0(a4)
    2cec:	2787a683          	lw	a3,632(a5)
    2cf0:	00d72223          	sw	a3,4(a4)
    2cf4:	27c7a783          	lw	a5,636(a5)
    2cf8:	00f72423          	sw	a5,8(a4)
    2cfc:	fdc42783          	lw	a5,-36(s0)
    2d00:	2707a783          	lw	a5,624(a5)
    2d04:	00178713          	add	a4,a5,1
    2d08:	fdc42783          	lw	a5,-36(s0)
    2d0c:	26e7a823          	sw	a4,624(a5)
    2d10:	fec42783          	lw	a5,-20(s0)
    2d14:	00178793          	add	a5,a5,1
    2d18:	fef42623          	sw	a5,-20(s0)
    2d1c:	fdc42783          	lw	a5,-36(s0)
    2d20:	4e47a703          	lw	a4,1252(a5)
    2d24:	fec42783          	lw	a5,-20(s0)
    2d28:	f8e7e0e3          	bltu	a5,a4,2ca8 <solitaire_move_discard_back_to_deck+0x18>
    2d2c:	fdc42783          	lw	a5,-36(s0)
    2d30:	4e07a223          	sw	zero,1252(a5)
    2d34:	00000013          	nop
    2d38:	02c12403          	lw	s0,44(sp)
    2d3c:	03010113          	add	sp,sp,48
    2d40:	00008067          	ret

00002d44 <solitaire_handle_interrupt>:
    2d44:	fd010113          	add	sp,sp,-48
    2d48:	02112623          	sw	ra,44(sp)
    2d4c:	02812423          	sw	s0,40(sp)
    2d50:	03010413          	add	s0,sp,48
    2d54:	fca42e23          	sw	a0,-36(s0)
    2d58:	fdc42703          	lw	a4,-36(s0)
    2d5c:	01100793          	li	a5,17
    2d60:	02f71663          	bne	a4,a5,2d8c <solitaire_handle_interrupt+0x48>
    2d64:	000027b7          	lui	a5,0x2
    2d68:	71078513          	add	a0,a5,1808 # 2710 <shuffle+0xe8>
    2d6c:	e90ff0ef          	jal	23fc <delay>
    2d70:	c8dfd0ef          	jal	9fc <io_switch>
    2d74:	fea42623          	sw	a0,-20(s0)
    2d78:	fec42783          	lw	a5,-20(s0)
    2d7c:	2007f793          	and	a5,a5,512
    2d80:	00078a63          	beqz	a5,2d94 <solitaire_handle_interrupt+0x50>
    2d84:	00100793          	li	a5,1
    2d88:	0140006f          	j	2d9c <solitaire_handle_interrupt+0x58>
    2d8c:	00000013          	nop
    2d90:	0080006f          	j	2d98 <solitaire_handle_interrupt+0x54>
    2d94:	00000013          	nop
    2d98:	00000793          	li	a5,0
    2d9c:	00078513          	mv	a0,a5
    2da0:	02c12083          	lw	ra,44(sp)
    2da4:	02812403          	lw	s0,40(sp)
    2da8:	03010113          	add	sp,sp,48
    2dac:	00008067          	ret

00002db0 <solitaire_handler_reset>:
    2db0:	ff010113          	add	sp,sp,-16
    2db4:	00812623          	sw	s0,12(sp)
    2db8:	01010413          	add	s0,sp,16
    2dbc:	0000f7b7          	lui	a5,0xf
    2dc0:	8e07a223          	sw	zero,-1820(a5) # e8e4 <has_rendered>
    2dc4:	00000013          	nop
    2dc8:	00c12403          	lw	s0,12(sp)
    2dcc:	01010113          	add	sp,sp,16
    2dd0:	00008067          	ret

00002dd4 <solitaire_handler_render>:
    2dd4:	ff010113          	add	sp,sp,-16
    2dd8:	00112623          	sw	ra,12(sp)
    2ddc:	00812423          	sw	s0,8(sp)
    2de0:	01010413          	add	s0,sp,16
    2de4:	0000f7b7          	lui	a5,0xf
    2de8:	8e47a783          	lw	a5,-1820(a5) # e8e4 <has_rendered>
    2dec:	00079a63          	bnez	a5,2e00 <solitaire_handler_render+0x2c>
    2df0:	63c000ef          	jal	342c <solitaire_render>
    2df4:	0000f7b7          	lui	a5,0xf
    2df8:	00100713          	li	a4,1
    2dfc:	8ee7a223          	sw	a4,-1820(a5) # e8e4 <has_rendered>
    2e00:	00000013          	nop
    2e04:	00c12083          	lw	ra,12(sp)
    2e08:	00812403          	lw	s0,8(sp)
    2e0c:	01010113          	add	sp,sp,16
    2e10:	00008067          	ret

00002e14 <render_16x16_suit_sprite>:
    2e14:	fd010113          	add	sp,sp,-48
    2e18:	02112623          	sw	ra,44(sp)
    2e1c:	02812423          	sw	s0,40(sp)
    2e20:	03010413          	add	s0,sp,48
    2e24:	fca42e23          	sw	a0,-36(s0)
    2e28:	fcb42c23          	sw	a1,-40(s0)
    2e2c:	fcc42a23          	sw	a2,-44(s0)
    2e30:	00068793          	mv	a5,a3
    2e34:	fcf409a3          	sb	a5,-45(s0)
    2e38:	fd442703          	lw	a4,-44(s0)
    2e3c:	00300793          	li	a5,3
    2e40:	0af70c63          	beq	a4,a5,2ef8 <render_16x16_suit_sprite+0xe4>
    2e44:	fd442703          	lw	a4,-44(s0)
    2e48:	00300793          	li	a5,3
    2e4c:	0ce7ea63          	bltu	a5,a4,2f20 <render_16x16_suit_sprite+0x10c>
    2e50:	fd442703          	lw	a4,-44(s0)
    2e54:	00200793          	li	a5,2
    2e58:	02f70463          	beq	a4,a5,2e80 <render_16x16_suit_sprite+0x6c>
    2e5c:	fd442703          	lw	a4,-44(s0)
    2e60:	00200793          	li	a5,2
    2e64:	0ae7ee63          	bltu	a5,a4,2f20 <render_16x16_suit_sprite+0x10c>
    2e68:	fd442783          	lw	a5,-44(s0)
    2e6c:	06078263          	beqz	a5,2ed0 <render_16x16_suit_sprite+0xbc>
    2e70:	fd442703          	lw	a4,-44(s0)
    2e74:	00100793          	li	a5,1
    2e78:	02f70863          	beq	a4,a5,2ea8 <render_16x16_suit_sprite+0x94>
    2e7c:	0a40006f          	j	2f20 <render_16x16_suit_sprite+0x10c>
    2e80:	fd344783          	lbu	a5,-45(s0)
    2e84:	fef40623          	sb	a5,-20(s0)
    2e88:	fec40793          	add	a5,s0,-20
    2e8c:	00100713          	li	a4,1
    2e90:	00078693          	mv	a3,a5
    2e94:	00900613          	li	a2,9
    2e98:	fd842583          	lw	a1,-40(s0)
    2e9c:	fdc42503          	lw	a0,-36(s0)
    2ea0:	fa1fd0ef          	jal	e40 <render_sprite>
    2ea4:	07c0006f          	j	2f20 <render_16x16_suit_sprite+0x10c>
    2ea8:	fd344783          	lbu	a5,-45(s0)
    2eac:	fef40423          	sb	a5,-24(s0)
    2eb0:	fe840793          	add	a5,s0,-24
    2eb4:	00100713          	li	a4,1
    2eb8:	00078693          	mv	a3,a5
    2ebc:	00c00613          	li	a2,12
    2ec0:	fd842583          	lw	a1,-40(s0)
    2ec4:	fdc42503          	lw	a0,-36(s0)
    2ec8:	f79fd0ef          	jal	e40 <render_sprite>
    2ecc:	0540006f          	j	2f20 <render_16x16_suit_sprite+0x10c>
    2ed0:	fd344783          	lbu	a5,-45(s0)
    2ed4:	fef40223          	sb	a5,-28(s0)
    2ed8:	fe440793          	add	a5,s0,-28
    2edc:	00100713          	li	a4,1
    2ee0:	00078693          	mv	a3,a5
    2ee4:	00800613          	li	a2,8
    2ee8:	fd842583          	lw	a1,-40(s0)
    2eec:	fdc42503          	lw	a0,-36(s0)
    2ef0:	f51fd0ef          	jal	e40 <render_sprite>
    2ef4:	02c0006f          	j	2f20 <render_16x16_suit_sprite+0x10c>
    2ef8:	fd344783          	lbu	a5,-45(s0)
    2efc:	fef40023          	sb	a5,-32(s0)
    2f00:	fe040793          	add	a5,s0,-32
    2f04:	00100713          	li	a4,1
    2f08:	00078693          	mv	a3,a5
    2f0c:	00000613          	li	a2,0
    2f10:	fd842583          	lw	a1,-40(s0)
    2f14:	fdc42503          	lw	a0,-36(s0)
    2f18:	f29fd0ef          	jal	e40 <render_sprite>
    2f1c:	00000013          	nop
    2f20:	00000013          	nop
    2f24:	02c12083          	lw	ra,44(sp)
    2f28:	02812403          	lw	s0,40(sp)
    2f2c:	03010113          	add	sp,sp,48
    2f30:	00008067          	ret

00002f34 <render_card_border>:
    2f34:	fe010113          	add	sp,sp,-32
    2f38:	00112e23          	sw	ra,28(sp)
    2f3c:	00812c23          	sw	s0,24(sp)
    2f40:	02010413          	add	s0,sp,32
    2f44:	fea42623          	sw	a0,-20(s0)
    2f48:	feb42423          	sw	a1,-24(s0)
    2f4c:	00060793          	mv	a5,a2
    2f50:	fef403a3          	sb	a5,-25(s0)
    2f54:	fec42783          	lw	a5,-20(s0)
    2f58:	00278513          	add	a0,a5,2
    2f5c:	01e00713          	li	a4,30
    2f60:	fec42783          	lw	a5,-20(s0)
    2f64:	00f707b3          	add	a5,a4,a5
    2f68:	ffd78793          	add	a5,a5,-3
    2f6c:	fe744703          	lbu	a4,-25(s0)
    2f70:	fe842683          	lw	a3,-24(s0)
    2f74:	00078613          	mv	a2,a5
    2f78:	fe842583          	lw	a1,-24(s0)
    2f7c:	b60fe0ef          	jal	12dc <render_line>
    2f80:	fec42783          	lw	a5,-20(s0)
    2f84:	00278513          	add	a0,a5,2
    2f88:	02800713          	li	a4,40
    2f8c:	fe842783          	lw	a5,-24(s0)
    2f90:	00f707b3          	add	a5,a4,a5
    2f94:	fff78593          	add	a1,a5,-1
    2f98:	01e00713          	li	a4,30
    2f9c:	fec42783          	lw	a5,-20(s0)
    2fa0:	00f707b3          	add	a5,a4,a5
    2fa4:	ffd78613          	add	a2,a5,-3
    2fa8:	02800713          	li	a4,40
    2fac:	fe842783          	lw	a5,-24(s0)
    2fb0:	00f707b3          	add	a5,a4,a5
    2fb4:	fff78793          	add	a5,a5,-1
    2fb8:	fe744703          	lbu	a4,-25(s0)
    2fbc:	00078693          	mv	a3,a5
    2fc0:	b1cfe0ef          	jal	12dc <render_line>
    2fc4:	fe842783          	lw	a5,-24(s0)
    2fc8:	00278593          	add	a1,a5,2
    2fcc:	02800713          	li	a4,40
    2fd0:	fe842783          	lw	a5,-24(s0)
    2fd4:	00f707b3          	add	a5,a4,a5
    2fd8:	ffd78793          	add	a5,a5,-3
    2fdc:	fe744703          	lbu	a4,-25(s0)
    2fe0:	00078693          	mv	a3,a5
    2fe4:	fec42603          	lw	a2,-20(s0)
    2fe8:	fec42503          	lw	a0,-20(s0)
    2fec:	af0fe0ef          	jal	12dc <render_line>
    2ff0:	01e00713          	li	a4,30
    2ff4:	fec42783          	lw	a5,-20(s0)
    2ff8:	00f707b3          	add	a5,a4,a5
    2ffc:	fff78513          	add	a0,a5,-1
    3000:	fe842783          	lw	a5,-24(s0)
    3004:	00278593          	add	a1,a5,2
    3008:	01e00713          	li	a4,30
    300c:	fec42783          	lw	a5,-20(s0)
    3010:	00f707b3          	add	a5,a4,a5
    3014:	fff78613          	add	a2,a5,-1
    3018:	02800713          	li	a4,40
    301c:	fe842783          	lw	a5,-24(s0)
    3020:	00f707b3          	add	a5,a4,a5
    3024:	ffd78793          	add	a5,a5,-3
    3028:	fe744703          	lbu	a4,-25(s0)
    302c:	00078693          	mv	a3,a5
    3030:	aacfe0ef          	jal	12dc <render_line>
    3034:	fec42783          	lw	a5,-20(s0)
    3038:	00178713          	add	a4,a5,1
    303c:	fe842783          	lw	a5,-24(s0)
    3040:	00178793          	add	a5,a5,1
    3044:	fe744683          	lbu	a3,-25(s0)
    3048:	00068613          	mv	a2,a3
    304c:	00078593          	mv	a1,a5
    3050:	00070513          	mv	a0,a4
    3054:	a29fd0ef          	jal	a7c <io_vga_set_pixel>
    3058:	01e00713          	li	a4,30
    305c:	fec42783          	lw	a5,-20(s0)
    3060:	00f707b3          	add	a5,a4,a5
    3064:	ffe78713          	add	a4,a5,-2
    3068:	fe842783          	lw	a5,-24(s0)
    306c:	00178793          	add	a5,a5,1
    3070:	fe744683          	lbu	a3,-25(s0)
    3074:	00068613          	mv	a2,a3
    3078:	00078593          	mv	a1,a5
    307c:	00070513          	mv	a0,a4
    3080:	9fdfd0ef          	jal	a7c <io_vga_set_pixel>
    3084:	fec42783          	lw	a5,-20(s0)
    3088:	00178693          	add	a3,a5,1
    308c:	02800713          	li	a4,40
    3090:	fe842783          	lw	a5,-24(s0)
    3094:	00f707b3          	add	a5,a4,a5
    3098:	ffe78793          	add	a5,a5,-2
    309c:	fe744703          	lbu	a4,-25(s0)
    30a0:	00070613          	mv	a2,a4
    30a4:	00078593          	mv	a1,a5
    30a8:	00068513          	mv	a0,a3
    30ac:	9d1fd0ef          	jal	a7c <io_vga_set_pixel>
    30b0:	01e00713          	li	a4,30
    30b4:	fec42783          	lw	a5,-20(s0)
    30b8:	00f707b3          	add	a5,a4,a5
    30bc:	ffe78693          	add	a3,a5,-2
    30c0:	02800713          	li	a4,40
    30c4:	fe842783          	lw	a5,-24(s0)
    30c8:	00f707b3          	add	a5,a4,a5
    30cc:	ffe78793          	add	a5,a5,-2
    30d0:	fe744703          	lbu	a4,-25(s0)
    30d4:	00070613          	mv	a2,a4
    30d8:	00078593          	mv	a1,a5
    30dc:	00068513          	mv	a0,a3
    30e0:	99dfd0ef          	jal	a7c <io_vga_set_pixel>
    30e4:	00000013          	nop
    30e8:	01c12083          	lw	ra,28(sp)
    30ec:	01812403          	lw	s0,24(sp)
    30f0:	02010113          	add	sp,sp,32
    30f4:	00008067          	ret

000030f8 <render_card_fill>:
    30f8:	fe010113          	add	sp,sp,-32
    30fc:	00112e23          	sw	ra,28(sp)
    3100:	00812c23          	sw	s0,24(sp)
    3104:	02010413          	add	s0,sp,32
    3108:	fea42623          	sw	a0,-20(s0)
    310c:	feb42423          	sw	a1,-24(s0)
    3110:	00060793          	mv	a5,a2
    3114:	fef403a3          	sb	a5,-25(s0)
    3118:	fec42783          	lw	a5,-20(s0)
    311c:	00278513          	add	a0,a5,2
    3120:	fe842783          	lw	a5,-24(s0)
    3124:	00178593          	add	a1,a5,1
    3128:	01e00713          	li	a4,30
    312c:	fec42783          	lw	a5,-20(s0)
    3130:	00f707b3          	add	a5,a4,a5
    3134:	ffd78613          	add	a2,a5,-3
    3138:	fe842783          	lw	a5,-24(s0)
    313c:	00178793          	add	a5,a5,1
    3140:	fe744703          	lbu	a4,-25(s0)
    3144:	00078693          	mv	a3,a5
    3148:	994fe0ef          	jal	12dc <render_line>
    314c:	fec42783          	lw	a5,-20(s0)
    3150:	00278513          	add	a0,a5,2
    3154:	02800713          	li	a4,40
    3158:	fe842783          	lw	a5,-24(s0)
    315c:	00f707b3          	add	a5,a4,a5
    3160:	ffe78593          	add	a1,a5,-2
    3164:	01e00713          	li	a4,30
    3168:	fec42783          	lw	a5,-20(s0)
    316c:	00f707b3          	add	a5,a4,a5
    3170:	ffd78613          	add	a2,a5,-3
    3174:	02800713          	li	a4,40
    3178:	fe842783          	lw	a5,-24(s0)
    317c:	00f707b3          	add	a5,a4,a5
    3180:	ffe78793          	add	a5,a5,-2
    3184:	fe744703          	lbu	a4,-25(s0)
    3188:	00078693          	mv	a3,a5
    318c:	950fe0ef          	jal	12dc <render_line>
    3190:	fec42783          	lw	a5,-20(s0)
    3194:	00178513          	add	a0,a5,1
    3198:	fe842783          	lw	a5,-24(s0)
    319c:	00278593          	add	a1,a5,2
    31a0:	01e00793          	li	a5,30
    31a4:	ffe78613          	add	a2,a5,-2
    31a8:	02800793          	li	a5,40
    31ac:	ffc78793          	add	a5,a5,-4
    31b0:	fe744703          	lbu	a4,-25(s0)
    31b4:	00078693          	mv	a3,a5
    31b8:	b48fe0ef          	jal	1500 <render_rect_fill>
    31bc:	00000013          	nop
    31c0:	01c12083          	lw	ra,28(sp)
    31c4:	01812403          	lw	s0,24(sp)
    31c8:	02010113          	add	sp,sp,32
    31cc:	00008067          	ret

000031d0 <render_card_raw>:
    31d0:	fc010113          	add	sp,sp,-64
    31d4:	02112e23          	sw	ra,60(sp)
    31d8:	02812c23          	sw	s0,56(sp)
    31dc:	04010413          	add	s0,sp,64
    31e0:	fca42e23          	sw	a0,-36(s0)
    31e4:	fcb42c23          	sw	a1,-40(s0)
    31e8:	fcc42a23          	sw	a2,-44(s0)
    31ec:	fcd42823          	sw	a3,-48(s0)
    31f0:	00070793          	mv	a5,a4
    31f4:	fcf407a3          	sb	a5,-49(s0)
    31f8:	fcf44783          	lbu	a5,-49(s0)
    31fc:	00078663          	beqz	a5,3208 <render_card_raw+0x38>
    3200:	0b700793          	li	a5,183
    3204:	0080006f          	j	320c <render_card_raw+0x3c>
    3208:	0ff00793          	li	a5,255
    320c:	fef407a3          	sb	a5,-17(s0)
    3210:	fcf44783          	lbu	a5,-49(s0)
    3214:	00078663          	beqz	a5,3220 <render_card_raw+0x50>
    3218:	0ff00793          	li	a5,255
    321c:	0080006f          	j	3224 <render_card_raw+0x54>
    3220:	0a000793          	li	a5,160
    3224:	fef40723          	sb	a5,-18(s0)
    3228:	fef44783          	lbu	a5,-17(s0)
    322c:	00078613          	mv	a2,a5
    3230:	fd842583          	lw	a1,-40(s0)
    3234:	fdc42503          	lw	a0,-36(s0)
    3238:	cfdff0ef          	jal	2f34 <render_card_border>
    323c:	fee44783          	lbu	a5,-18(s0)
    3240:	00078613          	mv	a2,a5
    3244:	fd842583          	lw	a1,-40(s0)
    3248:	fdc42503          	lw	a0,-36(s0)
    324c:	eadff0ef          	jal	30f8 <render_card_fill>
    3250:	fcf44783          	lbu	a5,-49(s0)
    3254:	10078863          	beqz	a5,3364 <render_card_raw+0x194>
    3258:	fd042503          	lw	a0,-48(s0)
    325c:	d9cff0ef          	jal	27f8 <solitaire_suit_is_red>
    3260:	00050793          	mv	a5,a0
    3264:	00078663          	beqz	a5,3270 <render_card_raw+0xa0>
    3268:	0e000793          	li	a5,224
    326c:	0080006f          	j	3274 <render_card_raw+0xa4>
    3270:	00000793          	li	a5,0
    3274:	fef406a3          	sb	a5,-19(s0)
    3278:	fd442503          	lw	a0,-44(s0)
    327c:	c98ff0ef          	jal	2714 <solitaire_card_rank_to_str>
    3280:	fea42423          	sw	a0,-24(s0)
    3284:	fe842503          	lw	a0,-24(s0)
    3288:	ffdfe0ef          	jal	2284 <render_text_width>
    328c:	fea42223          	sw	a0,-28(s0)
    3290:	fdc42783          	lw	a5,-36(s0)
    3294:	00478693          	add	a3,a5,4
    3298:	fd842783          	lw	a5,-40(s0)
    329c:	00278713          	add	a4,a5,2
    32a0:	fee44603          	lbu	a2,-18(s0)
    32a4:	fed44583          	lbu	a1,-19(s0)
    32a8:	00000793          	li	a5,0
    32ac:	fe842503          	lw	a0,-24(s0)
    32b0:	c6dfe0ef          	jal	1f1c <render_text>
    32b4:	01e00713          	li	a4,30
    32b8:	fdc42783          	lw	a5,-36(s0)
    32bc:	00f707b3          	add	a5,a4,a5
    32c0:	ffd78713          	add	a4,a5,-3
    32c4:	fe442783          	lw	a5,-28(s0)
    32c8:	40f706b3          	sub	a3,a4,a5
    32cc:	02800713          	li	a4,40
    32d0:	fd842783          	lw	a5,-40(s0)
    32d4:	00f707b3          	add	a5,a4,a5
    32d8:	ff878713          	add	a4,a5,-8
    32dc:	fee44603          	lbu	a2,-18(s0)
    32e0:	fed44583          	lbu	a1,-19(s0)
    32e4:	00000793          	li	a5,0
    32e8:	fe842503          	lw	a0,-24(s0)
    32ec:	cf1fe0ef          	jal	1fdc <render_text_rot_180>
    32f0:	fd042503          	lw	a0,-48(s0)
    32f4:	d04ff0ef          	jal	27f8 <solitaire_suit_is_red>
    32f8:	00050793          	mv	a5,a0
    32fc:	00078663          	beqz	a5,3308 <render_card_raw+0x138>
    3300:	0e000793          	li	a5,224
    3304:	0080006f          	j	330c <render_card_raw+0x13c>
    3308:	00000793          	li	a5,0
    330c:	fef401a3          	sb	a5,-29(s0)
    3310:	01e00793          	li	a5,30
    3314:	ff078793          	add	a5,a5,-16
    3318:	01f7d713          	srl	a4,a5,0x1f
    331c:	00f707b3          	add	a5,a4,a5
    3320:	4017d793          	sra	a5,a5,0x1
    3324:	00078713          	mv	a4,a5
    3328:	fdc42783          	lw	a5,-36(s0)
    332c:	00f70533          	add	a0,a4,a5
    3330:	02800793          	li	a5,40
    3334:	ff078793          	add	a5,a5,-16
    3338:	01f7d713          	srl	a4,a5,0x1f
    333c:	00f707b3          	add	a5,a4,a5
    3340:	4017d793          	sra	a5,a5,0x1
    3344:	00078713          	mv	a4,a5
    3348:	fd842783          	lw	a5,-40(s0)
    334c:	00f707b3          	add	a5,a4,a5
    3350:	fe344703          	lbu	a4,-29(s0)
    3354:	00070693          	mv	a3,a4
    3358:	fd042603          	lw	a2,-48(s0)
    335c:	00078593          	mv	a1,a5
    3360:	ab5ff0ef          	jal	2e14 <render_16x16_suit_sprite>
    3364:	00000013          	nop
    3368:	03c12083          	lw	ra,60(sp)
    336c:	03812403          	lw	s0,56(sp)
    3370:	04010113          	add	sp,sp,64
    3374:	00008067          	ret

00003378 <render_card>:
    3378:	fe010113          	add	sp,sp,-32
    337c:	00112e23          	sw	ra,28(sp)
    3380:	00812c23          	sw	s0,24(sp)
    3384:	02010413          	add	s0,sp,32
    3388:	fea42623          	sw	a0,-20(s0)
    338c:	feb42423          	sw	a1,-24(s0)
    3390:	fec42223          	sw	a2,-28(s0)
    3394:	fe442783          	lw	a5,-28(s0)
    3398:	0047a603          	lw	a2,4(a5)
    339c:	fe442783          	lw	a5,-28(s0)
    33a0:	0007a683          	lw	a3,0(a5)
    33a4:	fe442783          	lw	a5,-28(s0)
    33a8:	0087c783          	lbu	a5,8(a5)
    33ac:	00078713          	mv	a4,a5
    33b0:	fe842583          	lw	a1,-24(s0)
    33b4:	fec42503          	lw	a0,-20(s0)
    33b8:	e19ff0ef          	jal	31d0 <render_card_raw>
    33bc:	00000013          	nop
    33c0:	01c12083          	lw	ra,28(sp)
    33c4:	01812403          	lw	s0,24(sp)
    33c8:	02010113          	add	sp,sp,32
    33cc:	00008067          	ret

000033d0 <render_card_solid>:
    33d0:	fe010113          	add	sp,sp,-32
    33d4:	00112e23          	sw	ra,28(sp)
    33d8:	00812c23          	sw	s0,24(sp)
    33dc:	02010413          	add	s0,sp,32
    33e0:	fea42623          	sw	a0,-20(s0)
    33e4:	feb42423          	sw	a1,-24(s0)
    33e8:	00060793          	mv	a5,a2
    33ec:	fef403a3          	sb	a5,-25(s0)
    33f0:	fe744783          	lbu	a5,-25(s0)
    33f4:	00078613          	mv	a2,a5
    33f8:	fe842583          	lw	a1,-24(s0)
    33fc:	fec42503          	lw	a0,-20(s0)
    3400:	b35ff0ef          	jal	2f34 <render_card_border>
    3404:	fe744783          	lbu	a5,-25(s0)
    3408:	00078613          	mv	a2,a5
    340c:	fe842583          	lw	a1,-24(s0)
    3410:	fec42503          	lw	a0,-20(s0)
    3414:	ce5ff0ef          	jal	30f8 <render_card_fill>
    3418:	00000013          	nop
    341c:	01c12083          	lw	ra,28(sp)
    3420:	01812403          	lw	s0,24(sp)
    3424:	02010113          	add	sp,sp,32
    3428:	00008067          	ret

0000342c <solitaire_render>:
    342c:	fc010113          	add	sp,sp,-64
    3430:	02112e23          	sw	ra,60(sp)
    3434:	02812c23          	sw	s0,56(sp)
    3438:	04010413          	add	s0,sp,64
    343c:	00800793          	li	a5,8
    3440:	00078513          	mv	a0,a5
    3444:	f59fe0ef          	jal	239c <render_background_solid>
    3448:	fe042623          	sw	zero,-20(s0)
    344c:	0b80006f          	j	3504 <solitaire_render+0xd8>
    3450:	fe042423          	sw	zero,-24(s0)
    3454:	0980006f          	j	34ec <solitaire_render+0xc0>
    3458:	fe842703          	lw	a4,-24(s0)
    345c:	fec42783          	lw	a5,-20(s0)
    3460:	00f727b3          	slt	a5,a4,a5
    3464:	0017b793          	seqz	a5,a5
    3468:	fcf405a3          	sb	a5,-53(s0)
    346c:	fe842783          	lw	a5,-24(s0)
    3470:	00178713          	add	a4,a5,1
    3474:	00d00793          	li	a5,13
    3478:	02f767b3          	rem	a5,a4,a5
    347c:	00178793          	add	a5,a5,1
    3480:	fcf42223          	sw	a5,-60(s0)
    3484:	01e00793          	li	a5,30
    3488:	00478713          	add	a4,a5,4
    348c:	fec42783          	lw	a5,-20(s0)
    3490:	02f70733          	mul	a4,a4,a5
    3494:	00600793          	li	a5,6
    3498:	00f70533          	add	a0,a4,a5
    349c:	fe842703          	lw	a4,-24(s0)
    34a0:	00070793          	mv	a5,a4
    34a4:	00379793          	sll	a5,a5,0x3
    34a8:	00e78733          	add	a4,a5,a4
    34ac:	00600793          	li	a5,6
    34b0:	00f705b3          	add	a1,a4,a5
    34b4:	fc442603          	lw	a2,-60(s0)
    34b8:	fe842703          	lw	a4,-24(s0)
    34bc:	41f75793          	sra	a5,a4,0x1f
    34c0:	01e7d793          	srl	a5,a5,0x1e
    34c4:	00f70733          	add	a4,a4,a5
    34c8:	00377713          	and	a4,a4,3
    34cc:	40f707b3          	sub	a5,a4,a5
    34d0:	00078693          	mv	a3,a5
    34d4:	fcb44783          	lbu	a5,-53(s0)
    34d8:	00078713          	mv	a4,a5
    34dc:	cf5ff0ef          	jal	31d0 <render_card_raw>
    34e0:	fe842783          	lw	a5,-24(s0)
    34e4:	00178793          	add	a5,a5,1
    34e8:	fef42423          	sw	a5,-24(s0)
    34ec:	fec42703          	lw	a4,-20(s0)
    34f0:	fe842783          	lw	a5,-24(s0)
    34f4:	f6f752e3          	bge	a4,a5,3458 <solitaire_render+0x2c>
    34f8:	fec42783          	lw	a5,-20(s0)
    34fc:	00178793          	add	a5,a5,1
    3500:	fef42623          	sw	a5,-20(s0)
    3504:	fec42703          	lw	a4,-20(s0)
    3508:	00600793          	li	a5,6
    350c:	f4e7d2e3          	bge	a5,a4,3450 <solitaire_render+0x24>
    3510:	fe042223          	sw	zero,-28(s0)
    3514:	0f00006f          	j	3604 <solitaire_render+0x1d8>
    3518:	fe042023          	sw	zero,-32(s0)
    351c:	0d00006f          	j	35ec <solitaire_render+0x1c0>
    3520:	01e00793          	li	a5,30
    3524:	14000713          	li	a4,320
    3528:	40f70733          	sub	a4,a4,a5
    352c:	00600793          	li	a5,6
    3530:	40f70733          	sub	a4,a4,a5
    3534:	01e00793          	li	a5,30
    3538:	00478693          	add	a3,a5,4
    353c:	fe442783          	lw	a5,-28(s0)
    3540:	02f687b3          	mul	a5,a3,a5
    3544:	40f707b3          	sub	a5,a4,a5
    3548:	fcf42823          	sw	a5,-48(s0)
    354c:	02800793          	li	a5,40
    3550:	00478713          	add	a4,a5,4
    3554:	fe042783          	lw	a5,-32(s0)
    3558:	02f70733          	mul	a4,a4,a5
    355c:	00600793          	li	a5,6
    3560:	00f707b3          	add	a5,a4,a5
    3564:	fcf42623          	sw	a5,-52(s0)
    3568:	01000793          	li	a5,16
    356c:	00078613          	mv	a2,a5
    3570:	fcc42583          	lw	a1,-52(s0)
    3574:	fd042503          	lw	a0,-48(s0)
    3578:	e59ff0ef          	jal	33d0 <render_card_solid>
    357c:	01e00793          	li	a5,30
    3580:	ff078793          	add	a5,a5,-16
    3584:	01f7d713          	srl	a4,a5,0x1f
    3588:	00f707b3          	add	a5,a4,a5
    358c:	4017d793          	sra	a5,a5,0x1
    3590:	00078713          	mv	a4,a5
    3594:	fd042783          	lw	a5,-48(s0)
    3598:	00f70533          	add	a0,a4,a5
    359c:	02800793          	li	a5,40
    35a0:	ff078793          	add	a5,a5,-16
    35a4:	01f7d713          	srl	a4,a5,0x1f
    35a8:	00f707b3          	add	a5,a4,a5
    35ac:	4017d793          	sra	a5,a5,0x1
    35b0:	00078713          	mv	a4,a5
    35b4:	fcc42783          	lw	a5,-52(s0)
    35b8:	00f705b3          	add	a1,a4,a5
    35bc:	fe042783          	lw	a5,-32(s0)
    35c0:	00179713          	sll	a4,a5,0x1
    35c4:	fe442783          	lw	a5,-28(s0)
    35c8:	00f707b3          	add	a5,a4,a5
    35cc:	00078713          	mv	a4,a5
    35d0:	00800793          	li	a5,8
    35d4:	00078693          	mv	a3,a5
    35d8:	00070613          	mv	a2,a4
    35dc:	839ff0ef          	jal	2e14 <render_16x16_suit_sprite>
    35e0:	fe042783          	lw	a5,-32(s0)
    35e4:	00178793          	add	a5,a5,1
    35e8:	fef42023          	sw	a5,-32(s0)
    35ec:	fe042703          	lw	a4,-32(s0)
    35f0:	00100793          	li	a5,1
    35f4:	f2e7d6e3          	bge	a5,a4,3520 <solitaire_render+0xf4>
    35f8:	fe442783          	lw	a5,-28(s0)
    35fc:	00178793          	add	a5,a5,1
    3600:	fef42223          	sw	a5,-28(s0)
    3604:	fe442703          	lw	a4,-28(s0)
    3608:	00100793          	li	a5,1
    360c:	f0e7d6e3          	bge	a5,a4,3518 <solitaire_render+0xec>
    3610:	fc042e23          	sw	zero,-36(s0)
    3614:	0780006f          	j	368c <solitaire_render+0x260>
    3618:	01e00793          	li	a5,30
    361c:	14000713          	li	a4,320
    3620:	40f70733          	sub	a4,a4,a5
    3624:	00600793          	li	a5,6
    3628:	40f70733          	sub	a4,a4,a5
    362c:	01e00793          	li	a5,30
    3630:	00478693          	add	a3,a5,4
    3634:	fdc42783          	lw	a5,-36(s0)
    3638:	02f687b3          	mul	a5,a3,a5
    363c:	40f707b3          	sub	a5,a4,a5
    3640:	fcf42c23          	sw	a5,-40(s0)
    3644:	02800793          	li	a5,40
    3648:	0f000713          	li	a4,240
    364c:	40f70733          	sub	a4,a4,a5
    3650:	00600793          	li	a5,6
    3654:	40f707b3          	sub	a5,a4,a5
    3658:	fcf42a23          	sw	a5,-44(s0)
    365c:	fdc42783          	lw	a5,-36(s0)
    3660:	00f037b3          	snez	a5,a5
    3664:	0ff7f793          	zext.b	a5,a5
    3668:	00078713          	mv	a4,a5
    366c:	00100693          	li	a3,1
    3670:	00a00613          	li	a2,10
    3674:	fd442583          	lw	a1,-44(s0)
    3678:	fd842503          	lw	a0,-40(s0)
    367c:	b55ff0ef          	jal	31d0 <render_card_raw>
    3680:	fdc42783          	lw	a5,-36(s0)
    3684:	00178793          	add	a5,a5,1
    3688:	fcf42e23          	sw	a5,-36(s0)
    368c:	fdc42703          	lw	a4,-36(s0)
    3690:	00100793          	li	a5,1
    3694:	f8e7d2e3          	bge	a5,a4,3618 <solitaire_render+0x1ec>
    3698:	c68fd0ef          	jal	b00 <io_vga_flush_pixels>
    369c:	00000013          	nop
    36a0:	03c12083          	lw	ra,60(sp)
    36a4:	03812403          	lw	s0,56(sp)
    36a8:	04010113          	add	sp,sp,64
    36ac:	00008067          	ret

000036b0 <main_menu_handle_interrupt>:
    36b0:	fe010113          	add	sp,sp,-32
    36b4:	00112e23          	sw	ra,28(sp)
    36b8:	00812c23          	sw	s0,24(sp)
    36bc:	02010413          	add	s0,sp,32
    36c0:	fea42623          	sw	a0,-20(s0)
    36c4:	fec42703          	lw	a4,-20(s0)
    36c8:	01100793          	li	a5,17
    36cc:	00f70a63          	beq	a4,a5,36e0 <main_menu_handle_interrupt+0x30>
    36d0:	fec42703          	lw	a4,-20(s0)
    36d4:	01200793          	li	a5,18
    36d8:	0cf70e63          	beq	a4,a5,37b4 <main_menu_handle_interrupt+0x104>
    36dc:	0f80006f          	j	37d4 <main_menu_handle_interrupt+0x124>
    36e0:	000027b7          	lui	a5,0x2
    36e4:	71078513          	add	a0,a5,1808 # 2710 <shuffle+0xe8>
    36e8:	d15fe0ef          	jal	23fc <delay>
    36ec:	b10fd0ef          	jal	9fc <io_switch>
    36f0:	00050713          	mv	a4,a0
    36f4:	0000f7b7          	lui	a5,0xf
    36f8:	8ee7aa23          	sw	a4,-1804(a5) # e8f4 <switch_state>
    36fc:	b00fd0ef          	jal	9fc <io_switch>
    3700:	00050793          	mv	a5,a0
    3704:	00700713          	li	a4,7
    3708:	08f76c63          	bltu	a4,a5,37a0 <main_menu_handle_interrupt+0xf0>
    370c:	00279713          	sll	a4,a5,0x2
    3710:	000107b7          	lui	a5,0x10
    3714:	6e478793          	add	a5,a5,1764 # 106e4 <glyphs_width+0x29c>
    3718:	00f707b3          	add	a5,a4,a5
    371c:	0007a783          	lw	a5,0(a5)
    3720:	00078067          	jr	a5
    3724:	0000f7b7          	lui	a5,0xf
    3728:	8e07a623          	sw	zero,-1812(a5) # e8ec <current_game>
    372c:	0840006f          	j	37b0 <main_menu_handle_interrupt+0x100>
    3730:	0000f7b7          	lui	a5,0xf
    3734:	00100713          	li	a4,1
    3738:	8ee7a623          	sw	a4,-1812(a5) # e8ec <current_game>
    373c:	0740006f          	j	37b0 <main_menu_handle_interrupt+0x100>
    3740:	0000f7b7          	lui	a5,0xf
    3744:	00200713          	li	a4,2
    3748:	8ee7a623          	sw	a4,-1812(a5) # e8ec <current_game>
    374c:	0640006f          	j	37b0 <main_menu_handle_interrupt+0x100>
    3750:	0000f7b7          	lui	a5,0xf
    3754:	00300713          	li	a4,3
    3758:	8ee7a623          	sw	a4,-1812(a5) # e8ec <current_game>
    375c:	0540006f          	j	37b0 <main_menu_handle_interrupt+0x100>
    3760:	0000f7b7          	lui	a5,0xf
    3764:	00500713          	li	a4,5
    3768:	8ee7a623          	sw	a4,-1812(a5) # e8ec <current_game>
    376c:	0440006f          	j	37b0 <main_menu_handle_interrupt+0x100>
    3770:	0000f7b7          	lui	a5,0xf
    3774:	00600713          	li	a4,6
    3778:	8ee7a623          	sw	a4,-1812(a5) # e8ec <current_game>
    377c:	0340006f          	j	37b0 <main_menu_handle_interrupt+0x100>
    3780:	0000f7b7          	lui	a5,0xf
    3784:	00700713          	li	a4,7
    3788:	8ee7a623          	sw	a4,-1812(a5) # e8ec <current_game>
    378c:	0240006f          	j	37b0 <main_menu_handle_interrupt+0x100>
    3790:	0000f7b7          	lui	a5,0xf
    3794:	00800713          	li	a4,8
    3798:	8ee7a623          	sw	a4,-1812(a5) # e8ec <current_game>
    379c:	0140006f          	j	37b0 <main_menu_handle_interrupt+0x100>
    37a0:	0000f7b7          	lui	a5,0xf
    37a4:	00400713          	li	a4,4
    37a8:	8ee7a623          	sw	a4,-1812(a5) # e8ec <current_game>
    37ac:	0280006f          	j	37d4 <main_menu_handle_interrupt+0x124>
    37b0:	0240006f          	j	37d4 <main_menu_handle_interrupt+0x124>
    37b4:	0000f7b7          	lui	a5,0xf
    37b8:	8ec7a703          	lw	a4,-1812(a5) # e8ec <current_game>
    37bc:	00400793          	li	a5,4
    37c0:	00f70863          	beq	a4,a5,37d0 <main_menu_handle_interrupt+0x120>
    37c4:	0000f7b7          	lui	a5,0xf
    37c8:	8ec7a783          	lw	a5,-1812(a5) # e8ec <current_game>
    37cc:	00c0006f          	j	37d8 <main_menu_handle_interrupt+0x128>
    37d0:	00000013          	nop
    37d4:	fff00793          	li	a5,-1
    37d8:	00078513          	mv	a0,a5
    37dc:	01c12083          	lw	ra,28(sp)
    37e0:	01812403          	lw	s0,24(sp)
    37e4:	02010113          	add	sp,sp,32
    37e8:	00008067          	ret

000037ec <main_menu_handler_reset>:
    37ec:	ff010113          	add	sp,sp,-16
    37f0:	00812623          	sw	s0,12(sp)
    37f4:	01010413          	add	s0,sp,16
    37f8:	0000f7b7          	lui	a5,0xf
    37fc:	8e07a423          	sw	zero,-1816(a5) # e8e8 <has_rendered>
    3800:	00000013          	nop
    3804:	00c12403          	lw	s0,12(sp)
    3808:	01010113          	add	sp,sp,16
    380c:	00008067          	ret

00003810 <main_menu_handler_render>:
    3810:	fd010113          	add	sp,sp,-48
    3814:	02112623          	sw	ra,44(sp)
    3818:	02812423          	sw	s0,40(sp)
    381c:	03010413          	add	s0,sp,48
    3820:	fe042623          	sw	zero,-20(s0)
    3824:	0000f7b7          	lui	a5,0xf
    3828:	8ec7a703          	lw	a4,-1812(a5) # e8ec <current_game>
    382c:	0000f7b7          	lui	a5,0xf
    3830:	8f07a783          	lw	a5,-1808(a5) # e8f0 <last_game>
    3834:	00f71c63          	bne	a4,a5,384c <main_menu_handler_render+0x3c>
    3838:	0000f7b7          	lui	a5,0xf
    383c:	8f47a703          	lw	a4,-1804(a5) # e8f4 <switch_state>
    3840:	0000f7b7          	lui	a5,0xf
    3844:	8f87a783          	lw	a5,-1800(a5) # e8f8 <last_switch_state>
    3848:	02f70663          	beq	a4,a5,3874 <main_menu_handler_render+0x64>
    384c:	00100793          	li	a5,1
    3850:	fef42623          	sw	a5,-20(s0)
    3854:	0000f7b7          	lui	a5,0xf
    3858:	8ec7a703          	lw	a4,-1812(a5) # e8ec <current_game>
    385c:	0000f7b7          	lui	a5,0xf
    3860:	8ee7a823          	sw	a4,-1808(a5) # e8f0 <last_game>
    3864:	0000f7b7          	lui	a5,0xf
    3868:	8f47a703          	lw	a4,-1804(a5) # e8f4 <switch_state>
    386c:	0000f7b7          	lui	a5,0xf
    3870:	8ee7ac23          	sw	a4,-1800(a5) # e8f8 <last_switch_state>
    3874:	0000f7b7          	lui	a5,0xf
    3878:	8e87a783          	lw	a5,-1816(a5) # e8e8 <has_rendered>
    387c:	1c079663          	bnez	a5,3a48 <main_menu_handler_render+0x238>
    3880:	00100793          	li	a5,1
    3884:	fef42623          	sw	a5,-20(s0)
    3888:	fe042423          	sw	zero,-24(s0)
    388c:	0440006f          	j	38d0 <main_menu_handler_render+0xc0>
    3890:	fe042223          	sw	zero,-28(s0)
    3894:	0240006f          	j	38b8 <main_menu_handler_render+0xa8>
    3898:	00000793          	li	a5,0
    389c:	00078613          	mv	a2,a5
    38a0:	fe442583          	lw	a1,-28(s0)
    38a4:	fe842503          	lw	a0,-24(s0)
    38a8:	9d4fd0ef          	jal	a7c <io_vga_set_pixel>
    38ac:	fe442783          	lw	a5,-28(s0)
    38b0:	00178793          	add	a5,a5,1
    38b4:	fef42223          	sw	a5,-28(s0)
    38b8:	fe442703          	lw	a4,-28(s0)
    38bc:	0ef00793          	li	a5,239
    38c0:	fce7dce3          	bge	a5,a4,3898 <main_menu_handler_render+0x88>
    38c4:	fe842783          	lw	a5,-24(s0)
    38c8:	00178793          	add	a5,a5,1
    38cc:	fef42423          	sw	a5,-24(s0)
    38d0:	fe842703          	lw	a4,-24(s0)
    38d4:	13f00793          	li	a5,319
    38d8:	fae7dce3          	bge	a5,a4,3890 <main_menu_handler_render+0x80>
    38dc:	0000f7b7          	lui	a5,0xf
    38e0:	00100713          	li	a4,1
    38e4:	8ee7a423          	sw	a4,-1816(a5) # e8e8 <has_rendered>
    38e8:	0ff00593          	li	a1,255
    38ec:	00000613          	li	a2,0
    38f0:	00000793          	li	a5,0
    38f4:	01e00713          	li	a4,30
    38f8:	00a00693          	li	a3,10
    38fc:	00010537          	lui	a0,0x10
    3900:	70450513          	add	a0,a0,1796 # 10704 <glyphs_width+0x2bc>
    3904:	e18fe0ef          	jal	1f1c <render_text>
    3908:	0ff00593          	li	a1,255
    390c:	00000613          	li	a2,0
    3910:	00000793          	li	a5,0
    3914:	02800713          	li	a4,40
    3918:	00a00693          	li	a3,10
    391c:	00010537          	lui	a0,0x10
    3920:	71050513          	add	a0,a0,1808 # 10710 <glyphs_width+0x2c8>
    3924:	df8fe0ef          	jal	1f1c <render_text>
    3928:	0ff00593          	li	a1,255
    392c:	00000613          	li	a2,0
    3930:	00000793          	li	a5,0
    3934:	03200713          	li	a4,50
    3938:	00a00693          	li	a3,10
    393c:	00010537          	lui	a0,0x10
    3940:	71c50513          	add	a0,a0,1820 # 1071c <glyphs_width+0x2d4>
    3944:	dd8fe0ef          	jal	1f1c <render_text>
    3948:	0ff00593          	li	a1,255
    394c:	00000613          	li	a2,0
    3950:	00000793          	li	a5,0
    3954:	03c00713          	li	a4,60
    3958:	00a00693          	li	a3,10
    395c:	00010537          	lui	a0,0x10
    3960:	73050513          	add	a0,a0,1840 # 10730 <glyphs_width+0x2e8>
    3964:	db8fe0ef          	jal	1f1c <render_text>
    3968:	0ff00593          	li	a1,255
    396c:	00000613          	li	a2,0
    3970:	00000793          	li	a5,0
    3974:	04600713          	li	a4,70
    3978:	00a00693          	li	a3,10
    397c:	00010537          	lui	a0,0x10
    3980:	73c50513          	add	a0,a0,1852 # 1073c <glyphs_width+0x2f4>
    3984:	d98fe0ef          	jal	1f1c <render_text>
    3988:	0ff00593          	li	a1,255
    398c:	00000613          	li	a2,0
    3990:	00000793          	li	a5,0
    3994:	05000713          	li	a4,80
    3998:	00a00693          	li	a3,10
    399c:	00010537          	lui	a0,0x10
    39a0:	74c50513          	add	a0,a0,1868 # 1074c <glyphs_width+0x304>
    39a4:	d78fe0ef          	jal	1f1c <render_text>
    39a8:	0ff00593          	li	a1,255
    39ac:	00000613          	li	a2,0
    39b0:	00000793          	li	a5,0
    39b4:	05a00713          	li	a4,90
    39b8:	00a00693          	li	a3,10
    39bc:	00010537          	lui	a0,0x10
    39c0:	76050513          	add	a0,a0,1888 # 10760 <glyphs_width+0x318>
    39c4:	d58fe0ef          	jal	1f1c <render_text>
    39c8:	0ff00593          	li	a1,255
    39cc:	00000613          	li	a2,0
    39d0:	00000793          	li	a5,0
    39d4:	06400713          	li	a4,100
    39d8:	00a00693          	li	a3,10
    39dc:	00010537          	lui	a0,0x10
    39e0:	76c50513          	add	a0,a0,1900 # 1076c <glyphs_width+0x324>
    39e4:	d38fe0ef          	jal	1f1c <render_text>
    39e8:	0ff00593          	li	a1,255
    39ec:	00000613          	li	a2,0
    39f0:	00000793          	li	a5,0
    39f4:	0c200713          	li	a4,194
    39f8:	00a00693          	li	a3,10
    39fc:	00010537          	lui	a0,0x10
    3a00:	77850513          	add	a0,a0,1912 # 10778 <glyphs_width+0x330>
    3a04:	d18fe0ef          	jal	1f1c <render_text>
    3a08:	0ff00593          	li	a1,255
    3a0c:	00000613          	li	a2,0
    3a10:	00000793          	li	a5,0
    3a14:	0cc00713          	li	a4,204
    3a18:	00a00693          	li	a3,10
    3a1c:	00010537          	lui	a0,0x10
    3a20:	79450513          	add	a0,a0,1940 # 10794 <glyphs_width+0x34c>
    3a24:	cf8fe0ef          	jal	1f1c <render_text>
    3a28:	0ff00593          	li	a1,255
    3a2c:	00000613          	li	a2,0
    3a30:	00000793          	li	a5,0
    3a34:	0e000713          	li	a4,224
    3a38:	00a00693          	li	a3,10
    3a3c:	00010537          	lui	a0,0x10
    3a40:	7b050513          	add	a0,a0,1968 # 107b0 <glyphs_width+0x368>
    3a44:	cd8fe0ef          	jal	1f1c <render_text>
    3a48:	fec42783          	lw	a5,-20(s0)
    3a4c:	14078063          	beqz	a5,3b8c <main_menu_handler_render+0x37c>
    3a50:	0000f7b7          	lui	a5,0xf
    3a54:	8a87a783          	lw	a5,-1880(a5) # e8a8 <clear_str.0>
    3a58:	00000593          	li	a1,0
    3a5c:	00000713          	li	a4,0
    3a60:	00a00693          	li	a3,10
    3a64:	00a00613          	li	a2,10
    3a68:	00078513          	mv	a0,a5
    3a6c:	f60fe0ef          	jal	21cc <render_text_clear>
    3a70:	0000f7b7          	lui	a5,0xf
    3a74:	8ec7a783          	lw	a5,-1812(a5) # e8ec <current_game>
    3a78:	00800713          	li	a4,8
    3a7c:	08f76e63          	bltu	a4,a5,3b18 <main_menu_handler_render+0x308>
    3a80:	00279713          	sll	a4,a5,0x2
    3a84:	000117b7          	lui	a5,0x11
    3a88:	83c78793          	add	a5,a5,-1988 # 1083c <glyphs_width+0x3f4>
    3a8c:	00f707b3          	add	a5,a4,a5
    3a90:	0007a783          	lw	a5,0(a5)
    3a94:	00078067          	jr	a5
    3a98:	000107b7          	lui	a5,0x10
    3a9c:	7dc78793          	add	a5,a5,2012 # 107dc <glyphs_width+0x394>
    3aa0:	fef42023          	sw	a5,-32(s0)
    3aa4:	0840006f          	j	3b28 <main_menu_handler_render+0x318>
    3aa8:	000107b7          	lui	a5,0x10
    3aac:	7e478793          	add	a5,a5,2020 # 107e4 <glyphs_width+0x39c>
    3ab0:	fef42023          	sw	a5,-32(s0)
    3ab4:	0740006f          	j	3b28 <main_menu_handler_render+0x318>
    3ab8:	000107b7          	lui	a5,0x10
    3abc:	7ec78793          	add	a5,a5,2028 # 107ec <glyphs_width+0x3a4>
    3ac0:	fef42023          	sw	a5,-32(s0)
    3ac4:	0640006f          	j	3b28 <main_menu_handler_render+0x318>
    3ac8:	000107b7          	lui	a5,0x10
    3acc:	7fc78793          	add	a5,a5,2044 # 107fc <glyphs_width+0x3b4>
    3ad0:	fef42023          	sw	a5,-32(s0)
    3ad4:	0540006f          	j	3b28 <main_menu_handler_render+0x318>
    3ad8:	000117b7          	lui	a5,0x11
    3adc:	80878793          	add	a5,a5,-2040 # 10808 <glyphs_width+0x3c0>
    3ae0:	fef42023          	sw	a5,-32(s0)
    3ae4:	0440006f          	j	3b28 <main_menu_handler_render+0x318>
    3ae8:	000117b7          	lui	a5,0x11
    3aec:	81478793          	add	a5,a5,-2028 # 10814 <glyphs_width+0x3cc>
    3af0:	fef42023          	sw	a5,-32(s0)
    3af4:	0340006f          	j	3b28 <main_menu_handler_render+0x318>
    3af8:	000117b7          	lui	a5,0x11
    3afc:	82478793          	add	a5,a5,-2012 # 10824 <glyphs_width+0x3dc>
    3b00:	fef42023          	sw	a5,-32(s0)
    3b04:	0240006f          	j	3b28 <main_menu_handler_render+0x318>
    3b08:	000117b7          	lui	a5,0x11
    3b0c:	82c78793          	add	a5,a5,-2004 # 1082c <glyphs_width+0x3e4>
    3b10:	fef42023          	sw	a5,-32(s0)
    3b14:	0140006f          	j	3b28 <main_menu_handler_render+0x318>
    3b18:	000117b7          	lui	a5,0x11
    3b1c:	83478793          	add	a5,a5,-1996 # 10834 <glyphs_width+0x3ec>
    3b20:	fef42023          	sw	a5,-32(s0)
    3b24:	00000013          	nop
    3b28:	fc042e23          	sw	zero,-36(s0)
    3b2c:	0000f7b7          	lui	a5,0xf
    3b30:	8f47a783          	lw	a5,-1804(a5) # e8f4 <switch_state>
    3b34:	00078513          	mv	a0,a5
    3b38:	0ff00593          	li	a1,255
    3b3c:	00000613          	li	a2,0
    3b40:	fdc40793          	add	a5,s0,-36
    3b44:	00a00713          	li	a4,10
    3b48:	00a00693          	li	a3,10
    3b4c:	d74fe0ef          	jal	20c0 <render_text_number>
    3b50:	0ff00593          	li	a1,255
    3b54:	00000613          	li	a2,0
    3b58:	fdc40793          	add	a5,s0,-36
    3b5c:	00a00713          	li	a4,10
    3b60:	00a00693          	li	a3,10
    3b64:	00011537          	lui	a0,0x11
    3b68:	83850513          	add	a0,a0,-1992 # 10838 <glyphs_width+0x3f0>
    3b6c:	bb0fe0ef          	jal	1f1c <render_text>
    3b70:	0ff00593          	li	a1,255
    3b74:	00000613          	li	a2,0
    3b78:	fdc40793          	add	a5,s0,-36
    3b7c:	00a00713          	li	a4,10
    3b80:	00a00693          	li	a3,10
    3b84:	fe042503          	lw	a0,-32(s0)
    3b88:	b94fe0ef          	jal	1f1c <render_text>
    3b8c:	f75fc0ef          	jal	b00 <io_vga_flush_pixels>
    3b90:	00000013          	nop
    3b94:	02c12083          	lw	ra,44(sp)
    3b98:	02812403          	lw	s0,40(sp)
    3b9c:	03010113          	add	sp,sp,48
    3ba0:	00008067          	ret

00003ba4 <checkers_get_starting_board>:
    3ba4:	f8010113          	add	sp,sp,-128
    3ba8:	06112e23          	sw	ra,124(sp)
    3bac:	06812c23          	sw	s0,120(sp)
    3bb0:	08010413          	add	s0,sp,128
    3bb4:	f8a42623          	sw	a0,-116(s0)
    3bb8:	00100793          	li	a5,1
    3bbc:	f8f42c23          	sw	a5,-104(s0)
    3bc0:	fc042623          	sw	zero,-52(s0)
    3bc4:	fff00793          	li	a5,-1
    3bc8:	fcf42423          	sw	a5,-56(s0)
    3bcc:	00000793          	li	a5,0
    3bd0:	00000813          	li	a6,0
    3bd4:	faf42023          	sw	a5,-96(s0)
    3bd8:	fb042223          	sw	a6,-92(s0)
    3bdc:	faf42423          	sw	a5,-88(s0)
    3be0:	fb042623          	sw	a6,-84(s0)
    3be4:	faf42823          	sw	a5,-80(s0)
    3be8:	fb042a23          	sw	a6,-76(s0)
    3bec:	faf42c23          	sw	a5,-72(s0)
    3bf0:	fb042e23          	sw	a6,-68(s0)
    3bf4:	fcf42023          	sw	a5,-64(s0)
    3bf8:	fd042223          	sw	a6,-60(s0)
    3bfc:	fe042623          	sw	zero,-20(s0)
    3c00:	05c0006f          	j	3c5c <checkers_get_starting_board+0xb8>
    3c04:	fe042423          	sw	zero,-24(s0)
    3c08:	03c0006f          	j	3c44 <checkers_get_starting_board+0xa0>
    3c0c:	fe842583          	lw	a1,-24(s0)
    3c10:	fec42503          	lw	a0,-20(s0)
    3c14:	1bc000ef          	jal	3dd0 <checkers_valid_tile>
    3c18:	00050793          	mv	a5,a0
    3c1c:	00078e63          	beqz	a5,3c38 <checkers_get_starting_board+0x94>
    3c20:	f9840793          	add	a5,s0,-104
    3c24:	00100693          	li	a3,1
    3c28:	fe842603          	lw	a2,-24(s0)
    3c2c:	fec42583          	lw	a1,-20(s0)
    3c30:	00078513          	mv	a0,a5
    3c34:	5e4000ef          	jal	4218 <checkers_set_tile>
    3c38:	fe842783          	lw	a5,-24(s0)
    3c3c:	00178793          	add	a5,a5,1
    3c40:	fef42423          	sw	a5,-24(s0)
    3c44:	fe842703          	lw	a4,-24(s0)
    3c48:	00200793          	li	a5,2
    3c4c:	fce7d0e3          	bge	a5,a4,3c0c <checkers_get_starting_board+0x68>
    3c50:	fec42783          	lw	a5,-20(s0)
    3c54:	00178793          	add	a5,a5,1
    3c58:	fef42623          	sw	a5,-20(s0)
    3c5c:	fec42703          	lw	a4,-20(s0)
    3c60:	00700793          	li	a5,7
    3c64:	fae7d0e3          	bge	a5,a4,3c04 <checkers_get_starting_board+0x60>
    3c68:	fe042223          	sw	zero,-28(s0)
    3c6c:	0600006f          	j	3ccc <checkers_get_starting_board+0x128>
    3c70:	00500793          	li	a5,5
    3c74:	fef42023          	sw	a5,-32(s0)
    3c78:	03c0006f          	j	3cb4 <checkers_get_starting_board+0x110>
    3c7c:	fe042583          	lw	a1,-32(s0)
    3c80:	fe442503          	lw	a0,-28(s0)
    3c84:	14c000ef          	jal	3dd0 <checkers_valid_tile>
    3c88:	00050793          	mv	a5,a0
    3c8c:	00078e63          	beqz	a5,3ca8 <checkers_get_starting_board+0x104>
    3c90:	f9840793          	add	a5,s0,-104
    3c94:	00000693          	li	a3,0
    3c98:	fe042603          	lw	a2,-32(s0)
    3c9c:	fe442583          	lw	a1,-28(s0)
    3ca0:	00078513          	mv	a0,a5
    3ca4:	574000ef          	jal	4218 <checkers_set_tile>
    3ca8:	fe042783          	lw	a5,-32(s0)
    3cac:	00178793          	add	a5,a5,1
    3cb0:	fef42023          	sw	a5,-32(s0)
    3cb4:	fe042703          	lw	a4,-32(s0)
    3cb8:	00700793          	li	a5,7
    3cbc:	fce7d0e3          	bge	a5,a4,3c7c <checkers_get_starting_board+0xd8>
    3cc0:	fe442783          	lw	a5,-28(s0)
    3cc4:	00178793          	add	a5,a5,1
    3cc8:	fef42223          	sw	a5,-28(s0)
    3ccc:	fe442703          	lw	a4,-28(s0)
    3cd0:	00700793          	li	a5,7
    3cd4:	f8e7dee3          	bge	a5,a4,3c70 <checkers_get_starting_board+0xcc>
    3cd8:	f8042e23          	sw	zero,-100(s0)
    3cdc:	fff00793          	li	a5,-1
    3ce0:	fcf42c23          	sw	a5,-40(s0)
    3ce4:	fc042a23          	sw	zero,-44(s0)
    3ce8:	f8c42783          	lw	a5,-116(s0)
    3cec:	00078693          	mv	a3,a5
    3cf0:	f9840793          	add	a5,s0,-104
    3cf4:	04800713          	li	a4,72
    3cf8:	00070613          	mv	a2,a4
    3cfc:	00078593          	mv	a1,a5
    3d00:	00068513          	mv	a0,a3
    3d04:	d0cfc0ef          	jal	210 <memcpy>
    3d08:	f8c42503          	lw	a0,-116(s0)
    3d0c:	07c12083          	lw	ra,124(sp)
    3d10:	07812403          	lw	s0,120(sp)
    3d14:	08010113          	add	sp,sp,128
    3d18:	00008067          	ret

00003d1c <checkers_player_from_piece>:
    3d1c:	fe010113          	add	sp,sp,-32
    3d20:	00812e23          	sw	s0,28(sp)
    3d24:	02010413          	add	s0,sp,32
    3d28:	fea42623          	sw	a0,-20(s0)
    3d2c:	fec42703          	lw	a4,-20(s0)
    3d30:	00300793          	li	a5,3
    3d34:	04f70c63          	beq	a4,a5,3d8c <checkers_player_from_piece+0x70>
    3d38:	fec42703          	lw	a4,-20(s0)
    3d3c:	00300793          	li	a5,3
    3d40:	04e7ea63          	bltu	a5,a4,3d94 <checkers_player_from_piece+0x78>
    3d44:	fec42703          	lw	a4,-20(s0)
    3d48:	00200793          	li	a5,2
    3d4c:	02f70c63          	beq	a4,a5,3d84 <checkers_player_from_piece+0x68>
    3d50:	fec42703          	lw	a4,-20(s0)
    3d54:	00200793          	li	a5,2
    3d58:	02e7ee63          	bltu	a5,a4,3d94 <checkers_player_from_piece+0x78>
    3d5c:	fec42783          	lw	a5,-20(s0)
    3d60:	00078a63          	beqz	a5,3d74 <checkers_player_from_piece+0x58>
    3d64:	fec42703          	lw	a4,-20(s0)
    3d68:	00100793          	li	a5,1
    3d6c:	00f70863          	beq	a4,a5,3d7c <checkers_player_from_piece+0x60>
    3d70:	0240006f          	j	3d94 <checkers_player_from_piece+0x78>
    3d74:	00000793          	li	a5,0
    3d78:	01c0006f          	j	3d94 <checkers_player_from_piece+0x78>
    3d7c:	00100793          	li	a5,1
    3d80:	0140006f          	j	3d94 <checkers_player_from_piece+0x78>
    3d84:	00000793          	li	a5,0
    3d88:	00c0006f          	j	3d94 <checkers_player_from_piece+0x78>
    3d8c:	00100793          	li	a5,1
    3d90:	0040006f          	j	3d94 <checkers_player_from_piece+0x78>
    3d94:	00078513          	mv	a0,a5
    3d98:	01c12403          	lw	s0,28(sp)
    3d9c:	02010113          	add	sp,sp,32
    3da0:	00008067          	ret

00003da4 <checkers_opposite_player>:
    3da4:	fe010113          	add	sp,sp,-32
    3da8:	00812e23          	sw	s0,28(sp)
    3dac:	02010413          	add	s0,sp,32
    3db0:	fea42623          	sw	a0,-20(s0)
    3db4:	fec42783          	lw	a5,-20(s0)
    3db8:	0017b793          	seqz	a5,a5
    3dbc:	0ff7f793          	zext.b	a5,a5
    3dc0:	00078513          	mv	a0,a5
    3dc4:	01c12403          	lw	s0,28(sp)
    3dc8:	02010113          	add	sp,sp,32
    3dcc:	00008067          	ret

00003dd0 <checkers_valid_tile>:
    3dd0:	fe010113          	add	sp,sp,-32
    3dd4:	00812e23          	sw	s0,28(sp)
    3dd8:	02010413          	add	s0,sp,32
    3ddc:	fea42623          	sw	a0,-20(s0)
    3de0:	feb42423          	sw	a1,-24(s0)
    3de4:	fec42783          	lw	a5,-20(s0)
    3de8:	0407cc63          	bltz	a5,3e40 <checkers_valid_tile+0x70>
    3dec:	fec42703          	lw	a4,-20(s0)
    3df0:	00700793          	li	a5,7
    3df4:	04e7c663          	blt	a5,a4,3e40 <checkers_valid_tile+0x70>
    3df8:	fe842783          	lw	a5,-24(s0)
    3dfc:	0407c263          	bltz	a5,3e40 <checkers_valid_tile+0x70>
    3e00:	fe842703          	lw	a4,-24(s0)
    3e04:	00700793          	li	a5,7
    3e08:	02e7cc63          	blt	a5,a4,3e40 <checkers_valid_tile+0x70>
    3e0c:	fec42703          	lw	a4,-20(s0)
    3e10:	fe842783          	lw	a5,-24(s0)
    3e14:	00f70733          	add	a4,a4,a5
    3e18:	41f75793          	sra	a5,a4,0x1f
    3e1c:	01f7d793          	srl	a5,a5,0x1f
    3e20:	00f70733          	add	a4,a4,a5
    3e24:	00177713          	and	a4,a4,1
    3e28:	40f707b3          	sub	a5,a4,a5
    3e2c:	00078713          	mv	a4,a5
    3e30:	00100793          	li	a5,1
    3e34:	00f71663          	bne	a4,a5,3e40 <checkers_valid_tile+0x70>
    3e38:	00100793          	li	a5,1
    3e3c:	0080006f          	j	3e44 <checkers_valid_tile+0x74>
    3e40:	00000793          	li	a5,0
    3e44:	0017f793          	and	a5,a5,1
    3e48:	0ff7f793          	zext.b	a5,a5
    3e4c:	00078513          	mv	a0,a5
    3e50:	01c12403          	lw	s0,28(sp)
    3e54:	02010113          	add	sp,sp,32
    3e58:	00008067          	ret

00003e5c <idx>:
    3e5c:	fe010113          	add	sp,sp,-32
    3e60:	00812e23          	sw	s0,28(sp)
    3e64:	02010413          	add	s0,sp,32
    3e68:	fea42623          	sw	a0,-20(s0)
    3e6c:	feb42423          	sw	a1,-24(s0)
    3e70:	fec42583          	lw	a1,-20(s0)
    3e74:	00058813          	mv	a6,a1
    3e78:	41f5d593          	sra	a1,a1,0x1f
    3e7c:	00058893          	mv	a7,a1
    3e80:	fe842583          	lw	a1,-24(s0)
    3e84:	00058613          	mv	a2,a1
    3e88:	41f5d593          	sra	a1,a1,0x1f
    3e8c:	00058693          	mv	a3,a1
    3e90:	01d65593          	srl	a1,a2,0x1d
    3e94:	00369793          	sll	a5,a3,0x3
    3e98:	00f5e7b3          	or	a5,a1,a5
    3e9c:	00361713          	sll	a4,a2,0x3
    3ea0:	00e80633          	add	a2,a6,a4
    3ea4:	00060593          	mv	a1,a2
    3ea8:	0105b5b3          	sltu	a1,a1,a6
    3eac:	00f886b3          	add	a3,a7,a5
    3eb0:	00d587b3          	add	a5,a1,a3
    3eb4:	00078693          	mv	a3,a5
    3eb8:	00060713          	mv	a4,a2
    3ebc:	00068793          	mv	a5,a3
    3ec0:	00070513          	mv	a0,a4
    3ec4:	00078593          	mv	a1,a5
    3ec8:	01c12403          	lw	s0,28(sp)
    3ecc:	02010113          	add	sp,sp,32
    3ed0:	00008067          	ret

00003ed4 <checkers_has_tile>:
    3ed4:	fb010113          	add	sp,sp,-80
    3ed8:	04112623          	sw	ra,76(sp)
    3edc:	04812423          	sw	s0,72(sp)
    3ee0:	05212223          	sw	s2,68(sp)
    3ee4:	05312023          	sw	s3,64(sp)
    3ee8:	03412e23          	sw	s4,60(sp)
    3eec:	03512c23          	sw	s5,56(sp)
    3ef0:	03612a23          	sw	s6,52(sp)
    3ef4:	03712823          	sw	s7,48(sp)
    3ef8:	03812623          	sw	s8,44(sp)
    3efc:	03912423          	sw	s9,40(sp)
    3f00:	05010413          	add	s0,sp,80
    3f04:	faa42e23          	sw	a0,-68(s0)
    3f08:	fab42c23          	sw	a1,-72(s0)
    3f0c:	fac42a23          	sw	a2,-76(s0)
    3f10:	fb442583          	lw	a1,-76(s0)
    3f14:	fb842503          	lw	a0,-72(s0)
    3f18:	eb9ff0ef          	jal	3dd0 <checkers_valid_tile>
    3f1c:	00050793          	mv	a5,a0
    3f20:	0017c793          	xor	a5,a5,1
    3f24:	0ff7f793          	zext.b	a5,a5
    3f28:	00078863          	beqz	a5,3f38 <checkers_has_tile+0x64>
    3f2c:	000117b7          	lui	a5,0x11
    3f30:	87478513          	add	a0,a5,-1932 # 10874 <glyphs_width+0x42c>
    3f34:	cb0fe0ef          	jal	23e4 <panic>
    3f38:	fbc42783          	lw	a5,-68(s0)
    3f3c:	0087a603          	lw	a2,8(a5)
    3f40:	00c7a683          	lw	a3,12(a5)
    3f44:	fbc42783          	lw	a5,-68(s0)
    3f48:	0187a703          	lw	a4,24(a5)
    3f4c:	01c7a783          	lw	a5,28(a5)
    3f50:	00e66c33          	or	s8,a2,a4
    3f54:	00f6ecb3          	or	s9,a3,a5
    3f58:	fbc42783          	lw	a5,-68(s0)
    3f5c:	0107a703          	lw	a4,16(a5)
    3f60:	0147a783          	lw	a5,20(a5)
    3f64:	00ec6b33          	or	s6,s8,a4
    3f68:	00fcebb3          	or	s7,s9,a5
    3f6c:	fbc42783          	lw	a5,-68(s0)
    3f70:	0207a703          	lw	a4,32(a5)
    3f74:	0247a783          	lw	a5,36(a5)
    3f78:	00eb66b3          	or	a3,s6,a4
    3f7c:	fcd42423          	sw	a3,-56(s0)
    3f80:	00fbe7b3          	or	a5,s7,a5
    3f84:	fcf42623          	sw	a5,-52(s0)
    3f88:	fb442583          	lw	a1,-76(s0)
    3f8c:	fb842503          	lw	a0,-72(s0)
    3f90:	ecdff0ef          	jal	3e5c <idx>
    3f94:	00050713          	mv	a4,a0
    3f98:	00058793          	mv	a5,a1
    3f9c:	00070793          	mv	a5,a4
    3fa0:	fe078713          	add	a4,a5,-32
    3fa4:	00074a63          	bltz	a4,3fb8 <checkers_has_tile+0xe4>
    3fa8:	fcc42783          	lw	a5,-52(s0)
    3fac:	00e7d933          	srl	s2,a5,a4
    3fb0:	00000993          	li	s3,0
    3fb4:	02c0006f          	j	3fe0 <checkers_has_tile+0x10c>
    3fb8:	fcc42703          	lw	a4,-52(s0)
    3fbc:	00171693          	sll	a3,a4,0x1
    3fc0:	01f00713          	li	a4,31
    3fc4:	40f70733          	sub	a4,a4,a5
    3fc8:	00e69733          	sll	a4,a3,a4
    3fcc:	fc842683          	lw	a3,-56(s0)
    3fd0:	00f6d933          	srl	s2,a3,a5
    3fd4:	01276933          	or	s2,a4,s2
    3fd8:	fcc42703          	lw	a4,-52(s0)
    3fdc:	00f759b3          	srl	s3,a4,a5
    3fe0:	00197a13          	and	s4,s2,1
    3fe4:	0009fa93          	and	s5,s3,0
    3fe8:	015a67b3          	or	a5,s4,s5
    3fec:	00f037b3          	snez	a5,a5
    3ff0:	0ff7f793          	zext.b	a5,a5
    3ff4:	00078513          	mv	a0,a5
    3ff8:	04c12083          	lw	ra,76(sp)
    3ffc:	04812403          	lw	s0,72(sp)
    4000:	04412903          	lw	s2,68(sp)
    4004:	04012983          	lw	s3,64(sp)
    4008:	03c12a03          	lw	s4,60(sp)
    400c:	03812a83          	lw	s5,56(sp)
    4010:	03412b03          	lw	s6,52(sp)
    4014:	03012b83          	lw	s7,48(sp)
    4018:	02c12c03          	lw	s8,44(sp)
    401c:	02812c83          	lw	s9,40(sp)
    4020:	05010113          	add	sp,sp,80
    4024:	00008067          	ret

00004028 <checkers_get_tile>:
    4028:	f9010113          	add	sp,sp,-112
    402c:	06112623          	sw	ra,108(sp)
    4030:	06812423          	sw	s0,104(sp)
    4034:	07212223          	sw	s2,100(sp)
    4038:	07312023          	sw	s3,96(sp)
    403c:	05412e23          	sw	s4,92(sp)
    4040:	05512c23          	sw	s5,88(sp)
    4044:	05612a23          	sw	s6,84(sp)
    4048:	05712823          	sw	s7,80(sp)
    404c:	05812623          	sw	s8,76(sp)
    4050:	05912423          	sw	s9,72(sp)
    4054:	07010413          	add	s0,sp,112
    4058:	f8a42e23          	sw	a0,-100(s0)
    405c:	f8b42c23          	sw	a1,-104(s0)
    4060:	f8c42a23          	sw	a2,-108(s0)
    4064:	f9442603          	lw	a2,-108(s0)
    4068:	f9842583          	lw	a1,-104(s0)
    406c:	f9c42503          	lw	a0,-100(s0)
    4070:	e65ff0ef          	jal	3ed4 <checkers_has_tile>
    4074:	00050793          	mv	a5,a0
    4078:	0017c793          	xor	a5,a5,1
    407c:	0ff7f793          	zext.b	a5,a5
    4080:	00078863          	beqz	a5,4090 <checkers_get_tile+0x68>
    4084:	000117b7          	lui	a5,0x11
    4088:	89478513          	add	a0,a5,-1900 # 10894 <glyphs_width+0x44c>
    408c:	b58fe0ef          	jal	23e4 <panic>
    4090:	f9442583          	lw	a1,-108(s0)
    4094:	f9842503          	lw	a0,-104(s0)
    4098:	dc5ff0ef          	jal	3e5c <idx>
    409c:	00050713          	mv	a4,a0
    40a0:	00058793          	mv	a5,a1
    40a4:	00070793          	mv	a5,a4
    40a8:	fe078713          	add	a4,a5,-32
    40ac:	00074c63          	bltz	a4,40c4 <checkers_get_tile+0x9c>
    40b0:	00100793          	li	a5,1
    40b4:	00e797b3          	sll	a5,a5,a4
    40b8:	fcf42623          	sw	a5,-52(s0)
    40bc:	fc042423          	sw	zero,-56(s0)
    40c0:	0340006f          	j	40f4 <checkers_get_tile+0xcc>
    40c4:	00100713          	li	a4,1
    40c8:	00175693          	srl	a3,a4,0x1
    40cc:	01f00713          	li	a4,31
    40d0:	40f70733          	sub	a4,a4,a5
    40d4:	00e6d733          	srl	a4,a3,a4
    40d8:	00000693          	li	a3,0
    40dc:	00f696b3          	sll	a3,a3,a5
    40e0:	00e6e733          	or	a4,a3,a4
    40e4:	fce42623          	sw	a4,-52(s0)
    40e8:	00100713          	li	a4,1
    40ec:	00f717b3          	sll	a5,a4,a5
    40f0:	fcf42423          	sw	a5,-56(s0)
    40f4:	f9c42783          	lw	a5,-100(s0)
    40f8:	0087a703          	lw	a4,8(a5)
    40fc:	00c7a783          	lw	a5,12(a5)
    4100:	fc842683          	lw	a3,-56(s0)
    4104:	00e6fc33          	and	s8,a3,a4
    4108:	fcc42683          	lw	a3,-52(s0)
    410c:	00f6fcb3          	and	s9,a3,a5
    4110:	fd842023          	sw	s8,-64(s0)
    4114:	fd942223          	sw	s9,-60(s0)
    4118:	f9c42783          	lw	a5,-100(s0)
    411c:	0187a703          	lw	a4,24(a5)
    4120:	01c7a783          	lw	a5,28(a5)
    4124:	fc842683          	lw	a3,-56(s0)
    4128:	00e6fb33          	and	s6,a3,a4
    412c:	fcc42683          	lw	a3,-52(s0)
    4130:	00f6fbb3          	and	s7,a3,a5
    4134:	fb642c23          	sw	s6,-72(s0)
    4138:	fb742e23          	sw	s7,-68(s0)
    413c:	f9c42783          	lw	a5,-100(s0)
    4140:	0107a703          	lw	a4,16(a5)
    4144:	0147a783          	lw	a5,20(a5)
    4148:	fc842683          	lw	a3,-56(s0)
    414c:	00e6fa33          	and	s4,a3,a4
    4150:	fcc42683          	lw	a3,-52(s0)
    4154:	00f6fab3          	and	s5,a3,a5
    4158:	fb442823          	sw	s4,-80(s0)
    415c:	fb542a23          	sw	s5,-76(s0)
    4160:	f9c42783          	lw	a5,-100(s0)
    4164:	0207a703          	lw	a4,32(a5)
    4168:	0247a783          	lw	a5,36(a5)
    416c:	fc842683          	lw	a3,-56(s0)
    4170:	00e6f933          	and	s2,a3,a4
    4174:	fcc42683          	lw	a3,-52(s0)
    4178:	00f6f9b3          	and	s3,a3,a5
    417c:	fb242423          	sw	s2,-88(s0)
    4180:	fb342623          	sw	s3,-84(s0)
    4184:	fc042783          	lw	a5,-64(s0)
    4188:	fc442703          	lw	a4,-60(s0)
    418c:	00e7e7b3          	or	a5,a5,a4
    4190:	00078663          	beqz	a5,419c <checkers_get_tile+0x174>
    4194:	00000793          	li	a5,0
    4198:	04c0006f          	j	41e4 <checkers_get_tile+0x1bc>
    419c:	fb842783          	lw	a5,-72(s0)
    41a0:	fbc42703          	lw	a4,-68(s0)
    41a4:	00e7e7b3          	or	a5,a5,a4
    41a8:	00078663          	beqz	a5,41b4 <checkers_get_tile+0x18c>
    41ac:	00100793          	li	a5,1
    41b0:	0340006f          	j	41e4 <checkers_get_tile+0x1bc>
    41b4:	fb042783          	lw	a5,-80(s0)
    41b8:	fb442703          	lw	a4,-76(s0)
    41bc:	00e7e7b3          	or	a5,a5,a4
    41c0:	00078663          	beqz	a5,41cc <checkers_get_tile+0x1a4>
    41c4:	00200793          	li	a5,2
    41c8:	01c0006f          	j	41e4 <checkers_get_tile+0x1bc>
    41cc:	fa842783          	lw	a5,-88(s0)
    41d0:	fac42703          	lw	a4,-84(s0)
    41d4:	00e7e7b3          	or	a5,a5,a4
    41d8:	00078663          	beqz	a5,41e4 <checkers_get_tile+0x1bc>
    41dc:	00300793          	li	a5,3
    41e0:	0040006f          	j	41e4 <checkers_get_tile+0x1bc>
    41e4:	00078513          	mv	a0,a5
    41e8:	06c12083          	lw	ra,108(sp)
    41ec:	06812403          	lw	s0,104(sp)
    41f0:	06412903          	lw	s2,100(sp)
    41f4:	06012983          	lw	s3,96(sp)
    41f8:	05c12a03          	lw	s4,92(sp)
    41fc:	05812a83          	lw	s5,88(sp)
    4200:	05412b03          	lw	s6,84(sp)
    4204:	05012b83          	lw	s7,80(sp)
    4208:	04c12c03          	lw	s8,76(sp)
    420c:	04812c83          	lw	s9,72(sp)
    4210:	07010113          	add	sp,sp,112
    4214:	00008067          	ret

00004218 <checkers_set_tile>:
    4218:	fd010113          	add	sp,sp,-48
    421c:	02112623          	sw	ra,44(sp)
    4220:	02812423          	sw	s0,40(sp)
    4224:	03212223          	sw	s2,36(sp)
    4228:	03312023          	sw	s3,32(sp)
    422c:	03010413          	add	s0,sp,48
    4230:	fca42e23          	sw	a0,-36(s0)
    4234:	fcb42c23          	sw	a1,-40(s0)
    4238:	fcc42a23          	sw	a2,-44(s0)
    423c:	fcd42823          	sw	a3,-48(s0)
    4240:	fd442583          	lw	a1,-44(s0)
    4244:	fd842503          	lw	a0,-40(s0)
    4248:	b89ff0ef          	jal	3dd0 <checkers_valid_tile>
    424c:	00050793          	mv	a5,a0
    4250:	0017c793          	xor	a5,a5,1
    4254:	0ff7f793          	zext.b	a5,a5
    4258:	00078863          	beqz	a5,4268 <checkers_set_tile+0x50>
    425c:	000117b7          	lui	a5,0x11
    4260:	8b478513          	add	a0,a5,-1868 # 108b4 <glyphs_width+0x46c>
    4264:	980fe0ef          	jal	23e4 <panic>
    4268:	fd442603          	lw	a2,-44(s0)
    426c:	fd842583          	lw	a1,-40(s0)
    4270:	fdc42503          	lw	a0,-36(s0)
    4274:	c61ff0ef          	jal	3ed4 <checkers_has_tile>
    4278:	00050793          	mv	a5,a0
    427c:	00078863          	beqz	a5,428c <checkers_set_tile+0x74>
    4280:	000117b7          	lui	a5,0x11
    4284:	8d478513          	add	a0,a5,-1836 # 108d4 <glyphs_width+0x48c>
    4288:	95cfe0ef          	jal	23e4 <panic>
    428c:	fd442583          	lw	a1,-44(s0)
    4290:	fd842503          	lw	a0,-40(s0)
    4294:	bc9ff0ef          	jal	3e5c <idx>
    4298:	00050713          	mv	a4,a0
    429c:	00058793          	mv	a5,a1
    42a0:	00070793          	mv	a5,a4
    42a4:	fe078713          	add	a4,a5,-32
    42a8:	00074c63          	bltz	a4,42c0 <checkers_set_tile+0xa8>
    42ac:	00100793          	li	a5,1
    42b0:	00e797b3          	sll	a5,a5,a4
    42b4:	fef42223          	sw	a5,-28(s0)
    42b8:	fe042023          	sw	zero,-32(s0)
    42bc:	0340006f          	j	42f0 <checkers_set_tile+0xd8>
    42c0:	00100713          	li	a4,1
    42c4:	00175693          	srl	a3,a4,0x1
    42c8:	01f00713          	li	a4,31
    42cc:	40f70733          	sub	a4,a4,a5
    42d0:	00e6d733          	srl	a4,a3,a4
    42d4:	00000693          	li	a3,0
    42d8:	00f696b3          	sll	a3,a3,a5
    42dc:	00e6e733          	or	a4,a3,a4
    42e0:	fee42223          	sw	a4,-28(s0)
    42e4:	00100713          	li	a4,1
    42e8:	00f717b3          	sll	a5,a4,a5
    42ec:	fef42023          	sw	a5,-32(s0)
    42f0:	fd042703          	lw	a4,-48(s0)
    42f4:	00300793          	li	a5,3
    42f8:	06f70863          	beq	a4,a5,4368 <checkers_set_tile+0x150>
    42fc:	fd042703          	lw	a4,-48(s0)
    4300:	00300793          	li	a5,3
    4304:	06e7ea63          	bltu	a5,a4,4378 <checkers_set_tile+0x160>
    4308:	fd042703          	lw	a4,-48(s0)
    430c:	00200793          	li	a5,2
    4310:	04f70463          	beq	a4,a5,4358 <checkers_set_tile+0x140>
    4314:	fd042703          	lw	a4,-48(s0)
    4318:	00200793          	li	a5,2
    431c:	04e7ee63          	bltu	a5,a4,4378 <checkers_set_tile+0x160>
    4320:	fd042783          	lw	a5,-48(s0)
    4324:	00078a63          	beqz	a5,4338 <checkers_set_tile+0x120>
    4328:	fd042703          	lw	a4,-48(s0)
    432c:	00100793          	li	a5,1
    4330:	00f70c63          	beq	a4,a5,4348 <checkers_set_tile+0x130>
    4334:	0440006f          	j	4378 <checkers_set_tile+0x160>
    4338:	fdc42783          	lw	a5,-36(s0)
    433c:	00878793          	add	a5,a5,8
    4340:	fef42623          	sw	a5,-20(s0)
    4344:	0340006f          	j	4378 <checkers_set_tile+0x160>
    4348:	fdc42783          	lw	a5,-36(s0)
    434c:	01878793          	add	a5,a5,24
    4350:	fef42623          	sw	a5,-20(s0)
    4354:	0240006f          	j	4378 <checkers_set_tile+0x160>
    4358:	fdc42783          	lw	a5,-36(s0)
    435c:	01078793          	add	a5,a5,16
    4360:	fef42623          	sw	a5,-20(s0)
    4364:	0140006f          	j	4378 <checkers_set_tile+0x160>
    4368:	fdc42783          	lw	a5,-36(s0)
    436c:	02078793          	add	a5,a5,32
    4370:	fef42623          	sw	a5,-20(s0)
    4374:	0040006f          	j	4378 <checkers_set_tile+0x160>
    4378:	fec42783          	lw	a5,-20(s0)
    437c:	0007a703          	lw	a4,0(a5)
    4380:	0047a783          	lw	a5,4(a5)
    4384:	fe042683          	lw	a3,-32(s0)
    4388:	00e6e933          	or	s2,a3,a4
    438c:	fe442683          	lw	a3,-28(s0)
    4390:	00f6e9b3          	or	s3,a3,a5
    4394:	fec42783          	lw	a5,-20(s0)
    4398:	0127a023          	sw	s2,0(a5)
    439c:	0137a223          	sw	s3,4(a5)
    43a0:	00000013          	nop
    43a4:	02c12083          	lw	ra,44(sp)
    43a8:	02812403          	lw	s0,40(sp)
    43ac:	02412903          	lw	s2,36(sp)
    43b0:	02012983          	lw	s3,32(sp)
    43b4:	03010113          	add	sp,sp,48
    43b8:	00008067          	ret

000043bc <checkers_clear_tile>:
    43bc:	f9010113          	add	sp,sp,-112
    43c0:	06112623          	sw	ra,108(sp)
    43c4:	06812423          	sw	s0,104(sp)
    43c8:	07212223          	sw	s2,100(sp)
    43cc:	07312023          	sw	s3,96(sp)
    43d0:	05412e23          	sw	s4,92(sp)
    43d4:	05512c23          	sw	s5,88(sp)
    43d8:	05612a23          	sw	s6,84(sp)
    43dc:	05712823          	sw	s7,80(sp)
    43e0:	05812623          	sw	s8,76(sp)
    43e4:	05912423          	sw	s9,72(sp)
    43e8:	05a12223          	sw	s10,68(sp)
    43ec:	05b12023          	sw	s11,64(sp)
    43f0:	07010413          	add	s0,sp,112
    43f4:	faa42e23          	sw	a0,-68(s0)
    43f8:	fab42c23          	sw	a1,-72(s0)
    43fc:	fac42a23          	sw	a2,-76(s0)
    4400:	fb442603          	lw	a2,-76(s0)
    4404:	fb842583          	lw	a1,-72(s0)
    4408:	fbc42503          	lw	a0,-68(s0)
    440c:	ac9ff0ef          	jal	3ed4 <checkers_has_tile>
    4410:	00050793          	mv	a5,a0
    4414:	0017c793          	xor	a5,a5,1
    4418:	0ff7f793          	zext.b	a5,a5
    441c:	00078863          	beqz	a5,442c <checkers_clear_tile+0x70>
    4420:	000117b7          	lui	a5,0x11
    4424:	90078513          	add	a0,a5,-1792 # 10900 <glyphs_width+0x4b8>
    4428:	fbdfd0ef          	jal	23e4 <panic>
    442c:	fb442583          	lw	a1,-76(s0)
    4430:	fb842503          	lw	a0,-72(s0)
    4434:	a29ff0ef          	jal	3e5c <idx>
    4438:	00050713          	mv	a4,a0
    443c:	00058793          	mv	a5,a1
    4440:	00070793          	mv	a5,a4
    4444:	fe078713          	add	a4,a5,-32
    4448:	00074c63          	bltz	a4,4460 <checkers_clear_tile+0xa4>
    444c:	00100793          	li	a5,1
    4450:	00e797b3          	sll	a5,a5,a4
    4454:	fcf42623          	sw	a5,-52(s0)
    4458:	fc042423          	sw	zero,-56(s0)
    445c:	0340006f          	j	4490 <checkers_clear_tile+0xd4>
    4460:	00100713          	li	a4,1
    4464:	00175693          	srl	a3,a4,0x1
    4468:	01f00713          	li	a4,31
    446c:	40f70733          	sub	a4,a4,a5
    4470:	00e6d733          	srl	a4,a3,a4
    4474:	00000693          	li	a3,0
    4478:	00f696b3          	sll	a3,a3,a5
    447c:	00e6e733          	or	a4,a3,a4
    4480:	fce42623          	sw	a4,-52(s0)
    4484:	00100713          	li	a4,1
    4488:	00f717b3          	sll	a5,a4,a5
    448c:	fcf42423          	sw	a5,-56(s0)
    4490:	fbc42783          	lw	a5,-68(s0)
    4494:	0087a703          	lw	a4,8(a5)
    4498:	00c7a783          	lw	a5,12(a5)
    449c:	fc842683          	lw	a3,-56(s0)
    44a0:	fff6cc13          	not	s8,a3
    44a4:	fcc42683          	lw	a3,-52(s0)
    44a8:	fff6cc93          	not	s9,a3
    44ac:	018776b3          	and	a3,a4,s8
    44b0:	fad42423          	sw	a3,-88(s0)
    44b4:	0197f7b3          	and	a5,a5,s9
    44b8:	faf42623          	sw	a5,-84(s0)
    44bc:	fbc42783          	lw	a5,-68(s0)
    44c0:	fa842683          	lw	a3,-88(s0)
    44c4:	fac42703          	lw	a4,-84(s0)
    44c8:	00d7a423          	sw	a3,8(a5)
    44cc:	00e7a623          	sw	a4,12(a5)
    44d0:	fbc42783          	lw	a5,-68(s0)
    44d4:	0187a703          	lw	a4,24(a5)
    44d8:	01c7a783          	lw	a5,28(a5)
    44dc:	fc842683          	lw	a3,-56(s0)
    44e0:	fff6cb13          	not	s6,a3
    44e4:	fcc42683          	lw	a3,-52(s0)
    44e8:	fff6cb93          	not	s7,a3
    44ec:	016776b3          	and	a3,a4,s6
    44f0:	fad42023          	sw	a3,-96(s0)
    44f4:	0177f7b3          	and	a5,a5,s7
    44f8:	faf42223          	sw	a5,-92(s0)
    44fc:	fbc42783          	lw	a5,-68(s0)
    4500:	fa042683          	lw	a3,-96(s0)
    4504:	fa442703          	lw	a4,-92(s0)
    4508:	00d7ac23          	sw	a3,24(a5)
    450c:	00e7ae23          	sw	a4,28(a5)
    4510:	fbc42783          	lw	a5,-68(s0)
    4514:	0107a703          	lw	a4,16(a5)
    4518:	0147a783          	lw	a5,20(a5)
    451c:	fc842683          	lw	a3,-56(s0)
    4520:	fff6ca13          	not	s4,a3
    4524:	fcc42683          	lw	a3,-52(s0)
    4528:	fff6ca93          	not	s5,a3
    452c:	014776b3          	and	a3,a4,s4
    4530:	f8d42c23          	sw	a3,-104(s0)
    4534:	0157f7b3          	and	a5,a5,s5
    4538:	f8f42e23          	sw	a5,-100(s0)
    453c:	fbc42783          	lw	a5,-68(s0)
    4540:	f9842683          	lw	a3,-104(s0)
    4544:	f9c42703          	lw	a4,-100(s0)
    4548:	00d7a823          	sw	a3,16(a5)
    454c:	00e7aa23          	sw	a4,20(a5)
    4550:	fbc42783          	lw	a5,-68(s0)
    4554:	0207a703          	lw	a4,32(a5)
    4558:	0247a783          	lw	a5,36(a5)
    455c:	fc842683          	lw	a3,-56(s0)
    4560:	fff6c913          	not	s2,a3
    4564:	fcc42683          	lw	a3,-52(s0)
    4568:	fff6c993          	not	s3,a3
    456c:	01277d33          	and	s10,a4,s2
    4570:	0137fdb3          	and	s11,a5,s3
    4574:	fbc42783          	lw	a5,-68(s0)
    4578:	03a7a023          	sw	s10,32(a5)
    457c:	03b7a223          	sw	s11,36(a5)
    4580:	00000013          	nop
    4584:	06c12083          	lw	ra,108(sp)
    4588:	06812403          	lw	s0,104(sp)
    458c:	06412903          	lw	s2,100(sp)
    4590:	06012983          	lw	s3,96(sp)
    4594:	05c12a03          	lw	s4,92(sp)
    4598:	05812a83          	lw	s5,88(sp)
    459c:	05412b03          	lw	s6,84(sp)
    45a0:	05012b83          	lw	s7,80(sp)
    45a4:	04c12c03          	lw	s8,76(sp)
    45a8:	04812c83          	lw	s9,72(sp)
    45ac:	04412d03          	lw	s10,68(sp)
    45b0:	04012d83          	lw	s11,64(sp)
    45b4:	07010113          	add	sp,sp,112
    45b8:	00008067          	ret

000045bc <checkers_can_move>:
    45bc:	fe010113          	add	sp,sp,-32
    45c0:	00112e23          	sw	ra,28(sp)
    45c4:	00812c23          	sw	s0,24(sp)
    45c8:	02010413          	add	s0,sp,32
    45cc:	fea42623          	sw	a0,-20(s0)
    45d0:	feb42423          	sw	a1,-24(s0)
    45d4:	fec42223          	sw	a2,-28(s0)
    45d8:	fed42023          	sw	a3,-32(s0)
    45dc:	fe442583          	lw	a1,-28(s0)
    45e0:	fe842503          	lw	a0,-24(s0)
    45e4:	fecff0ef          	jal	3dd0 <checkers_valid_tile>
    45e8:	00050793          	mv	a5,a0
    45ec:	04078663          	beqz	a5,4638 <checkers_can_move+0x7c>
    45f0:	fe442603          	lw	a2,-28(s0)
    45f4:	fe842583          	lw	a1,-24(s0)
    45f8:	fec42503          	lw	a0,-20(s0)
    45fc:	8d9ff0ef          	jal	3ed4 <checkers_has_tile>
    4600:	00050793          	mv	a5,a0
    4604:	02078a63          	beqz	a5,4638 <checkers_can_move+0x7c>
    4608:	fe442603          	lw	a2,-28(s0)
    460c:	fe842583          	lw	a1,-24(s0)
    4610:	fec42503          	lw	a0,-20(s0)
    4614:	a15ff0ef          	jal	4028 <checkers_get_tile>
    4618:	00050793          	mv	a5,a0
    461c:	00078513          	mv	a0,a5
    4620:	efcff0ef          	jal	3d1c <checkers_player_from_piece>
    4624:	00050713          	mv	a4,a0
    4628:	fe042783          	lw	a5,-32(s0)
    462c:	00e79663          	bne	a5,a4,4638 <checkers_can_move+0x7c>
    4630:	00100793          	li	a5,1
    4634:	0080006f          	j	463c <checkers_can_move+0x80>
    4638:	00000793          	li	a5,0
    463c:	0017f793          	and	a5,a5,1
    4640:	0ff7f793          	zext.b	a5,a5
    4644:	00078513          	mv	a0,a5
    4648:	01c12083          	lw	ra,28(sp)
    464c:	01812403          	lw	s0,24(sp)
    4650:	02010113          	add	sp,sp,32
    4654:	00008067          	ret

00004658 <can_make_move_direction>:
    4658:	fd010113          	add	sp,sp,-48
    465c:	02112623          	sw	ra,44(sp)
    4660:	02812423          	sw	s0,40(sp)
    4664:	02912223          	sw	s1,36(sp)
    4668:	03010413          	add	s0,sp,48
    466c:	fea42623          	sw	a0,-20(s0)
    4670:	feb42423          	sw	a1,-24(s0)
    4674:	fec42223          	sw	a2,-28(s0)
    4678:	fed42023          	sw	a3,-32(s0)
    467c:	fce42e23          	sw	a4,-36(s0)
    4680:	fe842703          	lw	a4,-24(s0)
    4684:	fe042783          	lw	a5,-32(s0)
    4688:	00f706b3          	add	a3,a4,a5
    468c:	fe442703          	lw	a4,-28(s0)
    4690:	fdc42783          	lw	a5,-36(s0)
    4694:	00f707b3          	add	a5,a4,a5
    4698:	00078593          	mv	a1,a5
    469c:	00068513          	mv	a0,a3
    46a0:	f30ff0ef          	jal	3dd0 <checkers_valid_tile>
    46a4:	00050793          	mv	a5,a0
    46a8:	0017c793          	xor	a5,a5,1
    46ac:	0ff7f793          	zext.b	a5,a5
    46b0:	00078663          	beqz	a5,46bc <can_make_move_direction+0x64>
    46b4:	00000793          	li	a5,0
    46b8:	1340006f          	j	47ec <can_make_move_direction+0x194>
    46bc:	fe842703          	lw	a4,-24(s0)
    46c0:	fe042783          	lw	a5,-32(s0)
    46c4:	00f706b3          	add	a3,a4,a5
    46c8:	fe442703          	lw	a4,-28(s0)
    46cc:	fdc42783          	lw	a5,-36(s0)
    46d0:	00f707b3          	add	a5,a4,a5
    46d4:	00078613          	mv	a2,a5
    46d8:	00068593          	mv	a1,a3
    46dc:	fec42503          	lw	a0,-20(s0)
    46e0:	ff4ff0ef          	jal	3ed4 <checkers_has_tile>
    46e4:	00050793          	mv	a5,a0
    46e8:	0c078863          	beqz	a5,47b8 <can_make_move_direction+0x160>
    46ec:	fe842703          	lw	a4,-24(s0)
    46f0:	fe042783          	lw	a5,-32(s0)
    46f4:	00f706b3          	add	a3,a4,a5
    46f8:	fe442703          	lw	a4,-28(s0)
    46fc:	fdc42783          	lw	a5,-36(s0)
    4700:	00f707b3          	add	a5,a4,a5
    4704:	00078613          	mv	a2,a5
    4708:	00068593          	mv	a1,a3
    470c:	fec42503          	lw	a0,-20(s0)
    4710:	919ff0ef          	jal	4028 <checkers_get_tile>
    4714:	00050793          	mv	a5,a0
    4718:	00078513          	mv	a0,a5
    471c:	e00ff0ef          	jal	3d1c <checkers_player_from_piece>
    4720:	00050493          	mv	s1,a0
    4724:	fec42783          	lw	a5,-20(s0)
    4728:	0047a783          	lw	a5,4(a5)
    472c:	00078513          	mv	a0,a5
    4730:	e74ff0ef          	jal	3da4 <checkers_opposite_player>
    4734:	00050793          	mv	a5,a0
    4738:	08f49063          	bne	s1,a5,47b8 <can_make_move_direction+0x160>
    473c:	fe042783          	lw	a5,-32(s0)
    4740:	00179713          	sll	a4,a5,0x1
    4744:	fe842783          	lw	a5,-24(s0)
    4748:	00f706b3          	add	a3,a4,a5
    474c:	fdc42783          	lw	a5,-36(s0)
    4750:	00179713          	sll	a4,a5,0x1
    4754:	fe442783          	lw	a5,-28(s0)
    4758:	00f707b3          	add	a5,a4,a5
    475c:	00078593          	mv	a1,a5
    4760:	00068513          	mv	a0,a3
    4764:	e6cff0ef          	jal	3dd0 <checkers_valid_tile>
    4768:	00050793          	mv	a5,a0
    476c:	04078663          	beqz	a5,47b8 <can_make_move_direction+0x160>
    4770:	fe042783          	lw	a5,-32(s0)
    4774:	00179713          	sll	a4,a5,0x1
    4778:	fe842783          	lw	a5,-24(s0)
    477c:	00f706b3          	add	a3,a4,a5
    4780:	fdc42783          	lw	a5,-36(s0)
    4784:	00179713          	sll	a4,a5,0x1
    4788:	fe442783          	lw	a5,-28(s0)
    478c:	00f707b3          	add	a5,a4,a5
    4790:	00078613          	mv	a2,a5
    4794:	00068593          	mv	a1,a3
    4798:	fec42503          	lw	a0,-20(s0)
    479c:	f38ff0ef          	jal	3ed4 <checkers_has_tile>
    47a0:	00050793          	mv	a5,a0
    47a4:	0017c793          	xor	a5,a5,1
    47a8:	0ff7f793          	zext.b	a5,a5
    47ac:	00078663          	beqz	a5,47b8 <can_make_move_direction+0x160>
    47b0:	00200793          	li	a5,2
    47b4:	0380006f          	j	47ec <can_make_move_direction+0x194>
    47b8:	fe842703          	lw	a4,-24(s0)
    47bc:	fe042783          	lw	a5,-32(s0)
    47c0:	00f706b3          	add	a3,a4,a5
    47c4:	fe442703          	lw	a4,-28(s0)
    47c8:	fdc42783          	lw	a5,-36(s0)
    47cc:	00f707b3          	add	a5,a4,a5
    47d0:	00078613          	mv	a2,a5
    47d4:	00068593          	mv	a1,a3
    47d8:	fec42503          	lw	a0,-20(s0)
    47dc:	ef8ff0ef          	jal	3ed4 <checkers_has_tile>
    47e0:	00050793          	mv	a5,a0
    47e4:	0017c793          	xor	a5,a5,1
    47e8:	0ff7f793          	zext.b	a5,a5
    47ec:	00078513          	mv	a0,a5
    47f0:	02c12083          	lw	ra,44(sp)
    47f4:	02812403          	lw	s0,40(sp)
    47f8:	02412483          	lw	s1,36(sp)
    47fc:	03010113          	add	sp,sp,48
    4800:	00008067          	ret

00004804 <available_moves_for_tile>:
    4804:	f4010113          	add	sp,sp,-192
    4808:	0a112e23          	sw	ra,188(sp)
    480c:	0a812c23          	sw	s0,184(sp)
    4810:	0b212a23          	sw	s2,180(sp)
    4814:	0b312823          	sw	s3,176(sp)
    4818:	0b412623          	sw	s4,172(sp)
    481c:	0b512423          	sw	s5,168(sp)
    4820:	0b612223          	sw	s6,164(sp)
    4824:	0b712023          	sw	s7,160(sp)
    4828:	09812e23          	sw	s8,156(sp)
    482c:	09912c23          	sw	s9,152(sp)
    4830:	09a12a23          	sw	s10,148(sp)
    4834:	09b12823          	sw	s11,144(sp)
    4838:	0c010413          	add	s0,sp,192
    483c:	f4a42e23          	sw	a0,-164(s0)
    4840:	f4b42c23          	sw	a1,-168(s0)
    4844:	f4c42a23          	sw	a2,-172(s0)
    4848:	00068793          	mv	a5,a3
    484c:	f4f409a3          	sb	a5,-173(s0)
    4850:	00000793          	li	a5,0
    4854:	00000813          	li	a6,0
    4858:	fcf42423          	sw	a5,-56(s0)
    485c:	fd042623          	sw	a6,-52(s0)
    4860:	f5442583          	lw	a1,-172(s0)
    4864:	f5842503          	lw	a0,-168(s0)
    4868:	df4ff0ef          	jal	3e5c <idx>
    486c:	faa42c23          	sw	a0,-72(s0)
    4870:	fab42e23          	sw	a1,-68(s0)
    4874:	f5c42783          	lw	a5,-164(s0)
    4878:	03c7a703          	lw	a4,60(a5)
    487c:	00100793          	li	a5,1
    4880:	0cf71263          	bne	a4,a5,4944 <available_moves_for_tile+0x140>
    4884:	f5c42783          	lw	a5,-164(s0)
    4888:	0387a783          	lw	a5,56(a5)
    488c:	f4f42423          	sw	a5,-184(s0)
    4890:	41f7d793          	sra	a5,a5,0x1f
    4894:	f4f42623          	sw	a5,-180(s0)
    4898:	fb842783          	lw	a5,-72(s0)
    489c:	f4842603          	lw	a2,-184(s0)
    48a0:	f4c42683          	lw	a3,-180(s0)
    48a4:	00060713          	mv	a4,a2
    48a8:	00e79863          	bne	a5,a4,48b8 <available_moves_for_tile+0xb4>
    48ac:	fbc42783          	lw	a5,-68(s0)
    48b0:	00068713          	mv	a4,a3
    48b4:	00e78863          	beq	a5,a4,48c4 <available_moves_for_tile+0xc0>
    48b8:	00000713          	li	a4,0
    48bc:	00000793          	li	a5,0
    48c0:	3dc0006f          	j	4c9c <available_moves_for_tile+0x498>
    48c4:	f5c42783          	lw	a5,-164(s0)
    48c8:	0007a703          	lw	a4,0(a5)
    48cc:	00100793          	li	a5,1
    48d0:	06f70a63          	beq	a4,a5,4944 <available_moves_for_tile+0x140>
    48d4:	f5c42783          	lw	a5,-164(s0)
    48d8:	0387a783          	lw	a5,56(a5)
    48dc:	fe078713          	add	a4,a5,-32
    48e0:	00074a63          	bltz	a4,48f4 <available_moves_for_tile+0xf0>
    48e4:	00100793          	li	a5,1
    48e8:	00e79bb3          	sll	s7,a5,a4
    48ec:	00000b13          	li	s6,0
    48f0:	02c0006f          	j	491c <available_moves_for_tile+0x118>
    48f4:	00100713          	li	a4,1
    48f8:	00175693          	srl	a3,a4,0x1
    48fc:	01f00713          	li	a4,31
    4900:	40f70733          	sub	a4,a4,a5
    4904:	00e6d733          	srl	a4,a3,a4
    4908:	00000693          	li	a3,0
    490c:	00f69bb3          	sll	s7,a3,a5
    4910:	01776bb3          	or	s7,a4,s7
    4914:	00100713          	li	a4,1
    4918:	00f71b33          	sll	s6,a4,a5
    491c:	fc842783          	lw	a5,-56(s0)
    4920:	0167e7b3          	or	a5,a5,s6
    4924:	f4f42023          	sw	a5,-192(s0)
    4928:	fcc42783          	lw	a5,-52(s0)
    492c:	0177e7b3          	or	a5,a5,s7
    4930:	f4f42223          	sw	a5,-188(s0)
    4934:	f4042783          	lw	a5,-192(s0)
    4938:	f4442803          	lw	a6,-188(s0)
    493c:	fcf42423          	sw	a5,-56(s0)
    4940:	fd042623          	sw	a6,-52(s0)
    4944:	f5c42783          	lw	a5,-164(s0)
    4948:	0047a783          	lw	a5,4(a5)
    494c:	00078693          	mv	a3,a5
    4950:	f5442603          	lw	a2,-172(s0)
    4954:	f5842583          	lw	a1,-168(s0)
    4958:	f5c42503          	lw	a0,-164(s0)
    495c:	c61ff0ef          	jal	45bc <checkers_can_move>
    4960:	00050793          	mv	a5,a0
    4964:	0017c793          	xor	a5,a5,1
    4968:	0ff7f793          	zext.b	a5,a5
    496c:	00078863          	beqz	a5,497c <available_moves_for_tile+0x178>
    4970:	00000713          	li	a4,0
    4974:	00000793          	li	a5,0
    4978:	3240006f          	j	4c9c <available_moves_for_tile+0x498>
    497c:	f5442603          	lw	a2,-172(s0)
    4980:	f5842583          	lw	a1,-168(s0)
    4984:	f5c42503          	lw	a0,-164(s0)
    4988:	ea0ff0ef          	jal	4028 <checkers_get_tile>
    498c:	faa42a23          	sw	a0,-76(s0)
    4990:	fc042223          	sw	zero,-60(s0)
    4994:	f5c42783          	lw	a5,-164(s0)
    4998:	0047a783          	lw	a5,4(a5)
    499c:	00079663          	bnez	a5,49a8 <available_moves_for_tile+0x1a4>
    49a0:	fff00793          	li	a5,-1
    49a4:	0080006f          	j	49ac <available_moves_for_tile+0x1a8>
    49a8:	00100793          	li	a5,1
    49ac:	faf42823          	sw	a5,-80(s0)
    49b0:	fc442783          	lw	a5,-60(s0)
    49b4:	00178713          	add	a4,a5,1
    49b8:	fce42223          	sw	a4,-60(s0)
    49bc:	00379713          	sll	a4,a5,0x3
    49c0:	fd070713          	add	a4,a4,-48
    49c4:	00870733          	add	a4,a4,s0
    49c8:	00100693          	li	a3,1
    49cc:	fad72a23          	sw	a3,-76(a4)
    49d0:	00379793          	sll	a5,a5,0x3
    49d4:	fd078793          	add	a5,a5,-48
    49d8:	008787b3          	add	a5,a5,s0
    49dc:	fb042703          	lw	a4,-80(s0)
    49e0:	fae7ac23          	sw	a4,-72(a5)
    49e4:	fc442783          	lw	a5,-60(s0)
    49e8:	00178713          	add	a4,a5,1
    49ec:	fce42223          	sw	a4,-60(s0)
    49f0:	00379713          	sll	a4,a5,0x3
    49f4:	fd070713          	add	a4,a4,-48
    49f8:	00870733          	add	a4,a4,s0
    49fc:	fff00693          	li	a3,-1
    4a00:	fad72a23          	sw	a3,-76(a4)
    4a04:	00379793          	sll	a5,a5,0x3
    4a08:	fd078793          	add	a5,a5,-48
    4a0c:	008787b3          	add	a5,a5,s0
    4a10:	fb042703          	lw	a4,-80(s0)
    4a14:	fae7ac23          	sw	a4,-72(a5)
    4a18:	fb442703          	lw	a4,-76(s0)
    4a1c:	00200793          	li	a5,2
    4a20:	00f70863          	beq	a4,a5,4a30 <available_moves_for_tile+0x22c>
    4a24:	fb442703          	lw	a4,-76(s0)
    4a28:	00300793          	li	a5,3
    4a2c:	06f71a63          	bne	a4,a5,4aa0 <available_moves_for_tile+0x29c>
    4a30:	fc442783          	lw	a5,-60(s0)
    4a34:	00178713          	add	a4,a5,1
    4a38:	fce42223          	sw	a4,-60(s0)
    4a3c:	fb042703          	lw	a4,-80(s0)
    4a40:	40e006b3          	neg	a3,a4
    4a44:	00379713          	sll	a4,a5,0x3
    4a48:	fd070713          	add	a4,a4,-48
    4a4c:	00870733          	add	a4,a4,s0
    4a50:	00100613          	li	a2,1
    4a54:	fac72a23          	sw	a2,-76(a4)
    4a58:	00379793          	sll	a5,a5,0x3
    4a5c:	fd078793          	add	a5,a5,-48
    4a60:	008787b3          	add	a5,a5,s0
    4a64:	fad7ac23          	sw	a3,-72(a5)
    4a68:	fc442783          	lw	a5,-60(s0)
    4a6c:	00178713          	add	a4,a5,1
    4a70:	fce42223          	sw	a4,-60(s0)
    4a74:	fb042703          	lw	a4,-80(s0)
    4a78:	40e006b3          	neg	a3,a4
    4a7c:	00379713          	sll	a4,a5,0x3
    4a80:	fd070713          	add	a4,a4,-48
    4a84:	00870733          	add	a4,a4,s0
    4a88:	fff00613          	li	a2,-1
    4a8c:	fac72a23          	sw	a2,-76(a4)
    4a90:	00379793          	sll	a5,a5,0x3
    4a94:	fd078793          	add	a5,a5,-48
    4a98:	008787b3          	add	a5,a5,s0
    4a9c:	fad7ac23          	sw	a3,-72(a5)
    4aa0:	fc042023          	sw	zero,-64(s0)
    4aa4:	1e40006f          	j	4c88 <available_moves_for_tile+0x484>
    4aa8:	fc042783          	lw	a5,-64(s0)
    4aac:	00379793          	sll	a5,a5,0x3
    4ab0:	fd078793          	add	a5,a5,-48
    4ab4:	008787b3          	add	a5,a5,s0
    4ab8:	fb47a783          	lw	a5,-76(a5)
    4abc:	faf42623          	sw	a5,-84(s0)
    4ac0:	fc042783          	lw	a5,-64(s0)
    4ac4:	00379793          	sll	a5,a5,0x3
    4ac8:	fd078793          	add	a5,a5,-48
    4acc:	008787b3          	add	a5,a5,s0
    4ad0:	fb87a783          	lw	a5,-72(a5)
    4ad4:	faf42423          	sw	a5,-88(s0)
    4ad8:	fa842703          	lw	a4,-88(s0)
    4adc:	fac42683          	lw	a3,-84(s0)
    4ae0:	f5442603          	lw	a2,-172(s0)
    4ae4:	f5842583          	lw	a1,-168(s0)
    4ae8:	f5c42503          	lw	a0,-164(s0)
    4aec:	b6dff0ef          	jal	4658 <can_make_move_direction>
    4af0:	faa42223          	sw	a0,-92(s0)
    4af4:	fa442703          	lw	a4,-92(s0)
    4af8:	00200793          	li	a5,2
    4afc:	0cf70863          	beq	a4,a5,4bcc <available_moves_for_tile+0x3c8>
    4b00:	fa442703          	lw	a4,-92(s0)
    4b04:	00200793          	li	a5,2
    4b08:	14e7cc63          	blt	a5,a4,4c60 <available_moves_for_tile+0x45c>
    4b0c:	fa442783          	lw	a5,-92(s0)
    4b10:	16078063          	beqz	a5,4c70 <available_moves_for_tile+0x46c>
    4b14:	fa442703          	lw	a4,-92(s0)
    4b18:	00100793          	li	a5,1
    4b1c:	14f71263          	bne	a4,a5,4c60 <available_moves_for_tile+0x45c>
    4b20:	f5c42783          	lw	a5,-164(s0)
    4b24:	03c7a703          	lw	a4,60(a5)
    4b28:	00100793          	li	a5,1
    4b2c:	14f70663          	beq	a4,a5,4c78 <available_moves_for_tile+0x474>
    4b30:	f5344783          	lbu	a5,-173(s0)
    4b34:	0017c793          	xor	a5,a5,1
    4b38:	0ff7f793          	zext.b	a5,a5
    4b3c:	12078e63          	beqz	a5,4c78 <available_moves_for_tile+0x474>
    4b40:	f5842703          	lw	a4,-168(s0)
    4b44:	fac42783          	lw	a5,-84(s0)
    4b48:	00f706b3          	add	a3,a4,a5
    4b4c:	f5442703          	lw	a4,-172(s0)
    4b50:	fa842783          	lw	a5,-88(s0)
    4b54:	00f707b3          	add	a5,a4,a5
    4b58:	00078593          	mv	a1,a5
    4b5c:	00068513          	mv	a0,a3
    4b60:	afcff0ef          	jal	3e5c <idx>
    4b64:	00050713          	mv	a4,a0
    4b68:	00058793          	mv	a5,a1
    4b6c:	00070793          	mv	a5,a4
    4b70:	fe078713          	add	a4,a5,-32
    4b74:	00074a63          	bltz	a4,4b88 <available_moves_for_tile+0x384>
    4b78:	00100793          	li	a5,1
    4b7c:	00e79ab3          	sll	s5,a5,a4
    4b80:	00000a13          	li	s4,0
    4b84:	02c0006f          	j	4bb0 <available_moves_for_tile+0x3ac>
    4b88:	00100713          	li	a4,1
    4b8c:	00175693          	srl	a3,a4,0x1
    4b90:	01f00713          	li	a4,31
    4b94:	40f70733          	sub	a4,a4,a5
    4b98:	00e6d733          	srl	a4,a3,a4
    4b9c:	00000693          	li	a3,0
    4ba0:	00f69ab3          	sll	s5,a3,a5
    4ba4:	01576ab3          	or	s5,a4,s5
    4ba8:	00100713          	li	a4,1
    4bac:	00f71a33          	sll	s4,a4,a5
    4bb0:	fc842783          	lw	a5,-56(s0)
    4bb4:	0147ec33          	or	s8,a5,s4
    4bb8:	fcc42783          	lw	a5,-52(s0)
    4bbc:	0157ecb3          	or	s9,a5,s5
    4bc0:	fd842423          	sw	s8,-56(s0)
    4bc4:	fd942623          	sw	s9,-52(s0)
    4bc8:	0b00006f          	j	4c78 <available_moves_for_tile+0x474>
    4bcc:	fac42783          	lw	a5,-84(s0)
    4bd0:	00179713          	sll	a4,a5,0x1
    4bd4:	f5842783          	lw	a5,-168(s0)
    4bd8:	00f706b3          	add	a3,a4,a5
    4bdc:	fa842783          	lw	a5,-88(s0)
    4be0:	00179713          	sll	a4,a5,0x1
    4be4:	f5442783          	lw	a5,-172(s0)
    4be8:	00f707b3          	add	a5,a4,a5
    4bec:	00078593          	mv	a1,a5
    4bf0:	00068513          	mv	a0,a3
    4bf4:	a68ff0ef          	jal	3e5c <idx>
    4bf8:	00050713          	mv	a4,a0
    4bfc:	00058793          	mv	a5,a1
    4c00:	00070793          	mv	a5,a4
    4c04:	fe078713          	add	a4,a5,-32
    4c08:	00074a63          	bltz	a4,4c1c <available_moves_for_tile+0x418>
    4c0c:	00100793          	li	a5,1
    4c10:	00e799b3          	sll	s3,a5,a4
    4c14:	00000913          	li	s2,0
    4c18:	02c0006f          	j	4c44 <available_moves_for_tile+0x440>
    4c1c:	00100713          	li	a4,1
    4c20:	00175693          	srl	a3,a4,0x1
    4c24:	01f00713          	li	a4,31
    4c28:	40f70733          	sub	a4,a4,a5
    4c2c:	00e6d733          	srl	a4,a3,a4
    4c30:	00000693          	li	a3,0
    4c34:	00f699b3          	sll	s3,a3,a5
    4c38:	013769b3          	or	s3,a4,s3
    4c3c:	00100713          	li	a4,1
    4c40:	00f71933          	sll	s2,a4,a5
    4c44:	fc842783          	lw	a5,-56(s0)
    4c48:	0127ed33          	or	s10,a5,s2
    4c4c:	fcc42783          	lw	a5,-52(s0)
    4c50:	0137edb3          	or	s11,a5,s3
    4c54:	fda42423          	sw	s10,-56(s0)
    4c58:	fdb42623          	sw	s11,-52(s0)
    4c5c:	0200006f          	j	4c7c <available_moves_for_tile+0x478>
    4c60:	000117b7          	lui	a5,0x11
    4c64:	92478513          	add	a0,a5,-1756 # 10924 <glyphs_width+0x4dc>
    4c68:	f7cfd0ef          	jal	23e4 <panic>
    4c6c:	0100006f          	j	4c7c <available_moves_for_tile+0x478>
    4c70:	00000013          	nop
    4c74:	0080006f          	j	4c7c <available_moves_for_tile+0x478>
    4c78:	00000013          	nop
    4c7c:	fc042783          	lw	a5,-64(s0)
    4c80:	00178793          	add	a5,a5,1
    4c84:	fcf42023          	sw	a5,-64(s0)
    4c88:	fc042783          	lw	a5,-64(s0)
    4c8c:	fc442703          	lw	a4,-60(s0)
    4c90:	e0e7ece3          	bltu	a5,a4,4aa8 <available_moves_for_tile+0x2a4>
    4c94:	fc842703          	lw	a4,-56(s0)
    4c98:	fcc42783          	lw	a5,-52(s0)
    4c9c:	00070513          	mv	a0,a4
    4ca0:	00078593          	mv	a1,a5
    4ca4:	0bc12083          	lw	ra,188(sp)
    4ca8:	0b812403          	lw	s0,184(sp)
    4cac:	0b412903          	lw	s2,180(sp)
    4cb0:	0b012983          	lw	s3,176(sp)
    4cb4:	0ac12a03          	lw	s4,172(sp)
    4cb8:	0a812a83          	lw	s5,168(sp)
    4cbc:	0a412b03          	lw	s6,164(sp)
    4cc0:	0a012b83          	lw	s7,160(sp)
    4cc4:	09c12c03          	lw	s8,156(sp)
    4cc8:	09812c83          	lw	s9,152(sp)
    4ccc:	09412d03          	lw	s10,148(sp)
    4cd0:	09012d83          	lw	s11,144(sp)
    4cd4:	0c010113          	add	sp,sp,192
    4cd8:	00008067          	ret

00004cdc <does_capture_move_exist>:
    4cdc:	fd010113          	add	sp,sp,-48
    4ce0:	02112623          	sw	ra,44(sp)
    4ce4:	02812423          	sw	s0,40(sp)
    4ce8:	03212223          	sw	s2,36(sp)
    4cec:	03312023          	sw	s3,32(sp)
    4cf0:	03010413          	add	s0,sp,48
    4cf4:	fca42e23          	sw	a0,-36(s0)
    4cf8:	00000793          	li	a5,0
    4cfc:	00000813          	li	a6,0
    4d00:	fef42423          	sw	a5,-24(s0)
    4d04:	ff042623          	sw	a6,-20(s0)
    4d08:	fe042223          	sw	zero,-28(s0)
    4d0c:	0880006f          	j	4d94 <does_capture_move_exist+0xb8>
    4d10:	fe042023          	sw	zero,-32(s0)
    4d14:	0680006f          	j	4d7c <does_capture_move_exist+0xa0>
    4d18:	fdc42783          	lw	a5,-36(s0)
    4d1c:	0047a783          	lw	a5,4(a5)
    4d20:	00078693          	mv	a3,a5
    4d24:	fe042603          	lw	a2,-32(s0)
    4d28:	fe442583          	lw	a1,-28(s0)
    4d2c:	fdc42503          	lw	a0,-36(s0)
    4d30:	88dff0ef          	jal	45bc <checkers_can_move>
    4d34:	00050793          	mv	a5,a0
    4d38:	02078c63          	beqz	a5,4d70 <does_capture_move_exist+0x94>
    4d3c:	00100693          	li	a3,1
    4d40:	fe042603          	lw	a2,-32(s0)
    4d44:	fe442583          	lw	a1,-28(s0)
    4d48:	fdc42503          	lw	a0,-36(s0)
    4d4c:	ab9ff0ef          	jal	4804 <available_moves_for_tile>
    4d50:	00050713          	mv	a4,a0
    4d54:	00058793          	mv	a5,a1
    4d58:	fe842683          	lw	a3,-24(s0)
    4d5c:	00e6e933          	or	s2,a3,a4
    4d60:	fec42683          	lw	a3,-20(s0)
    4d64:	00f6e9b3          	or	s3,a3,a5
    4d68:	ff242423          	sw	s2,-24(s0)
    4d6c:	ff342623          	sw	s3,-20(s0)
    4d70:	fe042783          	lw	a5,-32(s0)
    4d74:	00178793          	add	a5,a5,1
    4d78:	fef42023          	sw	a5,-32(s0)
    4d7c:	fe042703          	lw	a4,-32(s0)
    4d80:	00700793          	li	a5,7
    4d84:	f8e7dae3          	bge	a5,a4,4d18 <does_capture_move_exist+0x3c>
    4d88:	fe442783          	lw	a5,-28(s0)
    4d8c:	00178793          	add	a5,a5,1
    4d90:	fef42223          	sw	a5,-28(s0)
    4d94:	fe442703          	lw	a4,-28(s0)
    4d98:	00700793          	li	a5,7
    4d9c:	f6e7dae3          	bge	a5,a4,4d10 <does_capture_move_exist+0x34>
    4da0:	fe842703          	lw	a4,-24(s0)
    4da4:	fec42783          	lw	a5,-20(s0)
    4da8:	00f767b3          	or	a5,a4,a5
    4dac:	00f037b3          	snez	a5,a5
    4db0:	0ff7f793          	zext.b	a5,a5
    4db4:	00078513          	mv	a0,a5
    4db8:	02c12083          	lw	ra,44(sp)
    4dbc:	02812403          	lw	s0,40(sp)
    4dc0:	02412903          	lw	s2,36(sp)
    4dc4:	02012983          	lw	s3,32(sp)
    4dc8:	03010113          	add	sp,sp,48
    4dcc:	00008067          	ret

00004dd0 <checkers_get_available_moves>:
    4dd0:	fd010113          	add	sp,sp,-48
    4dd4:	02112623          	sw	ra,44(sp)
    4dd8:	02812423          	sw	s0,40(sp)
    4ddc:	03010413          	add	s0,sp,48
    4de0:	fca42e23          	sw	a0,-36(s0)
    4de4:	fdc42783          	lw	a5,-36(s0)
    4de8:	0307a703          	lw	a4,48(a5)
    4dec:	41f75793          	sra	a5,a4,0x1f
    4df0:	01d7d793          	srl	a5,a5,0x1d
    4df4:	00f70733          	add	a4,a4,a5
    4df8:	00777713          	and	a4,a4,7
    4dfc:	40f707b3          	sub	a5,a4,a5
    4e00:	fef42623          	sw	a5,-20(s0)
    4e04:	fdc42783          	lw	a5,-36(s0)
    4e08:	0307a783          	lw	a5,48(a5)
    4e0c:	41f7d713          	sra	a4,a5,0x1f
    4e10:	00777713          	and	a4,a4,7
    4e14:	00f707b3          	add	a5,a4,a5
    4e18:	4037d793          	sra	a5,a5,0x3
    4e1c:	fef42423          	sw	a5,-24(s0)
    4e20:	fdc42783          	lw	a5,-36(s0)
    4e24:	0007a703          	lw	a4,0(a5)
    4e28:	00100793          	li	a5,1
    4e2c:	06f71663          	bne	a4,a5,4e98 <checkers_get_available_moves+0xc8>
    4e30:	fdc42503          	lw	a0,-36(s0)
    4e34:	ea9ff0ef          	jal	4cdc <does_capture_move_exist>
    4e38:	00050793          	mv	a5,a0
    4e3c:	02078863          	beqz	a5,4e6c <checkers_get_available_moves+0x9c>
    4e40:	00100693          	li	a3,1
    4e44:	fe842603          	lw	a2,-24(s0)
    4e48:	fec42583          	lw	a1,-20(s0)
    4e4c:	fdc42503          	lw	a0,-36(s0)
    4e50:	9b5ff0ef          	jal	4804 <available_moves_for_tile>
    4e54:	00050713          	mv	a4,a0
    4e58:	00058793          	mv	a5,a1
    4e5c:	fdc42683          	lw	a3,-36(s0)
    4e60:	02e6a423          	sw	a4,40(a3)
    4e64:	02f6a623          	sw	a5,44(a3)
    4e68:	0580006f          	j	4ec0 <checkers_get_available_moves+0xf0>
    4e6c:	00000693          	li	a3,0
    4e70:	fe842603          	lw	a2,-24(s0)
    4e74:	fec42583          	lw	a1,-20(s0)
    4e78:	fdc42503          	lw	a0,-36(s0)
    4e7c:	989ff0ef          	jal	4804 <available_moves_for_tile>
    4e80:	00050713          	mv	a4,a0
    4e84:	00058793          	mv	a5,a1
    4e88:	fdc42683          	lw	a3,-36(s0)
    4e8c:	02e6a423          	sw	a4,40(a3)
    4e90:	02f6a623          	sw	a5,44(a3)
    4e94:	02c0006f          	j	4ec0 <checkers_get_available_moves+0xf0>
    4e98:	00000693          	li	a3,0
    4e9c:	fe842603          	lw	a2,-24(s0)
    4ea0:	fec42583          	lw	a1,-20(s0)
    4ea4:	fdc42503          	lw	a0,-36(s0)
    4ea8:	95dff0ef          	jal	4804 <available_moves_for_tile>
    4eac:	00050713          	mv	a4,a0
    4eb0:	00058793          	mv	a5,a1
    4eb4:	fdc42683          	lw	a3,-36(s0)
    4eb8:	02e6a423          	sw	a4,40(a3)
    4ebc:	02f6a623          	sw	a5,44(a3)
    4ec0:	00000013          	nop
    4ec4:	02c12083          	lw	ra,44(sp)
    4ec8:	02812403          	lw	s0,40(sp)
    4ecc:	03010113          	add	sp,sp,48
    4ed0:	00008067          	ret

00004ed4 <checkers_can_make_move>:
    4ed4:	fc010113          	add	sp,sp,-64
    4ed8:	02112e23          	sw	ra,60(sp)
    4edc:	02812c23          	sw	s0,56(sp)
    4ee0:	03212a23          	sw	s2,52(sp)
    4ee4:	03312823          	sw	s3,48(sp)
    4ee8:	03412623          	sw	s4,44(sp)
    4eec:	03512423          	sw	s5,40(sp)
    4ef0:	03612223          	sw	s6,36(sp)
    4ef4:	03712023          	sw	s7,32(sp)
    4ef8:	04010413          	add	s0,sp,64
    4efc:	fca42623          	sw	a0,-52(s0)
    4f00:	fcc42783          	lw	a5,-52(s0)
    4f04:	0347a703          	lw	a4,52(a5)
    4f08:	41f75793          	sra	a5,a4,0x1f
    4f0c:	01d7d793          	srl	a5,a5,0x1d
    4f10:	00f70733          	add	a4,a4,a5
    4f14:	00777713          	and	a4,a4,7
    4f18:	40f707b3          	sub	a5,a4,a5
    4f1c:	fcf42e23          	sw	a5,-36(s0)
    4f20:	fcc42783          	lw	a5,-52(s0)
    4f24:	0347a783          	lw	a5,52(a5)
    4f28:	41f7d713          	sra	a4,a5,0x1f
    4f2c:	00777713          	and	a4,a4,7
    4f30:	00f707b3          	add	a5,a4,a5
    4f34:	4037d793          	sra	a5,a5,0x3
    4f38:	fcf42c23          	sw	a5,-40(s0)
    4f3c:	fcc42783          	lw	a5,-52(s0)
    4f40:	0287aa03          	lw	s4,40(a5)
    4f44:	02c7aa83          	lw	s5,44(a5)
    4f48:	fd842583          	lw	a1,-40(s0)
    4f4c:	fdc42503          	lw	a0,-36(s0)
    4f50:	f0dfe0ef          	jal	3e5c <idx>
    4f54:	00050713          	mv	a4,a0
    4f58:	00058793          	mv	a5,a1
    4f5c:	00070793          	mv	a5,a4
    4f60:	fe078713          	add	a4,a5,-32
    4f64:	00074863          	bltz	a4,4f74 <checkers_can_make_move+0xa0>
    4f68:	00ead933          	srl	s2,s5,a4
    4f6c:	00000993          	li	s3,0
    4f70:	0200006f          	j	4f90 <checkers_can_make_move+0xbc>
    4f74:	001a9693          	sll	a3,s5,0x1
    4f78:	01f00713          	li	a4,31
    4f7c:	40f70733          	sub	a4,a4,a5
    4f80:	00e69733          	sll	a4,a3,a4
    4f84:	00fa5933          	srl	s2,s4,a5
    4f88:	01276933          	or	s2,a4,s2
    4f8c:	00fad9b3          	srl	s3,s5,a5
    4f90:	00197b13          	and	s6,s2,1
    4f94:	0009fb93          	and	s7,s3,0
    4f98:	017b67b3          	or	a5,s6,s7
    4f9c:	00f037b3          	snez	a5,a5
    4fa0:	0ff7f793          	zext.b	a5,a5
    4fa4:	00078513          	mv	a0,a5
    4fa8:	03c12083          	lw	ra,60(sp)
    4fac:	03812403          	lw	s0,56(sp)
    4fb0:	03412903          	lw	s2,52(sp)
    4fb4:	03012983          	lw	s3,48(sp)
    4fb8:	02c12a03          	lw	s4,44(sp)
    4fbc:	02812a83          	lw	s5,40(sp)
    4fc0:	02412b03          	lw	s6,36(sp)
    4fc4:	02012b83          	lw	s7,32(sp)
    4fc8:	04010113          	add	sp,sp,64
    4fcc:	00008067          	ret

00004fd0 <generate_game_state>:
    4fd0:	fd010113          	add	sp,sp,-48
    4fd4:	02812623          	sw	s0,44(sp)
    4fd8:	03010413          	add	s0,sp,48
    4fdc:	fca42e23          	sw	a0,-36(s0)
    4fe0:	fdc42783          	lw	a5,-36(s0)
    4fe4:	0087a603          	lw	a2,8(a5)
    4fe8:	00c7a683          	lw	a3,12(a5)
    4fec:	fdc42783          	lw	a5,-36(s0)
    4ff0:	0107a703          	lw	a4,16(a5)
    4ff4:	0147a783          	lw	a5,20(a5)
    4ff8:	00e665b3          	or	a1,a2,a4
    4ffc:	feb42423          	sw	a1,-24(s0)
    5000:	00f6e7b3          	or	a5,a3,a5
    5004:	fef42623          	sw	a5,-20(s0)
    5008:	fdc42783          	lw	a5,-36(s0)
    500c:	0187a603          	lw	a2,24(a5)
    5010:	01c7a683          	lw	a3,28(a5)
    5014:	fdc42783          	lw	a5,-36(s0)
    5018:	0207a703          	lw	a4,32(a5)
    501c:	0247a783          	lw	a5,36(a5)
    5020:	00e665b3          	or	a1,a2,a4
    5024:	feb42023          	sw	a1,-32(s0)
    5028:	00f6e7b3          	or	a5,a3,a5
    502c:	fef42223          	sw	a5,-28(s0)
    5030:	fe842783          	lw	a5,-24(s0)
    5034:	fec42703          	lw	a4,-20(s0)
    5038:	00e7e7b3          	or	a5,a5,a4
    503c:	00079a63          	bnez	a5,5050 <generate_game_state+0x80>
    5040:	fdc42783          	lw	a5,-36(s0)
    5044:	00200713          	li	a4,2
    5048:	04e7a023          	sw	a4,64(a5)
    504c:	0300006f          	j	507c <generate_game_state+0xac>
    5050:	fe042783          	lw	a5,-32(s0)
    5054:	fe442703          	lw	a4,-28(s0)
    5058:	00e7e7b3          	or	a5,a5,a4
    505c:	00079a63          	bnez	a5,5070 <generate_game_state+0xa0>
    5060:	fdc42783          	lw	a5,-36(s0)
    5064:	00100713          	li	a4,1
    5068:	04e7a023          	sw	a4,64(a5)
    506c:	0100006f          	j	507c <generate_game_state+0xac>
    5070:	fdc42783          	lw	a5,-36(s0)
    5074:	fff00713          	li	a4,-1
    5078:	04e7a023          	sw	a4,64(a5)
    507c:	00000013          	nop
    5080:	02c12403          	lw	s0,44(sp)
    5084:	03010113          	add	sp,sp,48
    5088:	00008067          	ret

0000508c <checkers_make_move>:
    508c:	fb010113          	add	sp,sp,-80
    5090:	04112623          	sw	ra,76(sp)
    5094:	04812423          	sw	s0,72(sp)
    5098:	05212223          	sw	s2,68(sp)
    509c:	05312023          	sw	s3,64(sp)
    50a0:	03412e23          	sw	s4,60(sp)
    50a4:	03512c23          	sw	s5,56(sp)
    50a8:	03612a23          	sw	s6,52(sp)
    50ac:	03712823          	sw	s7,48(sp)
    50b0:	05010413          	add	s0,sp,80
    50b4:	faa42e23          	sw	a0,-68(s0)
    50b8:	fbc42783          	lw	a5,-68(s0)
    50bc:	0347a703          	lw	a4,52(a5)
    50c0:	41f75793          	sra	a5,a4,0x1f
    50c4:	01d7d793          	srl	a5,a5,0x1d
    50c8:	00f70733          	add	a4,a4,a5
    50cc:	00777713          	and	a4,a4,7
    50d0:	40f707b3          	sub	a5,a4,a5
    50d4:	fcf42e23          	sw	a5,-36(s0)
    50d8:	fbc42783          	lw	a5,-68(s0)
    50dc:	0347a783          	lw	a5,52(a5)
    50e0:	41f7d713          	sra	a4,a5,0x1f
    50e4:	00777713          	and	a4,a4,7
    50e8:	00f707b3          	add	a5,a4,a5
    50ec:	4037d793          	sra	a5,a5,0x3
    50f0:	fcf42c23          	sw	a5,-40(s0)
    50f4:	fbc42783          	lw	a5,-68(s0)
    50f8:	0307a703          	lw	a4,48(a5)
    50fc:	41f75793          	sra	a5,a4,0x1f
    5100:	01d7d793          	srl	a5,a5,0x1d
    5104:	00f70733          	add	a4,a4,a5
    5108:	00777713          	and	a4,a4,7
    510c:	40f707b3          	sub	a5,a4,a5
    5110:	fcf42a23          	sw	a5,-44(s0)
    5114:	fbc42783          	lw	a5,-68(s0)
    5118:	0307a783          	lw	a5,48(a5)
    511c:	41f7d713          	sra	a4,a5,0x1f
    5120:	00777713          	and	a4,a4,7
    5124:	00f707b3          	add	a5,a4,a5
    5128:	4037d793          	sra	a5,a5,0x3
    512c:	fcf42823          	sw	a5,-48(s0)
    5130:	fbc42503          	lw	a0,-68(s0)
    5134:	da1ff0ef          	jal	4ed4 <checkers_can_make_move>
    5138:	00050793          	mv	a5,a0
    513c:	0017c793          	xor	a5,a5,1
    5140:	0ff7f793          	zext.b	a5,a5
    5144:	00078863          	beqz	a5,5154 <checkers_make_move+0xc8>
    5148:	000117b7          	lui	a5,0x11
    514c:	95878513          	add	a0,a5,-1704 # 10958 <glyphs_width+0x510>
    5150:	a94fd0ef          	jal	23e4 <panic>
    5154:	fdc42703          	lw	a4,-36(s0)
    5158:	fd442783          	lw	a5,-44(s0)
    515c:	06f71663          	bne	a4,a5,51c8 <checkers_make_move+0x13c>
    5160:	fd842703          	lw	a4,-40(s0)
    5164:	fd042783          	lw	a5,-48(s0)
    5168:	06f71063          	bne	a4,a5,51c8 <checkers_make_move+0x13c>
    516c:	fbc42783          	lw	a5,-68(s0)
    5170:	0207ae23          	sw	zero,60(a5)
    5174:	fbc42783          	lw	a5,-68(s0)
    5178:	fff00713          	li	a4,-1
    517c:	02e7ac23          	sw	a4,56(a5)
    5180:	fbc42783          	lw	a5,-68(s0)
    5184:	0047a783          	lw	a5,4(a5)
    5188:	00078513          	mv	a0,a5
    518c:	c19fe0ef          	jal	3da4 <checkers_opposite_player>
    5190:	00050713          	mv	a4,a0
    5194:	fbc42783          	lw	a5,-68(s0)
    5198:	00e7a223          	sw	a4,4(a5)
    519c:	fbc42783          	lw	a5,-68(s0)
    51a0:	fff00713          	li	a4,-1
    51a4:	02e7a823          	sw	a4,48(a5)
    51a8:	fbc42783          	lw	a5,-68(s0)
    51ac:	00000693          	li	a3,0
    51b0:	00000713          	li	a4,0
    51b4:	02d7a423          	sw	a3,40(a5)
    51b8:	02e7a623          	sw	a4,44(a5)
    51bc:	fbc42503          	lw	a0,-68(s0)
    51c0:	e11ff0ef          	jal	4fd0 <generate_game_state>
    51c4:	25c0006f          	j	5420 <checkers_make_move+0x394>
    51c8:	fdc42703          	lw	a4,-36(s0)
    51cc:	fd442783          	lw	a5,-44(s0)
    51d0:	40f707b3          	sub	a5,a4,a5
    51d4:	fcf42623          	sw	a5,-52(s0)
    51d8:	fd842703          	lw	a4,-40(s0)
    51dc:	fd042783          	lw	a5,-48(s0)
    51e0:	40f707b3          	sub	a5,a4,a5
    51e4:	fcf42423          	sw	a5,-56(s0)
    51e8:	fcc42783          	lw	a5,-52(s0)
    51ec:	41f7d713          	sra	a4,a5,0x1f
    51f0:	fcc42783          	lw	a5,-52(s0)
    51f4:	00f747b3          	xor	a5,a4,a5
    51f8:	40e787b3          	sub	a5,a5,a4
    51fc:	00200713          	li	a4,2
    5200:	06e79463          	bne	a5,a4,5268 <checkers_make_move+0x1dc>
    5204:	fcc42783          	lw	a5,-52(s0)
    5208:	01f7d713          	srl	a4,a5,0x1f
    520c:	00f707b3          	add	a5,a4,a5
    5210:	4017d793          	sra	a5,a5,0x1
    5214:	00078713          	mv	a4,a5
    5218:	fd442783          	lw	a5,-44(s0)
    521c:	00f706b3          	add	a3,a4,a5
    5220:	fc842783          	lw	a5,-56(s0)
    5224:	01f7d713          	srl	a4,a5,0x1f
    5228:	00f707b3          	add	a5,a4,a5
    522c:	4017d793          	sra	a5,a5,0x1
    5230:	00078713          	mv	a4,a5
    5234:	fd042783          	lw	a5,-48(s0)
    5238:	00f707b3          	add	a5,a4,a5
    523c:	00078613          	mv	a2,a5
    5240:	00068593          	mv	a1,a3
    5244:	fbc42503          	lw	a0,-68(s0)
    5248:	974ff0ef          	jal	43bc <checkers_clear_tile>
    524c:	fbc42783          	lw	a5,-68(s0)
    5250:	00100713          	li	a4,1
    5254:	02e7ae23          	sw	a4,60(a5)
    5258:	fbc42783          	lw	a5,-68(s0)
    525c:	0347a703          	lw	a4,52(a5)
    5260:	fbc42783          	lw	a5,-68(s0)
    5264:	02e7ac23          	sw	a4,56(a5)
    5268:	fd042603          	lw	a2,-48(s0)
    526c:	fd442583          	lw	a1,-44(s0)
    5270:	fbc42503          	lw	a0,-68(s0)
    5274:	db5fe0ef          	jal	4028 <checkers_get_tile>
    5278:	00050793          	mv	a5,a0
    527c:	00078693          	mv	a3,a5
    5280:	fd842603          	lw	a2,-40(s0)
    5284:	fdc42583          	lw	a1,-36(s0)
    5288:	fbc42503          	lw	a0,-68(s0)
    528c:	f8dfe0ef          	jal	4218 <checkers_set_tile>
    5290:	fd042603          	lw	a2,-48(s0)
    5294:	fd442583          	lw	a1,-44(s0)
    5298:	fbc42503          	lw	a0,-68(s0)
    529c:	920ff0ef          	jal	43bc <checkers_clear_tile>
    52a0:	fd842783          	lw	a5,-40(s0)
    52a4:	00078863          	beqz	a5,52b4 <checkers_make_move+0x228>
    52a8:	fd842703          	lw	a4,-40(s0)
    52ac:	00700793          	li	a5,7
    52b0:	06f71c63          	bne	a4,a5,5328 <checkers_make_move+0x29c>
    52b4:	fd842603          	lw	a2,-40(s0)
    52b8:	fdc42583          	lw	a1,-36(s0)
    52bc:	fbc42503          	lw	a0,-68(s0)
    52c0:	d69fe0ef          	jal	4028 <checkers_get_tile>
    52c4:	fca42223          	sw	a0,-60(s0)
    52c8:	fc442783          	lw	a5,-60(s0)
    52cc:	02079663          	bnez	a5,52f8 <checkers_make_move+0x26c>
    52d0:	fd842603          	lw	a2,-40(s0)
    52d4:	fdc42583          	lw	a1,-36(s0)
    52d8:	fbc42503          	lw	a0,-68(s0)
    52dc:	8e0ff0ef          	jal	43bc <checkers_clear_tile>
    52e0:	00200693          	li	a3,2
    52e4:	fd842603          	lw	a2,-40(s0)
    52e8:	fdc42583          	lw	a1,-36(s0)
    52ec:	fbc42503          	lw	a0,-68(s0)
    52f0:	f29fe0ef          	jal	4218 <checkers_set_tile>
    52f4:	0340006f          	j	5328 <checkers_make_move+0x29c>
    52f8:	fc442703          	lw	a4,-60(s0)
    52fc:	00100793          	li	a5,1
    5300:	02f71463          	bne	a4,a5,5328 <checkers_make_move+0x29c>
    5304:	fd842603          	lw	a2,-40(s0)
    5308:	fdc42583          	lw	a1,-36(s0)
    530c:	fbc42503          	lw	a0,-68(s0)
    5310:	8acff0ef          	jal	43bc <checkers_clear_tile>
    5314:	00300693          	li	a3,3
    5318:	fd842603          	lw	a2,-40(s0)
    531c:	fdc42583          	lw	a1,-36(s0)
    5320:	fbc42503          	lw	a0,-68(s0)
    5324:	ef5fe0ef          	jal	4218 <checkers_set_tile>
    5328:	fbc42783          	lw	a5,-68(s0)
    532c:	03c7a703          	lw	a4,60(a5)
    5330:	00100793          	li	a5,1
    5334:	08f71663          	bne	a4,a5,53c0 <checkers_make_move+0x334>
    5338:	fbc42783          	lw	a5,-68(s0)
    533c:	0387a703          	lw	a4,56(a5)
    5340:	fbc42783          	lw	a5,-68(s0)
    5344:	02e7a823          	sw	a4,48(a5)
    5348:	fbc42503          	lw	a0,-68(s0)
    534c:	a85ff0ef          	jal	4dd0 <checkers_get_available_moves>
    5350:	fbc42783          	lw	a5,-68(s0)
    5354:	0287a603          	lw	a2,40(a5)
    5358:	02c7a683          	lw	a3,44(a5)
    535c:	fbc42783          	lw	a5,-68(s0)
    5360:	0307a783          	lw	a5,48(a5)
    5364:	fe078713          	add	a4,a5,-32
    5368:	00074a63          	bltz	a4,537c <checkers_make_move+0x2f0>
    536c:	00100793          	li	a5,1
    5370:	00e799b3          	sll	s3,a5,a4
    5374:	00000913          	li	s2,0
    5378:	02c0006f          	j	53a4 <checkers_make_move+0x318>
    537c:	00100713          	li	a4,1
    5380:	00175593          	srl	a1,a4,0x1
    5384:	01f00713          	li	a4,31
    5388:	40f70733          	sub	a4,a4,a5
    538c:	00e5d733          	srl	a4,a1,a4
    5390:	00000593          	li	a1,0
    5394:	00f599b3          	sll	s3,a1,a5
    5398:	013769b3          	or	s3,a4,s3
    539c:	00100713          	li	a4,1
    53a0:	00f71933          	sll	s2,a4,a5
    53a4:	fff94a13          	not	s4,s2
    53a8:	fff9ca93          	not	s5,s3
    53ac:	01467b33          	and	s6,a2,s4
    53b0:	0156fbb3          	and	s7,a3,s5
    53b4:	000b0793          	mv	a5,s6
    53b8:	0177e7b3          	or	a5,a5,s7
    53bc:	06079063          	bnez	a5,541c <checkers_make_move+0x390>
    53c0:	fbc42783          	lw	a5,-68(s0)
    53c4:	0207ae23          	sw	zero,60(a5)
    53c8:	fbc42783          	lw	a5,-68(s0)
    53cc:	fff00713          	li	a4,-1
    53d0:	02e7ac23          	sw	a4,56(a5)
    53d4:	fbc42783          	lw	a5,-68(s0)
    53d8:	0047a783          	lw	a5,4(a5)
    53dc:	00078513          	mv	a0,a5
    53e0:	9c5fe0ef          	jal	3da4 <checkers_opposite_player>
    53e4:	00050713          	mv	a4,a0
    53e8:	fbc42783          	lw	a5,-68(s0)
    53ec:	00e7a223          	sw	a4,4(a5)
    53f0:	fbc42783          	lw	a5,-68(s0)
    53f4:	fff00713          	li	a4,-1
    53f8:	02e7a823          	sw	a4,48(a5)
    53fc:	fbc42783          	lw	a5,-68(s0)
    5400:	00000693          	li	a3,0
    5404:	00000713          	li	a4,0
    5408:	02d7a423          	sw	a3,40(a5)
    540c:	02e7a623          	sw	a4,44(a5)
    5410:	fbc42503          	lw	a0,-68(s0)
    5414:	bbdff0ef          	jal	4fd0 <generate_game_state>
    5418:	0080006f          	j	5420 <checkers_make_move+0x394>
    541c:	00000013          	nop
    5420:	04c12083          	lw	ra,76(sp)
    5424:	04812403          	lw	s0,72(sp)
    5428:	04412903          	lw	s2,68(sp)
    542c:	04012983          	lw	s3,64(sp)
    5430:	03c12a03          	lw	s4,60(sp)
    5434:	03812a83          	lw	s5,56(sp)
    5438:	03412b03          	lw	s6,52(sp)
    543c:	03012b83          	lw	s7,48(sp)
    5440:	05010113          	add	sp,sp,80
    5444:	00008067          	ret

00005448 <render_select_screen>:
    5448:	fe010113          	add	sp,sp,-32
    544c:	00112e23          	sw	ra,28(sp)
    5450:	00812c23          	sw	s0,24(sp)
    5454:	02010413          	add	s0,sp,32
    5458:	0000f7b7          	lui	a5,0xf
    545c:	9047a783          	lw	a5,-1788(a5) # e904 <has_rendered_background>
    5460:	00079e63          	bnez	a5,547c <render_select_screen+0x34>
    5464:	09100793          	li	a5,145
    5468:	00078513          	mv	a0,a5
    546c:	f31fc0ef          	jal	239c <render_background_solid>
    5470:	0000f7b7          	lui	a5,0xf
    5474:	00100713          	li	a4,1
    5478:	90e7a223          	sw	a4,-1788(a5) # e904 <has_rendered_background>
    547c:	000117b7          	lui	a5,0x11
    5480:	97c78793          	add	a5,a5,-1668 # 1097c <glyphs_width+0x534>
    5484:	fef42623          	sw	a5,-20(s0)
    5488:	000117b7          	lui	a5,0x11
    548c:	99478793          	add	a5,a5,-1644 # 10994 <glyphs_width+0x54c>
    5490:	fef42423          	sw	a5,-24(s0)
    5494:	000117b7          	lui	a5,0x11
    5498:	9a078793          	add	a5,a5,-1632 # 109a0 <glyphs_width+0x558>
    549c:	fef42223          	sw	a5,-28(s0)
    54a0:	fec42503          	lw	a0,-20(s0)
    54a4:	de1fc0ef          	jal	2284 <render_text_width>
    54a8:	fea42023          	sw	a0,-32(s0)
    54ac:	09100593          	li	a1,145
    54b0:	14000713          	li	a4,320
    54b4:	fe042783          	lw	a5,-32(s0)
    54b8:	40f707b3          	sub	a5,a4,a5
    54bc:	01f7d713          	srl	a4,a5,0x1f
    54c0:	00f707b3          	add	a5,a4,a5
    54c4:	4017d793          	sra	a5,a5,0x1
    54c8:	00000713          	li	a4,0
    54cc:	07000693          	li	a3,112
    54d0:	00078613          	mv	a2,a5
    54d4:	fec42503          	lw	a0,-20(s0)
    54d8:	cf5fc0ef          	jal	21cc <render_text_clear>
    54dc:	00000593          	li	a1,0
    54e0:	09100613          	li	a2,145
    54e4:	00000793          	li	a5,0
    54e8:	0e000713          	li	a4,224
    54ec:	00a00693          	li	a3,10
    54f0:	00011537          	lui	a0,0x11
    54f4:	9b850513          	add	a0,a0,-1608 # 109b8 <glyphs_width+0x570>
    54f8:	a25fc0ef          	jal	1f1c <render_text>
    54fc:	0000f7b7          	lui	a5,0xf
    5500:	9507a783          	lw	a5,-1712(a5) # e950 <version>
    5504:	00078863          	beqz	a5,5514 <render_select_screen+0xcc>
    5508:	00100713          	li	a4,1
    550c:	04e78663          	beq	a5,a4,5558 <render_select_screen+0x110>
    5510:	08c0006f          	j	559c <render_select_screen+0x154>
    5514:	fe842503          	lw	a0,-24(s0)
    5518:	d6dfc0ef          	jal	2284 <render_text_width>
    551c:	fea42023          	sw	a0,-32(s0)
    5520:	00000593          	li	a1,0
    5524:	09100613          	li	a2,145
    5528:	14000713          	li	a4,320
    552c:	fe042783          	lw	a5,-32(s0)
    5530:	40f707b3          	sub	a5,a4,a5
    5534:	01f7d713          	srl	a4,a5,0x1f
    5538:	00f707b3          	add	a5,a4,a5
    553c:	4017d793          	sra	a5,a5,0x1
    5540:	00078693          	mv	a3,a5
    5544:	00000793          	li	a5,0
    5548:	07000713          	li	a4,112
    554c:	fe842503          	lw	a0,-24(s0)
    5550:	9cdfc0ef          	jal	1f1c <render_text>
    5554:	0480006f          	j	559c <render_select_screen+0x154>
    5558:	fe442503          	lw	a0,-28(s0)
    555c:	d29fc0ef          	jal	2284 <render_text_width>
    5560:	fea42023          	sw	a0,-32(s0)
    5564:	00000593          	li	a1,0
    5568:	09100613          	li	a2,145
    556c:	14000713          	li	a4,320
    5570:	fe042783          	lw	a5,-32(s0)
    5574:	40f707b3          	sub	a5,a4,a5
    5578:	01f7d713          	srl	a4,a5,0x1f
    557c:	00f707b3          	add	a5,a4,a5
    5580:	4017d793          	sra	a5,a5,0x1
    5584:	00078693          	mv	a3,a5
    5588:	00000793          	li	a5,0
    558c:	07000713          	li	a4,112
    5590:	fe442503          	lw	a0,-28(s0)
    5594:	989fc0ef          	jal	1f1c <render_text>
    5598:	00000013          	nop
    559c:	d64fb0ef          	jal	b00 <io_vga_flush_pixels>
    55a0:	00000013          	nop
